
vrs_cv8-9.elf:     file format elf32-littlearm

Sections:
Idx Name          Size      VMA       LMA       File off  Algn
  0 .isr_vector   00000188  08000000  08000000  00010000  2**0
                  CONTENTS, ALLOC, LOAD, READONLY, DATA
  1 .text         0000604c  08000190  08000190  00010190  2**4
                  CONTENTS, ALLOC, LOAD, READONLY, CODE
  2 .rodata       000003ac  080061e0  080061e0  000161e0  2**3
                  CONTENTS, ALLOC, LOAD, READONLY, DATA
  3 .ARM.extab    00000000  0800658c  0800658c  000201d8  2**0
                  CONTENTS
  4 .ARM          00000000  0800658c  0800658c  000201d8  2**0
                  CONTENTS
  5 .preinit_array 00000000  0800658c  0800658c  000201d8  2**0
                  CONTENTS, ALLOC, LOAD, DATA
  6 .init_array   00000004  0800658c  0800658c  0001658c  2**2
                  CONTENTS, ALLOC, LOAD, DATA
  7 .fini_array   00000004  08006590  08006590  00016590  2**2
                  CONTENTS, ALLOC, LOAD, DATA
  8 .data         000001d8  20000000  08006594  00020000  2**2
                  CONTENTS, ALLOC, LOAD, DATA
  9 .bss          000001cc  200001d8  0800676c  000201d8  2**2
                  ALLOC
 10 ._user_heap_stack 00000604  200003a4  0800676c  000203a4  2**0
                  ALLOC
 11 .ARM.attributes 00000030  00000000  00000000  000201d8  2**0
                  CONTENTS, READONLY
 12 .debug_info   00007ed6  00000000  00000000  00020208  2**0
                  CONTENTS, READONLY, DEBUGGING
 13 .debug_abbrev 000018bd  00000000  00000000  000280de  2**0
                  CONTENTS, READONLY, DEBUGGING
 14 .debug_aranges 00000858  00000000  00000000  000299a0  2**3
                  CONTENTS, READONLY, DEBUGGING
 15 .debug_ranges 00000780  00000000  00000000  0002a1f8  2**3
                  CONTENTS, READONLY, DEBUGGING
 16 .debug_macro  000046cf  00000000  00000000  0002a978  2**0
                  CONTENTS, READONLY, DEBUGGING
 17 .debug_line   00005c96  00000000  00000000  0002f047  2**0
                  CONTENTS, READONLY, DEBUGGING
 18 .debug_str    00078014  00000000  00000000  00034cdd  2**0
                  CONTENTS, READONLY, DEBUGGING
 19 .comment      0000007b  00000000  00000000  000accf1  2**0
                  CONTENTS, READONLY
 20 .debug_frame  00003090  00000000  00000000  000acd6c  2**2
                  CONTENTS, READONLY, DEBUGGING

Disassembly of section .text:

08000190 <__do_global_dtors_aux>:
 8000190:	b510      	push	{r4, lr}
 8000192:	4c05      	ldr	r4, [pc, #20]	; (80001a8 <__do_global_dtors_aux+0x18>)
 8000194:	7823      	ldrb	r3, [r4, #0]
 8000196:	b933      	cbnz	r3, 80001a6 <__do_global_dtors_aux+0x16>
 8000198:	4b04      	ldr	r3, [pc, #16]	; (80001ac <__do_global_dtors_aux+0x1c>)
 800019a:	b113      	cbz	r3, 80001a2 <__do_global_dtors_aux+0x12>
 800019c:	4804      	ldr	r0, [pc, #16]	; (80001b0 <__do_global_dtors_aux+0x20>)
 800019e:	f3af 8000 	nop.w
 80001a2:	2301      	movs	r3, #1
 80001a4:	7023      	strb	r3, [r4, #0]
 80001a6:	bd10      	pop	{r4, pc}
 80001a8:	200001d8 	.word	0x200001d8
 80001ac:	00000000 	.word	0x00000000
 80001b0:	080061c4 	.word	0x080061c4

080001b4 <frame_dummy>:
 80001b4:	b508      	push	{r3, lr}
 80001b6:	4b03      	ldr	r3, [pc, #12]	; (80001c4 <frame_dummy+0x10>)
 80001b8:	b11b      	cbz	r3, 80001c2 <frame_dummy+0xe>
 80001ba:	4903      	ldr	r1, [pc, #12]	; (80001c8 <frame_dummy+0x14>)
 80001bc:	4803      	ldr	r0, [pc, #12]	; (80001cc <frame_dummy+0x18>)
 80001be:	f3af 8000 	nop.w
 80001c2:	bd08      	pop	{r3, pc}
 80001c4:	00000000 	.word	0x00000000
 80001c8:	200001dc 	.word	0x200001dc
 80001cc:	080061c4 	.word	0x080061c4

080001d0 <strlen>:
 80001d0:	4603      	mov	r3, r0
 80001d2:	f813 2b01 	ldrb.w	r2, [r3], #1
 80001d6:	2a00      	cmp	r2, #0
 80001d8:	d1fb      	bne.n	80001d2 <strlen+0x2>
 80001da:	1a18      	subs	r0, r3, r0
 80001dc:	3801      	subs	r0, #1
 80001de:	4770      	bx	lr

080001e0 <memchr>:
 80001e0:	f001 01ff 	and.w	r1, r1, #255	; 0xff
 80001e4:	2a10      	cmp	r2, #16
 80001e6:	db2b      	blt.n	8000240 <memchr+0x60>
 80001e8:	f010 0f07 	tst.w	r0, #7
 80001ec:	d008      	beq.n	8000200 <memchr+0x20>
 80001ee:	f810 3b01 	ldrb.w	r3, [r0], #1
 80001f2:	3a01      	subs	r2, #1
 80001f4:	428b      	cmp	r3, r1
 80001f6:	d02d      	beq.n	8000254 <memchr+0x74>
 80001f8:	f010 0f07 	tst.w	r0, #7
 80001fc:	b342      	cbz	r2, 8000250 <memchr+0x70>
 80001fe:	d1f6      	bne.n	80001ee <memchr+0xe>
 8000200:	b4f0      	push	{r4, r5, r6, r7}
 8000202:	ea41 2101 	orr.w	r1, r1, r1, lsl #8
 8000206:	ea41 4101 	orr.w	r1, r1, r1, lsl #16
 800020a:	f022 0407 	bic.w	r4, r2, #7
 800020e:	f07f 0700 	mvns.w	r7, #0
 8000212:	2300      	movs	r3, #0
 8000214:	e8f0 5602 	ldrd	r5, r6, [r0], #8
 8000218:	3c08      	subs	r4, #8
 800021a:	ea85 0501 	eor.w	r5, r5, r1
 800021e:	ea86 0601 	eor.w	r6, r6, r1
 8000222:	fa85 f547 	uadd8	r5, r5, r7
 8000226:	faa3 f587 	sel	r5, r3, r7
 800022a:	fa86 f647 	uadd8	r6, r6, r7
 800022e:	faa5 f687 	sel	r6, r5, r7
 8000232:	b98e      	cbnz	r6, 8000258 <memchr+0x78>
 8000234:	d1ee      	bne.n	8000214 <memchr+0x34>
 8000236:	bcf0      	pop	{r4, r5, r6, r7}
 8000238:	f001 01ff 	and.w	r1, r1, #255	; 0xff
 800023c:	f002 0207 	and.w	r2, r2, #7
 8000240:	b132      	cbz	r2, 8000250 <memchr+0x70>
 8000242:	f810 3b01 	ldrb.w	r3, [r0], #1
 8000246:	3a01      	subs	r2, #1
 8000248:	ea83 0301 	eor.w	r3, r3, r1
 800024c:	b113      	cbz	r3, 8000254 <memchr+0x74>
 800024e:	d1f8      	bne.n	8000242 <memchr+0x62>
 8000250:	2000      	movs	r0, #0
 8000252:	4770      	bx	lr
 8000254:	3801      	subs	r0, #1
 8000256:	4770      	bx	lr
 8000258:	2d00      	cmp	r5, #0
 800025a:	bf06      	itte	eq
 800025c:	4635      	moveq	r5, r6
 800025e:	3803      	subeq	r0, #3
 8000260:	3807      	subne	r0, #7
 8000262:	f015 0f01 	tst.w	r5, #1
 8000266:	d107      	bne.n	8000278 <memchr+0x98>
 8000268:	3001      	adds	r0, #1
 800026a:	f415 7f80 	tst.w	r5, #256	; 0x100
 800026e:	bf02      	ittt	eq
 8000270:	3001      	addeq	r0, #1
 8000272:	f415 3fc0 	tsteq.w	r5, #98304	; 0x18000
 8000276:	3001      	addeq	r0, #1
 8000278:	bcf0      	pop	{r4, r5, r6, r7}
 800027a:	3801      	subs	r0, #1
 800027c:	4770      	bx	lr
 800027e:	bf00      	nop

08000280 <__aeabi_drsub>:
 8000280:	f081 4100 	eor.w	r1, r1, #2147483648	; 0x80000000
 8000284:	e002      	b.n	800028c <__adddf3>
 8000286:	bf00      	nop

08000288 <__aeabi_dsub>:
 8000288:	f083 4300 	eor.w	r3, r3, #2147483648	; 0x80000000

0800028c <__adddf3>:
 800028c:	b530      	push	{r4, r5, lr}
 800028e:	ea4f 0441 	mov.w	r4, r1, lsl #1
 8000292:	ea4f 0543 	mov.w	r5, r3, lsl #1
 8000296:	ea94 0f05 	teq	r4, r5
 800029a:	bf08      	it	eq
 800029c:	ea90 0f02 	teqeq	r0, r2
 80002a0:	bf1f      	itttt	ne
 80002a2:	ea54 0c00 	orrsne.w	ip, r4, r0
 80002a6:	ea55 0c02 	orrsne.w	ip, r5, r2
 80002aa:	ea7f 5c64 	mvnsne.w	ip, r4, asr #21
 80002ae:	ea7f 5c65 	mvnsne.w	ip, r5, asr #21
 80002b2:	f000 80e2 	beq.w	800047a <__adddf3+0x1ee>
 80002b6:	ea4f 5454 	mov.w	r4, r4, lsr #21
 80002ba:	ebd4 5555 	rsbs	r5, r4, r5, lsr #21
 80002be:	bfb8      	it	lt
 80002c0:	426d      	neglt	r5, r5
 80002c2:	dd0c      	ble.n	80002de <__adddf3+0x52>
 80002c4:	442c      	add	r4, r5
 80002c6:	ea80 0202 	eor.w	r2, r0, r2
 80002ca:	ea81 0303 	eor.w	r3, r1, r3
 80002ce:	ea82 0000 	eor.w	r0, r2, r0
 80002d2:	ea83 0101 	eor.w	r1, r3, r1
 80002d6:	ea80 0202 	eor.w	r2, r0, r2
 80002da:	ea81 0303 	eor.w	r3, r1, r3
 80002de:	2d36      	cmp	r5, #54	; 0x36
 80002e0:	bf88      	it	hi
 80002e2:	bd30      	pophi	{r4, r5, pc}
 80002e4:	f011 4f00 	tst.w	r1, #2147483648	; 0x80000000
 80002e8:	ea4f 3101 	mov.w	r1, r1, lsl #12
 80002ec:	f44f 1c80 	mov.w	ip, #1048576	; 0x100000
 80002f0:	ea4c 3111 	orr.w	r1, ip, r1, lsr #12
 80002f4:	d002      	beq.n	80002fc <__adddf3+0x70>
 80002f6:	4240      	negs	r0, r0
 80002f8:	eb61 0141 	sbc.w	r1, r1, r1, lsl #1
 80002fc:	f013 4f00 	tst.w	r3, #2147483648	; 0x80000000
 8000300:	ea4f 3303 	mov.w	r3, r3, lsl #12
 8000304:	ea4c 3313 	orr.w	r3, ip, r3, lsr #12
 8000308:	d002      	beq.n	8000310 <__adddf3+0x84>
 800030a:	4252      	negs	r2, r2
 800030c:	eb63 0343 	sbc.w	r3, r3, r3, lsl #1
 8000310:	ea94 0f05 	teq	r4, r5
 8000314:	f000 80a7 	beq.w	8000466 <__adddf3+0x1da>
 8000318:	f1a4 0401 	sub.w	r4, r4, #1
 800031c:	f1d5 0e20 	rsbs	lr, r5, #32
 8000320:	db0d      	blt.n	800033e <__adddf3+0xb2>
 8000322:	fa02 fc0e 	lsl.w	ip, r2, lr
 8000326:	fa22 f205 	lsr.w	r2, r2, r5
 800032a:	1880      	adds	r0, r0, r2
 800032c:	f141 0100 	adc.w	r1, r1, #0
 8000330:	fa03 f20e 	lsl.w	r2, r3, lr
 8000334:	1880      	adds	r0, r0, r2
 8000336:	fa43 f305 	asr.w	r3, r3, r5
 800033a:	4159      	adcs	r1, r3
 800033c:	e00e      	b.n	800035c <__adddf3+0xd0>
 800033e:	f1a5 0520 	sub.w	r5, r5, #32
 8000342:	f10e 0e20 	add.w	lr, lr, #32
 8000346:	2a01      	cmp	r2, #1
 8000348:	fa03 fc0e 	lsl.w	ip, r3, lr
 800034c:	bf28      	it	cs
 800034e:	f04c 0c02 	orrcs.w	ip, ip, #2
 8000352:	fa43 f305 	asr.w	r3, r3, r5
 8000356:	18c0      	adds	r0, r0, r3
 8000358:	eb51 71e3 	adcs.w	r1, r1, r3, asr #31
 800035c:	f001 4500 	and.w	r5, r1, #2147483648	; 0x80000000
 8000360:	d507      	bpl.n	8000372 <__adddf3+0xe6>
 8000362:	f04f 0e00 	mov.w	lr, #0
 8000366:	f1dc 0c00 	rsbs	ip, ip, #0
 800036a:	eb7e 0000 	sbcs.w	r0, lr, r0
 800036e:	eb6e 0101 	sbc.w	r1, lr, r1
 8000372:	f5b1 1f80 	cmp.w	r1, #1048576	; 0x100000
 8000376:	d31b      	bcc.n	80003b0 <__adddf3+0x124>
 8000378:	f5b1 1f00 	cmp.w	r1, #2097152	; 0x200000
 800037c:	d30c      	bcc.n	8000398 <__adddf3+0x10c>
 800037e:	0849      	lsrs	r1, r1, #1
 8000380:	ea5f 0030 	movs.w	r0, r0, rrx
 8000384:	ea4f 0c3c 	mov.w	ip, ip, rrx
 8000388:	f104 0401 	add.w	r4, r4, #1
 800038c:	ea4f 5244 	mov.w	r2, r4, lsl #21
 8000390:	f512 0f80 	cmn.w	r2, #4194304	; 0x400000
 8000394:	f080 809a 	bcs.w	80004cc <__adddf3+0x240>
 8000398:	f1bc 4f00 	cmp.w	ip, #2147483648	; 0x80000000
 800039c:	bf08      	it	eq
 800039e:	ea5f 0c50 	movseq.w	ip, r0, lsr #1
 80003a2:	f150 0000 	adcs.w	r0, r0, #0
 80003a6:	eb41 5104 	adc.w	r1, r1, r4, lsl #20
 80003aa:	ea41 0105 	orr.w	r1, r1, r5
 80003ae:	bd30      	pop	{r4, r5, pc}
 80003b0:	ea5f 0c4c 	movs.w	ip, ip, lsl #1
 80003b4:	4140      	adcs	r0, r0
 80003b6:	eb41 0101 	adc.w	r1, r1, r1
 80003ba:	f411 1f80 	tst.w	r1, #1048576	; 0x100000
 80003be:	f1a4 0401 	sub.w	r4, r4, #1
 80003c2:	d1e9      	bne.n	8000398 <__adddf3+0x10c>
 80003c4:	f091 0f00 	teq	r1, #0
 80003c8:	bf04      	itt	eq
 80003ca:	4601      	moveq	r1, r0
 80003cc:	2000      	moveq	r0, #0
 80003ce:	fab1 f381 	clz	r3, r1
 80003d2:	bf08      	it	eq
 80003d4:	3320      	addeq	r3, #32
 80003d6:	f1a3 030b 	sub.w	r3, r3, #11
 80003da:	f1b3 0220 	subs.w	r2, r3, #32
 80003de:	da0c      	bge.n	80003fa <__adddf3+0x16e>
 80003e0:	320c      	adds	r2, #12
 80003e2:	dd08      	ble.n	80003f6 <__adddf3+0x16a>
 80003e4:	f102 0c14 	add.w	ip, r2, #20
 80003e8:	f1c2 020c 	rsb	r2, r2, #12
 80003ec:	fa01 f00c 	lsl.w	r0, r1, ip
 80003f0:	fa21 f102 	lsr.w	r1, r1, r2
 80003f4:	e00c      	b.n	8000410 <__adddf3+0x184>
 80003f6:	f102 0214 	add.w	r2, r2, #20
 80003fa:	bfd8      	it	le
 80003fc:	f1c2 0c20 	rsble	ip, r2, #32
 8000400:	fa01 f102 	lsl.w	r1, r1, r2
 8000404:	fa20 fc0c 	lsr.w	ip, r0, ip
 8000408:	bfdc      	itt	le
 800040a:	ea41 010c 	orrle.w	r1, r1, ip
 800040e:	4090      	lslle	r0, r2
 8000410:	1ae4      	subs	r4, r4, r3
 8000412:	bfa2      	ittt	ge
 8000414:	eb01 5104 	addge.w	r1, r1, r4, lsl #20
 8000418:	4329      	orrge	r1, r5
 800041a:	bd30      	popge	{r4, r5, pc}
 800041c:	ea6f 0404 	mvn.w	r4, r4
 8000420:	3c1f      	subs	r4, #31
 8000422:	da1c      	bge.n	800045e <__adddf3+0x1d2>
 8000424:	340c      	adds	r4, #12
 8000426:	dc0e      	bgt.n	8000446 <__adddf3+0x1ba>
 8000428:	f104 0414 	add.w	r4, r4, #20
 800042c:	f1c4 0220 	rsb	r2, r4, #32
 8000430:	fa20 f004 	lsr.w	r0, r0, r4
 8000434:	fa01 f302 	lsl.w	r3, r1, r2
 8000438:	ea40 0003 	orr.w	r0, r0, r3
 800043c:	fa21 f304 	lsr.w	r3, r1, r4
 8000440:	ea45 0103 	orr.w	r1, r5, r3
 8000444:	bd30      	pop	{r4, r5, pc}
 8000446:	f1c4 040c 	rsb	r4, r4, #12
 800044a:	f1c4 0220 	rsb	r2, r4, #32
 800044e:	fa20 f002 	lsr.w	r0, r0, r2
 8000452:	fa01 f304 	lsl.w	r3, r1, r4
 8000456:	ea40 0003 	orr.w	r0, r0, r3
 800045a:	4629      	mov	r1, r5
 800045c:	bd30      	pop	{r4, r5, pc}
 800045e:	fa21 f004 	lsr.w	r0, r1, r4
 8000462:	4629      	mov	r1, r5
 8000464:	bd30      	pop	{r4, r5, pc}
 8000466:	f094 0f00 	teq	r4, #0
 800046a:	f483 1380 	eor.w	r3, r3, #1048576	; 0x100000
 800046e:	bf06      	itte	eq
 8000470:	f481 1180 	eoreq.w	r1, r1, #1048576	; 0x100000
 8000474:	3401      	addeq	r4, #1
 8000476:	3d01      	subne	r5, #1
 8000478:	e74e      	b.n	8000318 <__adddf3+0x8c>
 800047a:	ea7f 5c64 	mvns.w	ip, r4, asr #21
 800047e:	bf18      	it	ne
 8000480:	ea7f 5c65 	mvnsne.w	ip, r5, asr #21
 8000484:	d029      	beq.n	80004da <__adddf3+0x24e>
 8000486:	ea94 0f05 	teq	r4, r5
 800048a:	bf08      	it	eq
 800048c:	ea90 0f02 	teqeq	r0, r2
 8000490:	d005      	beq.n	800049e <__adddf3+0x212>
 8000492:	ea54 0c00 	orrs.w	ip, r4, r0
 8000496:	bf04      	itt	eq
 8000498:	4619      	moveq	r1, r3
 800049a:	4610      	moveq	r0, r2
 800049c:	bd30      	pop	{r4, r5, pc}
 800049e:	ea91 0f03 	teq	r1, r3
 80004a2:	bf1e      	ittt	ne
 80004a4:	2100      	movne	r1, #0
 80004a6:	2000      	movne	r0, #0
 80004a8:	bd30      	popne	{r4, r5, pc}
 80004aa:	ea5f 5c54 	movs.w	ip, r4, lsr #21
 80004ae:	d105      	bne.n	80004bc <__adddf3+0x230>
 80004b0:	0040      	lsls	r0, r0, #1
 80004b2:	4149      	adcs	r1, r1
 80004b4:	bf28      	it	cs
 80004b6:	f041 4100 	orrcs.w	r1, r1, #2147483648	; 0x80000000
 80004ba:	bd30      	pop	{r4, r5, pc}
 80004bc:	f514 0480 	adds.w	r4, r4, #4194304	; 0x400000
 80004c0:	bf3c      	itt	cc
 80004c2:	f501 1180 	addcc.w	r1, r1, #1048576	; 0x100000
 80004c6:	bd30      	popcc	{r4, r5, pc}
 80004c8:	f001 4500 	and.w	r5, r1, #2147483648	; 0x80000000
 80004cc:	f045 41fe 	orr.w	r1, r5, #2130706432	; 0x7f000000
 80004d0:	f441 0170 	orr.w	r1, r1, #15728640	; 0xf00000
 80004d4:	f04f 0000 	mov.w	r0, #0
 80004d8:	bd30      	pop	{r4, r5, pc}
 80004da:	ea7f 5c64 	mvns.w	ip, r4, asr #21
 80004de:	bf1a      	itte	ne
 80004e0:	4619      	movne	r1, r3
 80004e2:	4610      	movne	r0, r2
 80004e4:	ea7f 5c65 	mvnseq.w	ip, r5, asr #21
 80004e8:	bf1c      	itt	ne
 80004ea:	460b      	movne	r3, r1
 80004ec:	4602      	movne	r2, r0
 80004ee:	ea50 3401 	orrs.w	r4, r0, r1, lsl #12
 80004f2:	bf06      	itte	eq
 80004f4:	ea52 3503 	orrseq.w	r5, r2, r3, lsl #12
 80004f8:	ea91 0f03 	teqeq	r1, r3
 80004fc:	f441 2100 	orrne.w	r1, r1, #524288	; 0x80000
 8000500:	bd30      	pop	{r4, r5, pc}
 8000502:	bf00      	nop

08000504 <__aeabi_ui2d>:
 8000504:	f090 0f00 	teq	r0, #0
 8000508:	bf04      	itt	eq
 800050a:	2100      	moveq	r1, #0
 800050c:	4770      	bxeq	lr
 800050e:	b530      	push	{r4, r5, lr}
 8000510:	f44f 6480 	mov.w	r4, #1024	; 0x400
 8000514:	f104 0432 	add.w	r4, r4, #50	; 0x32
 8000518:	f04f 0500 	mov.w	r5, #0
 800051c:	f04f 0100 	mov.w	r1, #0
 8000520:	e750      	b.n	80003c4 <__adddf3+0x138>
 8000522:	bf00      	nop

08000524 <__aeabi_i2d>:
 8000524:	f090 0f00 	teq	r0, #0
 8000528:	bf04      	itt	eq
 800052a:	2100      	moveq	r1, #0
 800052c:	4770      	bxeq	lr
 800052e:	b530      	push	{r4, r5, lr}
 8000530:	f44f 6480 	mov.w	r4, #1024	; 0x400
 8000534:	f104 0432 	add.w	r4, r4, #50	; 0x32
 8000538:	f010 4500 	ands.w	r5, r0, #2147483648	; 0x80000000
 800053c:	bf48      	it	mi
 800053e:	4240      	negmi	r0, r0
 8000540:	f04f 0100 	mov.w	r1, #0
 8000544:	e73e      	b.n	80003c4 <__adddf3+0x138>
 8000546:	bf00      	nop

08000548 <__aeabi_f2d>:
 8000548:	0042      	lsls	r2, r0, #1
 800054a:	ea4f 01e2 	mov.w	r1, r2, asr #3
 800054e:	ea4f 0131 	mov.w	r1, r1, rrx
 8000552:	ea4f 7002 	mov.w	r0, r2, lsl #28
 8000556:	bf1f      	itttt	ne
 8000558:	f012 437f 	andsne.w	r3, r2, #4278190080	; 0xff000000
 800055c:	f093 4f7f 	teqne	r3, #4278190080	; 0xff000000
 8000560:	f081 5160 	eorne.w	r1, r1, #939524096	; 0x38000000
 8000564:	4770      	bxne	lr
 8000566:	f032 427f 	bics.w	r2, r2, #4278190080	; 0xff000000
 800056a:	bf08      	it	eq
 800056c:	4770      	bxeq	lr
 800056e:	f093 4f7f 	teq	r3, #4278190080	; 0xff000000
 8000572:	bf04      	itt	eq
 8000574:	f441 2100 	orreq.w	r1, r1, #524288	; 0x80000
 8000578:	4770      	bxeq	lr
 800057a:	b530      	push	{r4, r5, lr}
 800057c:	f44f 7460 	mov.w	r4, #896	; 0x380
 8000580:	f001 4500 	and.w	r5, r1, #2147483648	; 0x80000000
 8000584:	f021 4100 	bic.w	r1, r1, #2147483648	; 0x80000000
 8000588:	e71c      	b.n	80003c4 <__adddf3+0x138>
 800058a:	bf00      	nop

0800058c <__aeabi_ul2d>:
 800058c:	ea50 0201 	orrs.w	r2, r0, r1
 8000590:	bf08      	it	eq
 8000592:	4770      	bxeq	lr
 8000594:	b530      	push	{r4, r5, lr}
 8000596:	f04f 0500 	mov.w	r5, #0
 800059a:	e00a      	b.n	80005b2 <__aeabi_l2d+0x16>

0800059c <__aeabi_l2d>:
 800059c:	ea50 0201 	orrs.w	r2, r0, r1
 80005a0:	bf08      	it	eq
 80005a2:	4770      	bxeq	lr
 80005a4:	b530      	push	{r4, r5, lr}
 80005a6:	f011 4500 	ands.w	r5, r1, #2147483648	; 0x80000000
 80005aa:	d502      	bpl.n	80005b2 <__aeabi_l2d+0x16>
 80005ac:	4240      	negs	r0, r0
 80005ae:	eb61 0141 	sbc.w	r1, r1, r1, lsl #1
 80005b2:	f44f 6480 	mov.w	r4, #1024	; 0x400
 80005b6:	f104 0432 	add.w	r4, r4, #50	; 0x32
 80005ba:	ea5f 5c91 	movs.w	ip, r1, lsr #22
 80005be:	f43f aed8 	beq.w	8000372 <__adddf3+0xe6>
 80005c2:	f04f 0203 	mov.w	r2, #3
 80005c6:	ea5f 0cdc 	movs.w	ip, ip, lsr #3
 80005ca:	bf18      	it	ne
 80005cc:	3203      	addne	r2, #3
 80005ce:	ea5f 0cdc 	movs.w	ip, ip, lsr #3
 80005d2:	bf18      	it	ne
 80005d4:	3203      	addne	r2, #3
 80005d6:	eb02 02dc 	add.w	r2, r2, ip, lsr #3
 80005da:	f1c2 0320 	rsb	r3, r2, #32
 80005de:	fa00 fc03 	lsl.w	ip, r0, r3
 80005e2:	fa20 f002 	lsr.w	r0, r0, r2
 80005e6:	fa01 fe03 	lsl.w	lr, r1, r3
 80005ea:	ea40 000e 	orr.w	r0, r0, lr
 80005ee:	fa21 f102 	lsr.w	r1, r1, r2
 80005f2:	4414      	add	r4, r2
 80005f4:	e6bd      	b.n	8000372 <__adddf3+0xe6>
 80005f6:	bf00      	nop

080005f8 <__aeabi_dmul>:
 80005f8:	b570      	push	{r4, r5, r6, lr}
 80005fa:	f04f 0cff 	mov.w	ip, #255	; 0xff
 80005fe:	f44c 6ce0 	orr.w	ip, ip, #1792	; 0x700
 8000602:	ea1c 5411 	ands.w	r4, ip, r1, lsr #20
 8000606:	bf1d      	ittte	ne
 8000608:	ea1c 5513 	andsne.w	r5, ip, r3, lsr #20
 800060c:	ea94 0f0c 	teqne	r4, ip
 8000610:	ea95 0f0c 	teqne	r5, ip
 8000614:	f000 f8de 	bleq	80007d4 <__aeabi_dmul+0x1dc>
 8000618:	442c      	add	r4, r5
 800061a:	ea81 0603 	eor.w	r6, r1, r3
 800061e:	ea21 514c 	bic.w	r1, r1, ip, lsl #21
 8000622:	ea23 534c 	bic.w	r3, r3, ip, lsl #21
 8000626:	ea50 3501 	orrs.w	r5, r0, r1, lsl #12
 800062a:	bf18      	it	ne
 800062c:	ea52 3503 	orrsne.w	r5, r2, r3, lsl #12
 8000630:	f441 1180 	orr.w	r1, r1, #1048576	; 0x100000
 8000634:	f443 1380 	orr.w	r3, r3, #1048576	; 0x100000
 8000638:	d038      	beq.n	80006ac <__aeabi_dmul+0xb4>
 800063a:	fba0 ce02 	umull	ip, lr, r0, r2
 800063e:	f04f 0500 	mov.w	r5, #0
 8000642:	fbe1 e502 	umlal	lr, r5, r1, r2
 8000646:	f006 4200 	and.w	r2, r6, #2147483648	; 0x80000000
 800064a:	fbe0 e503 	umlal	lr, r5, r0, r3
 800064e:	f04f 0600 	mov.w	r6, #0
 8000652:	fbe1 5603 	umlal	r5, r6, r1, r3
 8000656:	f09c 0f00 	teq	ip, #0
 800065a:	bf18      	it	ne
 800065c:	f04e 0e01 	orrne.w	lr, lr, #1
 8000660:	f1a4 04ff 	sub.w	r4, r4, #255	; 0xff
 8000664:	f5b6 7f00 	cmp.w	r6, #512	; 0x200
 8000668:	f564 7440 	sbc.w	r4, r4, #768	; 0x300
 800066c:	d204      	bcs.n	8000678 <__aeabi_dmul+0x80>
 800066e:	ea5f 0e4e 	movs.w	lr, lr, lsl #1
 8000672:	416d      	adcs	r5, r5
 8000674:	eb46 0606 	adc.w	r6, r6, r6
 8000678:	ea42 21c6 	orr.w	r1, r2, r6, lsl #11
 800067c:	ea41 5155 	orr.w	r1, r1, r5, lsr #21
 8000680:	ea4f 20c5 	mov.w	r0, r5, lsl #11
 8000684:	ea40 505e 	orr.w	r0, r0, lr, lsr #21
 8000688:	ea4f 2ece 	mov.w	lr, lr, lsl #11
 800068c:	f1b4 0cfd 	subs.w	ip, r4, #253	; 0xfd
 8000690:	bf88      	it	hi
 8000692:	f5bc 6fe0 	cmphi.w	ip, #1792	; 0x700
 8000696:	d81e      	bhi.n	80006d6 <__aeabi_dmul+0xde>
 8000698:	f1be 4f00 	cmp.w	lr, #2147483648	; 0x80000000
 800069c:	bf08      	it	eq
 800069e:	ea5f 0e50 	movseq.w	lr, r0, lsr #1
 80006a2:	f150 0000 	adcs.w	r0, r0, #0
 80006a6:	eb41 5104 	adc.w	r1, r1, r4, lsl #20
 80006aa:	bd70      	pop	{r4, r5, r6, pc}
 80006ac:	f006 4600 	and.w	r6, r6, #2147483648	; 0x80000000
 80006b0:	ea46 0101 	orr.w	r1, r6, r1
 80006b4:	ea40 0002 	orr.w	r0, r0, r2
 80006b8:	ea81 0103 	eor.w	r1, r1, r3
 80006bc:	ebb4 045c 	subs.w	r4, r4, ip, lsr #1
 80006c0:	bfc2      	ittt	gt
 80006c2:	ebd4 050c 	rsbsgt	r5, r4, ip
 80006c6:	ea41 5104 	orrgt.w	r1, r1, r4, lsl #20
 80006ca:	bd70      	popgt	{r4, r5, r6, pc}
 80006cc:	f441 1180 	orr.w	r1, r1, #1048576	; 0x100000
 80006d0:	f04f 0e00 	mov.w	lr, #0
 80006d4:	3c01      	subs	r4, #1
 80006d6:	f300 80ab 	bgt.w	8000830 <__aeabi_dmul+0x238>
 80006da:	f114 0f36 	cmn.w	r4, #54	; 0x36
 80006de:	bfde      	ittt	le
 80006e0:	2000      	movle	r0, #0
 80006e2:	f001 4100 	andle.w	r1, r1, #2147483648	; 0x80000000
 80006e6:	bd70      	pople	{r4, r5, r6, pc}
 80006e8:	f1c4 0400 	rsb	r4, r4, #0
 80006ec:	3c20      	subs	r4, #32
 80006ee:	da35      	bge.n	800075c <__aeabi_dmul+0x164>
 80006f0:	340c      	adds	r4, #12
 80006f2:	dc1b      	bgt.n	800072c <__aeabi_dmul+0x134>
 80006f4:	f104 0414 	add.w	r4, r4, #20
 80006f8:	f1c4 0520 	rsb	r5, r4, #32
 80006fc:	fa00 f305 	lsl.w	r3, r0, r5
 8000700:	fa20 f004 	lsr.w	r0, r0, r4
 8000704:	fa01 f205 	lsl.w	r2, r1, r5
 8000708:	ea40 0002 	orr.w	r0, r0, r2
 800070c:	f001 4200 	and.w	r2, r1, #2147483648	; 0x80000000
 8000710:	f021 4100 	bic.w	r1, r1, #2147483648	; 0x80000000
 8000714:	eb10 70d3 	adds.w	r0, r0, r3, lsr #31
 8000718:	fa21 f604 	lsr.w	r6, r1, r4
 800071c:	eb42 0106 	adc.w	r1, r2, r6
 8000720:	ea5e 0e43 	orrs.w	lr, lr, r3, lsl #1
 8000724:	bf08      	it	eq
 8000726:	ea20 70d3 	biceq.w	r0, r0, r3, lsr #31
 800072a:	bd70      	pop	{r4, r5, r6, pc}
 800072c:	f1c4 040c 	rsb	r4, r4, #12
 8000730:	f1c4 0520 	rsb	r5, r4, #32
 8000734:	fa00 f304 	lsl.w	r3, r0, r4
 8000738:	fa20 f005 	lsr.w	r0, r0, r5
 800073c:	fa01 f204 	lsl.w	r2, r1, r4
 8000740:	ea40 0002 	orr.w	r0, r0, r2
 8000744:	f001 4100 	and.w	r1, r1, #2147483648	; 0x80000000
 8000748:	eb10 70d3 	adds.w	r0, r0, r3, lsr #31
 800074c:	f141 0100 	adc.w	r1, r1, #0
 8000750:	ea5e 0e43 	orrs.w	lr, lr, r3, lsl #1
 8000754:	bf08      	it	eq
 8000756:	ea20 70d3 	biceq.w	r0, r0, r3, lsr #31
 800075a:	bd70      	pop	{r4, r5, r6, pc}
 800075c:	f1c4 0520 	rsb	r5, r4, #32
 8000760:	fa00 f205 	lsl.w	r2, r0, r5
 8000764:	ea4e 0e02 	orr.w	lr, lr, r2
 8000768:	fa20 f304 	lsr.w	r3, r0, r4
 800076c:	fa01 f205 	lsl.w	r2, r1, r5
 8000770:	ea43 0302 	orr.w	r3, r3, r2
 8000774:	fa21 f004 	lsr.w	r0, r1, r4
 8000778:	f001 4100 	and.w	r1, r1, #2147483648	; 0x80000000
 800077c:	fa21 f204 	lsr.w	r2, r1, r4
 8000780:	ea20 0002 	bic.w	r0, r0, r2
 8000784:	eb00 70d3 	add.w	r0, r0, r3, lsr #31
 8000788:	ea5e 0e43 	orrs.w	lr, lr, r3, lsl #1
 800078c:	bf08      	it	eq
 800078e:	ea20 70d3 	biceq.w	r0, r0, r3, lsr #31
 8000792:	bd70      	pop	{r4, r5, r6, pc}
 8000794:	f094 0f00 	teq	r4, #0
 8000798:	d10f      	bne.n	80007ba <__aeabi_dmul+0x1c2>
 800079a:	f001 4600 	and.w	r6, r1, #2147483648	; 0x80000000
 800079e:	0040      	lsls	r0, r0, #1
 80007a0:	eb41 0101 	adc.w	r1, r1, r1
 80007a4:	f411 1f80 	tst.w	r1, #1048576	; 0x100000
 80007a8:	bf08      	it	eq
 80007aa:	3c01      	subeq	r4, #1
 80007ac:	d0f7      	beq.n	800079e <__aeabi_dmul+0x1a6>
 80007ae:	ea41 0106 	orr.w	r1, r1, r6
 80007b2:	f095 0f00 	teq	r5, #0
 80007b6:	bf18      	it	ne
 80007b8:	4770      	bxne	lr
 80007ba:	f003 4600 	and.w	r6, r3, #2147483648	; 0x80000000
 80007be:	0052      	lsls	r2, r2, #1
 80007c0:	eb43 0303 	adc.w	r3, r3, r3
 80007c4:	f413 1f80 	tst.w	r3, #1048576	; 0x100000
 80007c8:	bf08      	it	eq
 80007ca:	3d01      	subeq	r5, #1
 80007cc:	d0f7      	beq.n	80007be <__aeabi_dmul+0x1c6>
 80007ce:	ea43 0306 	orr.w	r3, r3, r6
 80007d2:	4770      	bx	lr
 80007d4:	ea94 0f0c 	teq	r4, ip
 80007d8:	ea0c 5513 	and.w	r5, ip, r3, lsr #20
 80007dc:	bf18      	it	ne
 80007de:	ea95 0f0c 	teqne	r5, ip
 80007e2:	d00c      	beq.n	80007fe <__aeabi_dmul+0x206>
 80007e4:	ea50 0641 	orrs.w	r6, r0, r1, lsl #1
 80007e8:	bf18      	it	ne
 80007ea:	ea52 0643 	orrsne.w	r6, r2, r3, lsl #1
 80007ee:	d1d1      	bne.n	8000794 <__aeabi_dmul+0x19c>
 80007f0:	ea81 0103 	eor.w	r1, r1, r3
 80007f4:	f001 4100 	and.w	r1, r1, #2147483648	; 0x80000000
 80007f8:	f04f 0000 	mov.w	r0, #0
 80007fc:	bd70      	pop	{r4, r5, r6, pc}
 80007fe:	ea50 0641 	orrs.w	r6, r0, r1, lsl #1
 8000802:	bf06      	itte	eq
 8000804:	4610      	moveq	r0, r2
 8000806:	4619      	moveq	r1, r3
 8000808:	ea52 0643 	orrsne.w	r6, r2, r3, lsl #1
 800080c:	d019      	beq.n	8000842 <__aeabi_dmul+0x24a>
 800080e:	ea94 0f0c 	teq	r4, ip
 8000812:	d102      	bne.n	800081a <__aeabi_dmul+0x222>
 8000814:	ea50 3601 	orrs.w	r6, r0, r1, lsl #12
 8000818:	d113      	bne.n	8000842 <__aeabi_dmul+0x24a>
 800081a:	ea95 0f0c 	teq	r5, ip
 800081e:	d105      	bne.n	800082c <__aeabi_dmul+0x234>
 8000820:	ea52 3603 	orrs.w	r6, r2, r3, lsl #12
 8000824:	bf1c      	itt	ne
 8000826:	4610      	movne	r0, r2
 8000828:	4619      	movne	r1, r3
 800082a:	d10a      	bne.n	8000842 <__aeabi_dmul+0x24a>
 800082c:	ea81 0103 	eor.w	r1, r1, r3
 8000830:	f001 4100 	and.w	r1, r1, #2147483648	; 0x80000000
 8000834:	f041 41fe 	orr.w	r1, r1, #2130706432	; 0x7f000000
 8000838:	f441 0170 	orr.w	r1, r1, #15728640	; 0xf00000
 800083c:	f04f 0000 	mov.w	r0, #0
 8000840:	bd70      	pop	{r4, r5, r6, pc}
 8000842:	f041 41fe 	orr.w	r1, r1, #2130706432	; 0x7f000000
 8000846:	f441 0178 	orr.w	r1, r1, #16252928	; 0xf80000
 800084a:	bd70      	pop	{r4, r5, r6, pc}

0800084c <__aeabi_ddiv>:
 800084c:	b570      	push	{r4, r5, r6, lr}
 800084e:	f04f 0cff 	mov.w	ip, #255	; 0xff
 8000852:	f44c 6ce0 	orr.w	ip, ip, #1792	; 0x700
 8000856:	ea1c 5411 	ands.w	r4, ip, r1, lsr #20
 800085a:	bf1d      	ittte	ne
 800085c:	ea1c 5513 	andsne.w	r5, ip, r3, lsr #20
 8000860:	ea94 0f0c 	teqne	r4, ip
 8000864:	ea95 0f0c 	teqne	r5, ip
 8000868:	f000 f8a7 	bleq	80009ba <__aeabi_ddiv+0x16e>
 800086c:	eba4 0405 	sub.w	r4, r4, r5
 8000870:	ea81 0e03 	eor.w	lr, r1, r3
 8000874:	ea52 3503 	orrs.w	r5, r2, r3, lsl #12
 8000878:	ea4f 3101 	mov.w	r1, r1, lsl #12
 800087c:	f000 8088 	beq.w	8000990 <__aeabi_ddiv+0x144>
 8000880:	ea4f 3303 	mov.w	r3, r3, lsl #12
 8000884:	f04f 5580 	mov.w	r5, #268435456	; 0x10000000
 8000888:	ea45 1313 	orr.w	r3, r5, r3, lsr #4
 800088c:	ea43 6312 	orr.w	r3, r3, r2, lsr #24
 8000890:	ea4f 2202 	mov.w	r2, r2, lsl #8
 8000894:	ea45 1511 	orr.w	r5, r5, r1, lsr #4
 8000898:	ea45 6510 	orr.w	r5, r5, r0, lsr #24
 800089c:	ea4f 2600 	mov.w	r6, r0, lsl #8
 80008a0:	f00e 4100 	and.w	r1, lr, #2147483648	; 0x80000000
 80008a4:	429d      	cmp	r5, r3
 80008a6:	bf08      	it	eq
 80008a8:	4296      	cmpeq	r6, r2
 80008aa:	f144 04fd 	adc.w	r4, r4, #253	; 0xfd
 80008ae:	f504 7440 	add.w	r4, r4, #768	; 0x300
 80008b2:	d202      	bcs.n	80008ba <__aeabi_ddiv+0x6e>
 80008b4:	085b      	lsrs	r3, r3, #1
 80008b6:	ea4f 0232 	mov.w	r2, r2, rrx
 80008ba:	1ab6      	subs	r6, r6, r2
 80008bc:	eb65 0503 	sbc.w	r5, r5, r3
 80008c0:	085b      	lsrs	r3, r3, #1
 80008c2:	ea4f 0232 	mov.w	r2, r2, rrx
 80008c6:	f44f 1080 	mov.w	r0, #1048576	; 0x100000
 80008ca:	f44f 2c00 	mov.w	ip, #524288	; 0x80000
 80008ce:	ebb6 0e02 	subs.w	lr, r6, r2
 80008d2:	eb75 0e03 	sbcs.w	lr, r5, r3
 80008d6:	bf22      	ittt	cs
 80008d8:	1ab6      	subcs	r6, r6, r2
 80008da:	4675      	movcs	r5, lr
 80008dc:	ea40 000c 	orrcs.w	r0, r0, ip
 80008e0:	085b      	lsrs	r3, r3, #1
 80008e2:	ea4f 0232 	mov.w	r2, r2, rrx
 80008e6:	ebb6 0e02 	subs.w	lr, r6, r2
 80008ea:	eb75 0e03 	sbcs.w	lr, r5, r3
 80008ee:	bf22      	ittt	cs
 80008f0:	1ab6      	subcs	r6, r6, r2
 80008f2:	4675      	movcs	r5, lr
 80008f4:	ea40 005c 	orrcs.w	r0, r0, ip, lsr #1
 80008f8:	085b      	lsrs	r3, r3, #1
 80008fa:	ea4f 0232 	mov.w	r2, r2, rrx
 80008fe:	ebb6 0e02 	subs.w	lr, r6, r2
 8000902:	eb75 0e03 	sbcs.w	lr, r5, r3
 8000906:	bf22      	ittt	cs
 8000908:	1ab6      	subcs	r6, r6, r2
 800090a:	4675      	movcs	r5, lr
 800090c:	ea40 009c 	orrcs.w	r0, r0, ip, lsr #2
 8000910:	085b      	lsrs	r3, r3, #1
 8000912:	ea4f 0232 	mov.w	r2, r2, rrx
 8000916:	ebb6 0e02 	subs.w	lr, r6, r2
 800091a:	eb75 0e03 	sbcs.w	lr, r5, r3
 800091e:	bf22      	ittt	cs
 8000920:	1ab6      	subcs	r6, r6, r2
 8000922:	4675      	movcs	r5, lr
 8000924:	ea40 00dc 	orrcs.w	r0, r0, ip, lsr #3
 8000928:	ea55 0e06 	orrs.w	lr, r5, r6
 800092c:	d018      	beq.n	8000960 <__aeabi_ddiv+0x114>
 800092e:	ea4f 1505 	mov.w	r5, r5, lsl #4
 8000932:	ea45 7516 	orr.w	r5, r5, r6, lsr #28
 8000936:	ea4f 1606 	mov.w	r6, r6, lsl #4
 800093a:	ea4f 03c3 	mov.w	r3, r3, lsl #3
 800093e:	ea43 7352 	orr.w	r3, r3, r2, lsr #29
 8000942:	ea4f 02c2 	mov.w	r2, r2, lsl #3
 8000946:	ea5f 1c1c 	movs.w	ip, ip, lsr #4
 800094a:	d1c0      	bne.n	80008ce <__aeabi_ddiv+0x82>
 800094c:	f411 1f80 	tst.w	r1, #1048576	; 0x100000
 8000950:	d10b      	bne.n	800096a <__aeabi_ddiv+0x11e>
 8000952:	ea41 0100 	orr.w	r1, r1, r0
 8000956:	f04f 0000 	mov.w	r0, #0
 800095a:	f04f 4c00 	mov.w	ip, #2147483648	; 0x80000000
 800095e:	e7b6      	b.n	80008ce <__aeabi_ddiv+0x82>
 8000960:	f411 1f80 	tst.w	r1, #1048576	; 0x100000
 8000964:	bf04      	itt	eq
 8000966:	4301      	orreq	r1, r0
 8000968:	2000      	moveq	r0, #0
 800096a:	f1b4 0cfd 	subs.w	ip, r4, #253	; 0xfd
 800096e:	bf88      	it	hi
 8000970:	f5bc 6fe0 	cmphi.w	ip, #1792	; 0x700
 8000974:	f63f aeaf 	bhi.w	80006d6 <__aeabi_dmul+0xde>
 8000978:	ebb5 0c03 	subs.w	ip, r5, r3
 800097c:	bf04      	itt	eq
 800097e:	ebb6 0c02 	subseq.w	ip, r6, r2
 8000982:	ea5f 0c50 	movseq.w	ip, r0, lsr #1
 8000986:	f150 0000 	adcs.w	r0, r0, #0
 800098a:	eb41 5104 	adc.w	r1, r1, r4, lsl #20
 800098e:	bd70      	pop	{r4, r5, r6, pc}
 8000990:	f00e 4e00 	and.w	lr, lr, #2147483648	; 0x80000000
 8000994:	ea4e 3111 	orr.w	r1, lr, r1, lsr #12
 8000998:	eb14 045c 	adds.w	r4, r4, ip, lsr #1
 800099c:	bfc2      	ittt	gt
 800099e:	ebd4 050c 	rsbsgt	r5, r4, ip
 80009a2:	ea41 5104 	orrgt.w	r1, r1, r4, lsl #20
 80009a6:	bd70      	popgt	{r4, r5, r6, pc}
 80009a8:	f441 1180 	orr.w	r1, r1, #1048576	; 0x100000
 80009ac:	f04f 0e00 	mov.w	lr, #0
 80009b0:	3c01      	subs	r4, #1
 80009b2:	e690      	b.n	80006d6 <__aeabi_dmul+0xde>
 80009b4:	ea45 0e06 	orr.w	lr, r5, r6
 80009b8:	e68d      	b.n	80006d6 <__aeabi_dmul+0xde>
 80009ba:	ea0c 5513 	and.w	r5, ip, r3, lsr #20
 80009be:	ea94 0f0c 	teq	r4, ip
 80009c2:	bf08      	it	eq
 80009c4:	ea95 0f0c 	teqeq	r5, ip
 80009c8:	f43f af3b 	beq.w	8000842 <__aeabi_dmul+0x24a>
 80009cc:	ea94 0f0c 	teq	r4, ip
 80009d0:	d10a      	bne.n	80009e8 <__aeabi_ddiv+0x19c>
 80009d2:	ea50 3401 	orrs.w	r4, r0, r1, lsl #12
 80009d6:	f47f af34 	bne.w	8000842 <__aeabi_dmul+0x24a>
 80009da:	ea95 0f0c 	teq	r5, ip
 80009de:	f47f af25 	bne.w	800082c <__aeabi_dmul+0x234>
 80009e2:	4610      	mov	r0, r2
 80009e4:	4619      	mov	r1, r3
 80009e6:	e72c      	b.n	8000842 <__aeabi_dmul+0x24a>
 80009e8:	ea95 0f0c 	teq	r5, ip
 80009ec:	d106      	bne.n	80009fc <__aeabi_ddiv+0x1b0>
 80009ee:	ea52 3503 	orrs.w	r5, r2, r3, lsl #12
 80009f2:	f43f aefd 	beq.w	80007f0 <__aeabi_dmul+0x1f8>
 80009f6:	4610      	mov	r0, r2
 80009f8:	4619      	mov	r1, r3
 80009fa:	e722      	b.n	8000842 <__aeabi_dmul+0x24a>
 80009fc:	ea50 0641 	orrs.w	r6, r0, r1, lsl #1
 8000a00:	bf18      	it	ne
 8000a02:	ea52 0643 	orrsne.w	r6, r2, r3, lsl #1
 8000a06:	f47f aec5 	bne.w	8000794 <__aeabi_dmul+0x19c>
 8000a0a:	ea50 0441 	orrs.w	r4, r0, r1, lsl #1
 8000a0e:	f47f af0d 	bne.w	800082c <__aeabi_dmul+0x234>
 8000a12:	ea52 0543 	orrs.w	r5, r2, r3, lsl #1
 8000a16:	f47f aeeb 	bne.w	80007f0 <__aeabi_dmul+0x1f8>
 8000a1a:	e712      	b.n	8000842 <__aeabi_dmul+0x24a>

08000a1c <__gedf2>:
 8000a1c:	f04f 3cff 	mov.w	ip, #4294967295
 8000a20:	e006      	b.n	8000a30 <__cmpdf2+0x4>
 8000a22:	bf00      	nop

08000a24 <__ledf2>:
 8000a24:	f04f 0c01 	mov.w	ip, #1
 8000a28:	e002      	b.n	8000a30 <__cmpdf2+0x4>
 8000a2a:	bf00      	nop

08000a2c <__cmpdf2>:
 8000a2c:	f04f 0c01 	mov.w	ip, #1
 8000a30:	f84d cd04 	str.w	ip, [sp, #-4]!
 8000a34:	ea4f 0c41 	mov.w	ip, r1, lsl #1
 8000a38:	ea7f 5c6c 	mvns.w	ip, ip, asr #21
 8000a3c:	ea4f 0c43 	mov.w	ip, r3, lsl #1
 8000a40:	bf18      	it	ne
 8000a42:	ea7f 5c6c 	mvnsne.w	ip, ip, asr #21
 8000a46:	d01b      	beq.n	8000a80 <__cmpdf2+0x54>
 8000a48:	b001      	add	sp, #4
 8000a4a:	ea50 0c41 	orrs.w	ip, r0, r1, lsl #1
 8000a4e:	bf0c      	ite	eq
 8000a50:	ea52 0c43 	orrseq.w	ip, r2, r3, lsl #1
 8000a54:	ea91 0f03 	teqne	r1, r3
 8000a58:	bf02      	ittt	eq
 8000a5a:	ea90 0f02 	teqeq	r0, r2
 8000a5e:	2000      	moveq	r0, #0
 8000a60:	4770      	bxeq	lr
 8000a62:	f110 0f00 	cmn.w	r0, #0
 8000a66:	ea91 0f03 	teq	r1, r3
 8000a6a:	bf58      	it	pl
 8000a6c:	4299      	cmppl	r1, r3
 8000a6e:	bf08      	it	eq
 8000a70:	4290      	cmpeq	r0, r2
 8000a72:	bf2c      	ite	cs
 8000a74:	17d8      	asrcs	r0, r3, #31
 8000a76:	ea6f 70e3 	mvncc.w	r0, r3, asr #31
 8000a7a:	f040 0001 	orr.w	r0, r0, #1
 8000a7e:	4770      	bx	lr
 8000a80:	ea4f 0c41 	mov.w	ip, r1, lsl #1
 8000a84:	ea7f 5c6c 	mvns.w	ip, ip, asr #21
 8000a88:	d102      	bne.n	8000a90 <__cmpdf2+0x64>
 8000a8a:	ea50 3c01 	orrs.w	ip, r0, r1, lsl #12
 8000a8e:	d107      	bne.n	8000aa0 <__cmpdf2+0x74>
 8000a90:	ea4f 0c43 	mov.w	ip, r3, lsl #1
 8000a94:	ea7f 5c6c 	mvns.w	ip, ip, asr #21
 8000a98:	d1d6      	bne.n	8000a48 <__cmpdf2+0x1c>
 8000a9a:	ea52 3c03 	orrs.w	ip, r2, r3, lsl #12
 8000a9e:	d0d3      	beq.n	8000a48 <__cmpdf2+0x1c>
 8000aa0:	f85d 0b04 	ldr.w	r0, [sp], #4
 8000aa4:	4770      	bx	lr
 8000aa6:	bf00      	nop

08000aa8 <__aeabi_cdrcmple>:
 8000aa8:	4684      	mov	ip, r0
 8000aaa:	4610      	mov	r0, r2
 8000aac:	4662      	mov	r2, ip
 8000aae:	468c      	mov	ip, r1
 8000ab0:	4619      	mov	r1, r3
 8000ab2:	4663      	mov	r3, ip
 8000ab4:	e000      	b.n	8000ab8 <__aeabi_cdcmpeq>
 8000ab6:	bf00      	nop

08000ab8 <__aeabi_cdcmpeq>:
 8000ab8:	b501      	push	{r0, lr}
 8000aba:	f7ff ffb7 	bl	8000a2c <__cmpdf2>
 8000abe:	2800      	cmp	r0, #0
 8000ac0:	bf48      	it	mi
 8000ac2:	f110 0f00 	cmnmi.w	r0, #0
 8000ac6:	bd01      	pop	{r0, pc}

08000ac8 <__aeabi_dcmpeq>:
 8000ac8:	f84d ed08 	str.w	lr, [sp, #-8]!
 8000acc:	f7ff fff4 	bl	8000ab8 <__aeabi_cdcmpeq>
 8000ad0:	bf0c      	ite	eq
 8000ad2:	2001      	moveq	r0, #1
 8000ad4:	2000      	movne	r0, #0
 8000ad6:	f85d fb08 	ldr.w	pc, [sp], #8
 8000ada:	bf00      	nop

08000adc <__aeabi_dcmplt>:
 8000adc:	f84d ed08 	str.w	lr, [sp, #-8]!
 8000ae0:	f7ff ffea 	bl	8000ab8 <__aeabi_cdcmpeq>
 8000ae4:	bf34      	ite	cc
 8000ae6:	2001      	movcc	r0, #1
 8000ae8:	2000      	movcs	r0, #0
 8000aea:	f85d fb08 	ldr.w	pc, [sp], #8
 8000aee:	bf00      	nop

08000af0 <__aeabi_dcmple>:
 8000af0:	f84d ed08 	str.w	lr, [sp, #-8]!
 8000af4:	f7ff ffe0 	bl	8000ab8 <__aeabi_cdcmpeq>
 8000af8:	bf94      	ite	ls
 8000afa:	2001      	movls	r0, #1
 8000afc:	2000      	movhi	r0, #0
 8000afe:	f85d fb08 	ldr.w	pc, [sp], #8
 8000b02:	bf00      	nop

08000b04 <__aeabi_dcmpge>:
 8000b04:	f84d ed08 	str.w	lr, [sp, #-8]!
 8000b08:	f7ff ffce 	bl	8000aa8 <__aeabi_cdrcmple>
 8000b0c:	bf94      	ite	ls
 8000b0e:	2001      	movls	r0, #1
 8000b10:	2000      	movhi	r0, #0
 8000b12:	f85d fb08 	ldr.w	pc, [sp], #8
 8000b16:	bf00      	nop

08000b18 <__aeabi_dcmpgt>:
 8000b18:	f84d ed08 	str.w	lr, [sp, #-8]!
 8000b1c:	f7ff ffc4 	bl	8000aa8 <__aeabi_cdrcmple>
 8000b20:	bf34      	ite	cc
 8000b22:	2001      	movcc	r0, #1
 8000b24:	2000      	movcs	r0, #0
 8000b26:	f85d fb08 	ldr.w	pc, [sp], #8
 8000b2a:	bf00      	nop

08000b2c <__aeabi_dcmpun>:
 8000b2c:	ea4f 0c41 	mov.w	ip, r1, lsl #1
 8000b30:	ea7f 5c6c 	mvns.w	ip, ip, asr #21
 8000b34:	d102      	bne.n	8000b3c <__aeabi_dcmpun+0x10>
 8000b36:	ea50 3c01 	orrs.w	ip, r0, r1, lsl #12
 8000b3a:	d10a      	bne.n	8000b52 <__aeabi_dcmpun+0x26>
 8000b3c:	ea4f 0c43 	mov.w	ip, r3, lsl #1
 8000b40:	ea7f 5c6c 	mvns.w	ip, ip, asr #21
 8000b44:	d102      	bne.n	8000b4c <__aeabi_dcmpun+0x20>
 8000b46:	ea52 3c03 	orrs.w	ip, r2, r3, lsl #12
 8000b4a:	d102      	bne.n	8000b52 <__aeabi_dcmpun+0x26>
 8000b4c:	f04f 0000 	mov.w	r0, #0
 8000b50:	4770      	bx	lr
 8000b52:	f04f 0001 	mov.w	r0, #1
 8000b56:	4770      	bx	lr

08000b58 <__aeabi_d2iz>:
 8000b58:	ea4f 0241 	mov.w	r2, r1, lsl #1
 8000b5c:	f512 1200 	adds.w	r2, r2, #2097152	; 0x200000
 8000b60:	d215      	bcs.n	8000b8e <__aeabi_d2iz+0x36>
 8000b62:	d511      	bpl.n	8000b88 <__aeabi_d2iz+0x30>
 8000b64:	f46f 7378 	mvn.w	r3, #992	; 0x3e0
 8000b68:	ebb3 5262 	subs.w	r2, r3, r2, asr #21
 8000b6c:	d912      	bls.n	8000b94 <__aeabi_d2iz+0x3c>
 8000b6e:	ea4f 23c1 	mov.w	r3, r1, lsl #11
 8000b72:	f043 4300 	orr.w	r3, r3, #2147483648	; 0x80000000
 8000b76:	ea43 5350 	orr.w	r3, r3, r0, lsr #21
 8000b7a:	f011 4f00 	tst.w	r1, #2147483648	; 0x80000000
 8000b7e:	fa23 f002 	lsr.w	r0, r3, r2
 8000b82:	bf18      	it	ne
 8000b84:	4240      	negne	r0, r0
 8000b86:	4770      	bx	lr
 8000b88:	f04f 0000 	mov.w	r0, #0
 8000b8c:	4770      	bx	lr
 8000b8e:	ea50 3001 	orrs.w	r0, r0, r1, lsl #12
 8000b92:	d105      	bne.n	8000ba0 <__aeabi_d2iz+0x48>
 8000b94:	f011 4000 	ands.w	r0, r1, #2147483648	; 0x80000000
 8000b98:	bf08      	it	eq
 8000b9a:	f06f 4000 	mvneq.w	r0, #2147483648	; 0x80000000
 8000b9e:	4770      	bx	lr
 8000ba0:	f04f 0000 	mov.w	r0, #0
 8000ba4:	4770      	bx	lr
 8000ba6:	bf00      	nop

08000ba8 <LL_GPIO_SetPinMode>:
  *         @arg @ref LL_GPIO_MODE_ALTERNATE
  *         @arg @ref LL_GPIO_MODE_ANALOG
  * @retval None
  */
__STATIC_INLINE void LL_GPIO_SetPinMode(GPIO_TypeDef *GPIOx, uint32_t Pin, uint32_t Mode)
{
 8000ba8:	b480      	push	{r7}
 8000baa:	b089      	sub	sp, #36	; 0x24
 8000bac:	af00      	add	r7, sp, #0
 8000bae:	60f8      	str	r0, [r7, #12]
 8000bb0:	60b9      	str	r1, [r7, #8]
 8000bb2:	607a      	str	r2, [r7, #4]
  MODIFY_REG(GPIOx->MODER, (GPIO_MODER_MODER0 << (POSITION_VAL(Pin) * 2U)), (Mode << (POSITION_VAL(Pin) * 2U)));
 8000bb4:	68fb      	ldr	r3, [r7, #12]
 8000bb6:	681a      	ldr	r2, [r3, #0]
 8000bb8:	68bb      	ldr	r3, [r7, #8]
 8000bba:	617b      	str	r3, [r7, #20]
__attribute__((always_inline)) __STATIC_INLINE uint32_t __RBIT(uint32_t value)
{
  uint32_t result;

#if       (__CORTEX_M >= 0x03U) || (__CORTEX_SC >= 300U)
   __ASM volatile ("rbit %0, %1" : "=r" (result) : "r" (value) );
 8000bbc:	697b      	ldr	r3, [r7, #20]
 8000bbe:	fa93 f3a3 	rbit	r3, r3
 8000bc2:	613b      	str	r3, [r7, #16]
    result |= value & 1U;
    s--;
  }
  result <<= s;                        /* shift when v's highest bits are zero */
#endif
  return(result);
 8000bc4:	693b      	ldr	r3, [r7, #16]
 8000bc6:	fab3 f383 	clz	r3, r3
 8000bca:	005b      	lsls	r3, r3, #1
 8000bcc:	2103      	movs	r1, #3
 8000bce:	fa01 f303 	lsl.w	r3, r1, r3
 8000bd2:	43db      	mvns	r3, r3
 8000bd4:	401a      	ands	r2, r3
 8000bd6:	68bb      	ldr	r3, [r7, #8]
 8000bd8:	61fb      	str	r3, [r7, #28]
   __ASM volatile ("rbit %0, %1" : "=r" (result) : "r" (value) );
 8000bda:	69fb      	ldr	r3, [r7, #28]
 8000bdc:	fa93 f3a3 	rbit	r3, r3
 8000be0:	61bb      	str	r3, [r7, #24]
  return(result);
 8000be2:	69bb      	ldr	r3, [r7, #24]
 8000be4:	fab3 f383 	clz	r3, r3
 8000be8:	005b      	lsls	r3, r3, #1
 8000bea:	6879      	ldr	r1, [r7, #4]
 8000bec:	fa01 f303 	lsl.w	r3, r1, r3
 8000bf0:	431a      	orrs	r2, r3
 8000bf2:	68fb      	ldr	r3, [r7, #12]
 8000bf4:	601a      	str	r2, [r3, #0]
}
 8000bf6:	bf00      	nop
 8000bf8:	3724      	adds	r7, #36	; 0x24
 8000bfa:	46bd      	mov	sp, r7
 8000bfc:	f85d 7b04 	ldr.w	r7, [sp], #4
 8000c00:	4770      	bx	lr

08000c02 <LL_GPIO_SetPinOutputType>:
  *         @arg @ref LL_GPIO_OUTPUT_PUSHPULL
  *         @arg @ref LL_GPIO_OUTPUT_OPENDRAIN
  * @retval None
  */
__STATIC_INLINE void LL_GPIO_SetPinOutputType(GPIO_TypeDef *GPIOx, uint32_t PinMask, uint32_t OutputType)
{
 8000c02:	b480      	push	{r7}
 8000c04:	b085      	sub	sp, #20
 8000c06:	af00      	add	r7, sp, #0
 8000c08:	60f8      	str	r0, [r7, #12]
 8000c0a:	60b9      	str	r1, [r7, #8]
 8000c0c:	607a      	str	r2, [r7, #4]
  MODIFY_REG(GPIOx->OTYPER, PinMask, (PinMask * OutputType));
 8000c0e:	68fb      	ldr	r3, [r7, #12]
 8000c10:	685a      	ldr	r2, [r3, #4]
 8000c12:	68bb      	ldr	r3, [r7, #8]
 8000c14:	43db      	mvns	r3, r3
 8000c16:	401a      	ands	r2, r3
 8000c18:	68bb      	ldr	r3, [r7, #8]
 8000c1a:	6879      	ldr	r1, [r7, #4]
 8000c1c:	fb01 f303 	mul.w	r3, r1, r3
 8000c20:	431a      	orrs	r2, r3
 8000c22:	68fb      	ldr	r3, [r7, #12]
 8000c24:	605a      	str	r2, [r3, #4]
}
 8000c26:	bf00      	nop
 8000c28:	3714      	adds	r7, #20
 8000c2a:	46bd      	mov	sp, r7
 8000c2c:	f85d 7b04 	ldr.w	r7, [sp], #4
 8000c30:	4770      	bx	lr

08000c32 <LL_GPIO_SetPinSpeed>:
  *         @arg @ref LL_GPIO_SPEED_FREQ_MEDIUM
  *         @arg @ref LL_GPIO_SPEED_FREQ_HIGH
  * @retval None
  */
__STATIC_INLINE void LL_GPIO_SetPinSpeed(GPIO_TypeDef *GPIOx, uint32_t Pin, uint32_t  Speed)
{
 8000c32:	b480      	push	{r7}
 8000c34:	b089      	sub	sp, #36	; 0x24
 8000c36:	af00      	add	r7, sp, #0
 8000c38:	60f8      	str	r0, [r7, #12]
 8000c3a:	60b9      	str	r1, [r7, #8]
 8000c3c:	607a      	str	r2, [r7, #4]
  MODIFY_REG(GPIOx->OSPEEDR, (GPIO_OSPEEDER_OSPEEDR0 << (POSITION_VAL(Pin) * 2U)),
 8000c3e:	68fb      	ldr	r3, [r7, #12]
 8000c40:	689a      	ldr	r2, [r3, #8]
 8000c42:	68bb      	ldr	r3, [r7, #8]
 8000c44:	617b      	str	r3, [r7, #20]
   __ASM volatile ("rbit %0, %1" : "=r" (result) : "r" (value) );
 8000c46:	697b      	ldr	r3, [r7, #20]
 8000c48:	fa93 f3a3 	rbit	r3, r3
 8000c4c:	613b      	str	r3, [r7, #16]
  return(result);
 8000c4e:	693b      	ldr	r3, [r7, #16]
 8000c50:	fab3 f383 	clz	r3, r3
 8000c54:	005b      	lsls	r3, r3, #1
 8000c56:	2103      	movs	r1, #3
 8000c58:	fa01 f303 	lsl.w	r3, r1, r3
 8000c5c:	43db      	mvns	r3, r3
 8000c5e:	401a      	ands	r2, r3
 8000c60:	68bb      	ldr	r3, [r7, #8]
 8000c62:	61fb      	str	r3, [r7, #28]
   __ASM volatile ("rbit %0, %1" : "=r" (result) : "r" (value) );
 8000c64:	69fb      	ldr	r3, [r7, #28]
 8000c66:	fa93 f3a3 	rbit	r3, r3
 8000c6a:	61bb      	str	r3, [r7, #24]
  return(result);
 8000c6c:	69bb      	ldr	r3, [r7, #24]
 8000c6e:	fab3 f383 	clz	r3, r3
 8000c72:	005b      	lsls	r3, r3, #1
 8000c74:	6879      	ldr	r1, [r7, #4]
 8000c76:	fa01 f303 	lsl.w	r3, r1, r3
 8000c7a:	431a      	orrs	r2, r3
 8000c7c:	68fb      	ldr	r3, [r7, #12]
 8000c7e:	609a      	str	r2, [r3, #8]
             (Speed << (POSITION_VAL(Pin) * 2U)));
}
 8000c80:	bf00      	nop
 8000c82:	3724      	adds	r7, #36	; 0x24
 8000c84:	46bd      	mov	sp, r7
 8000c86:	f85d 7b04 	ldr.w	r7, [sp], #4
 8000c8a:	4770      	bx	lr

08000c8c <LL_GPIO_SetPinPull>:
  *         @arg @ref LL_GPIO_PULL_UP
  *         @arg @ref LL_GPIO_PULL_DOWN
  * @retval None
  */
__STATIC_INLINE void LL_GPIO_SetPinPull(GPIO_TypeDef *GPIOx, uint32_t Pin, uint32_t Pull)
{
 8000c8c:	b480      	push	{r7}
 8000c8e:	b089      	sub	sp, #36	; 0x24
 8000c90:	af00      	add	r7, sp, #0
 8000c92:	60f8      	str	r0, [r7, #12]
 8000c94:	60b9      	str	r1, [r7, #8]
 8000c96:	607a      	str	r2, [r7, #4]
  MODIFY_REG(GPIOx->PUPDR, (GPIO_PUPDR_PUPDR0 << (POSITION_VAL(Pin) * 2U)), (Pull << (POSITION_VAL(Pin) * 2U)));
 8000c98:	68fb      	ldr	r3, [r7, #12]
 8000c9a:	68da      	ldr	r2, [r3, #12]
 8000c9c:	68bb      	ldr	r3, [r7, #8]
 8000c9e:	617b      	str	r3, [r7, #20]
   __ASM volatile ("rbit %0, %1" : "=r" (result) : "r" (value) );
 8000ca0:	697b      	ldr	r3, [r7, #20]
 8000ca2:	fa93 f3a3 	rbit	r3, r3
 8000ca6:	613b      	str	r3, [r7, #16]
  return(result);
 8000ca8:	693b      	ldr	r3, [r7, #16]
 8000caa:	fab3 f383 	clz	r3, r3
 8000cae:	005b      	lsls	r3, r3, #1
 8000cb0:	2103      	movs	r1, #3
 8000cb2:	fa01 f303 	lsl.w	r3, r1, r3
 8000cb6:	43db      	mvns	r3, r3
 8000cb8:	401a      	ands	r2, r3
 8000cba:	68bb      	ldr	r3, [r7, #8]
 8000cbc:	61fb      	str	r3, [r7, #28]
   __ASM volatile ("rbit %0, %1" : "=r" (result) : "r" (value) );
 8000cbe:	69fb      	ldr	r3, [r7, #28]
 8000cc0:	fa93 f3a3 	rbit	r3, r3
 8000cc4:	61bb      	str	r3, [r7, #24]
  return(result);
 8000cc6:	69bb      	ldr	r3, [r7, #24]
 8000cc8:	fab3 f383 	clz	r3, r3
 8000ccc:	005b      	lsls	r3, r3, #1
 8000cce:	6879      	ldr	r1, [r7, #4]
 8000cd0:	fa01 f303 	lsl.w	r3, r1, r3
 8000cd4:	431a      	orrs	r2, r3
 8000cd6:	68fb      	ldr	r3, [r7, #12]
 8000cd8:	60da      	str	r2, [r3, #12]
}
 8000cda:	bf00      	nop
 8000cdc:	3724      	adds	r7, #36	; 0x24
 8000cde:	46bd      	mov	sp, r7
 8000ce0:	f85d 7b04 	ldr.w	r7, [sp], #4
 8000ce4:	4770      	bx	lr

08000ce6 <LL_GPIO_SetAFPin_0_7>:
  *         @arg @ref LL_GPIO_AF_14
  *         @arg @ref LL_GPIO_AF_15
  * @retval None
  */
__STATIC_INLINE void LL_GPIO_SetAFPin_0_7(GPIO_TypeDef *GPIOx, uint32_t Pin, uint32_t Alternate)
{
 8000ce6:	b480      	push	{r7}
 8000ce8:	b089      	sub	sp, #36	; 0x24
 8000cea:	af00      	add	r7, sp, #0
 8000cec:	60f8      	str	r0, [r7, #12]
 8000cee:	60b9      	str	r1, [r7, #8]
 8000cf0:	607a      	str	r2, [r7, #4]
  MODIFY_REG(GPIOx->AFR[0], (GPIO_AFRL_AFRL0 << (POSITION_VAL(Pin) * 4U)),
 8000cf2:	68fb      	ldr	r3, [r7, #12]
 8000cf4:	6a1a      	ldr	r2, [r3, #32]
 8000cf6:	68bb      	ldr	r3, [r7, #8]
 8000cf8:	617b      	str	r3, [r7, #20]
   __ASM volatile ("rbit %0, %1" : "=r" (result) : "r" (value) );
 8000cfa:	697b      	ldr	r3, [r7, #20]
 8000cfc:	fa93 f3a3 	rbit	r3, r3
 8000d00:	613b      	str	r3, [r7, #16]
  return(result);
 8000d02:	693b      	ldr	r3, [r7, #16]
 8000d04:	fab3 f383 	clz	r3, r3
 8000d08:	009b      	lsls	r3, r3, #2
 8000d0a:	210f      	movs	r1, #15
 8000d0c:	fa01 f303 	lsl.w	r3, r1, r3
 8000d10:	43db      	mvns	r3, r3
 8000d12:	401a      	ands	r2, r3
 8000d14:	68bb      	ldr	r3, [r7, #8]
 8000d16:	61fb      	str	r3, [r7, #28]
   __ASM volatile ("rbit %0, %1" : "=r" (result) : "r" (value) );
 8000d18:	69fb      	ldr	r3, [r7, #28]
 8000d1a:	fa93 f3a3 	rbit	r3, r3
 8000d1e:	61bb      	str	r3, [r7, #24]
  return(result);
 8000d20:	69bb      	ldr	r3, [r7, #24]
 8000d22:	fab3 f383 	clz	r3, r3
 8000d26:	009b      	lsls	r3, r3, #2
 8000d28:	6879      	ldr	r1, [r7, #4]
 8000d2a:	fa01 f303 	lsl.w	r3, r1, r3
 8000d2e:	431a      	orrs	r2, r3
 8000d30:	68fb      	ldr	r3, [r7, #12]
 8000d32:	621a      	str	r2, [r3, #32]
             (Alternate << (POSITION_VAL(Pin) * 4U)));
}
 8000d34:	bf00      	nop
 8000d36:	3724      	adds	r7, #36	; 0x24
 8000d38:	46bd      	mov	sp, r7
 8000d3a:	f85d 7b04 	ldr.w	r7, [sp], #4
 8000d3e:	4770      	bx	lr

08000d40 <LL_GPIO_SetAFPin_8_15>:
  *         @arg @ref LL_GPIO_AF_14
  *         @arg @ref LL_GPIO_AF_15
  * @retval None
  */
__STATIC_INLINE void LL_GPIO_SetAFPin_8_15(GPIO_TypeDef *GPIOx, uint32_t Pin, uint32_t Alternate)
{
 8000d40:	b480      	push	{r7}
 8000d42:	b089      	sub	sp, #36	; 0x24
 8000d44:	af00      	add	r7, sp, #0
 8000d46:	60f8      	str	r0, [r7, #12]
 8000d48:	60b9      	str	r1, [r7, #8]
 8000d4a:	607a      	str	r2, [r7, #4]
  MODIFY_REG(GPIOx->AFR[1], (GPIO_AFRH_AFRH0 << (POSITION_VAL(Pin >> 8U) * 4U)),
 8000d4c:	68fb      	ldr	r3, [r7, #12]
 8000d4e:	6a5a      	ldr	r2, [r3, #36]	; 0x24
 8000d50:	68bb      	ldr	r3, [r7, #8]
 8000d52:	0a1b      	lsrs	r3, r3, #8
 8000d54:	617b      	str	r3, [r7, #20]
   __ASM volatile ("rbit %0, %1" : "=r" (result) : "r" (value) );
 8000d56:	697b      	ldr	r3, [r7, #20]
 8000d58:	fa93 f3a3 	rbit	r3, r3
 8000d5c:	613b      	str	r3, [r7, #16]
  return(result);
 8000d5e:	693b      	ldr	r3, [r7, #16]
 8000d60:	fab3 f383 	clz	r3, r3
 8000d64:	009b      	lsls	r3, r3, #2
 8000d66:	210f      	movs	r1, #15
 8000d68:	fa01 f303 	lsl.w	r3, r1, r3
 8000d6c:	43db      	mvns	r3, r3
 8000d6e:	401a      	ands	r2, r3
 8000d70:	68bb      	ldr	r3, [r7, #8]
 8000d72:	0a1b      	lsrs	r3, r3, #8
 8000d74:	61fb      	str	r3, [r7, #28]
   __ASM volatile ("rbit %0, %1" : "=r" (result) : "r" (value) );
 8000d76:	69fb      	ldr	r3, [r7, #28]
 8000d78:	fa93 f3a3 	rbit	r3, r3
 8000d7c:	61bb      	str	r3, [r7, #24]
  return(result);
 8000d7e:	69bb      	ldr	r3, [r7, #24]
 8000d80:	fab3 f383 	clz	r3, r3
 8000d84:	009b      	lsls	r3, r3, #2
 8000d86:	6879      	ldr	r1, [r7, #4]
 8000d88:	fa01 f303 	lsl.w	r3, r1, r3
 8000d8c:	431a      	orrs	r2, r3
 8000d8e:	68fb      	ldr	r3, [r7, #12]
 8000d90:	625a      	str	r2, [r3, #36]	; 0x24
             (Alternate << (POSITION_VAL(Pin >> 8U) * 4U)));
}
 8000d92:	bf00      	nop
 8000d94:	3724      	adds	r7, #36	; 0x24
 8000d96:	46bd      	mov	sp, r7
 8000d98:	f85d 7b04 	ldr.w	r7, [sp], #4
 8000d9c:	4770      	bx	lr

08000d9e <LL_GPIO_Init>:
  * @retval An ErrorStatus enumeration value:
  *          - SUCCESS: GPIO registers are initialized according to GPIO_InitStruct content
  *          - ERROR:   Not applicable
  */
ErrorStatus LL_GPIO_Init(GPIO_TypeDef *GPIOx, LL_GPIO_InitTypeDef *GPIO_InitStruct)
{
 8000d9e:	b580      	push	{r7, lr}
 8000da0:	b088      	sub	sp, #32
 8000da2:	af00      	add	r7, sp, #0
 8000da4:	6078      	str	r0, [r7, #4]
 8000da6:	6039      	str	r1, [r7, #0]
  uint32_t pinpos     = 0x00000000U;
 8000da8:	2300      	movs	r3, #0
 8000daa:	61fb      	str	r3, [r7, #28]
  uint32_t currentpin = 0x00000000U;
 8000dac:	2300      	movs	r3, #0
 8000dae:	61bb      	str	r3, [r7, #24]
  assert_param(IS_LL_GPIO_MODE(GPIO_InitStruct->Mode));
  assert_param(IS_LL_GPIO_PULL(GPIO_InitStruct->Pull));

  /* ------------------------- Configure the port pins ---------------- */
  /* Initialize  pinpos on first pin set */
  pinpos = POSITION_VAL(GPIO_InitStruct->Pin);
 8000db0:	683b      	ldr	r3, [r7, #0]
 8000db2:	681b      	ldr	r3, [r3, #0]
 8000db4:	617b      	str	r3, [r7, #20]
   __ASM volatile ("rbit %0, %1" : "=r" (result) : "r" (value) );
 8000db6:	697b      	ldr	r3, [r7, #20]
 8000db8:	fa93 f3a3 	rbit	r3, r3
 8000dbc:	613b      	str	r3, [r7, #16]
  return(result);
 8000dbe:	693b      	ldr	r3, [r7, #16]
 8000dc0:	fab3 f383 	clz	r3, r3
 8000dc4:	61fb      	str	r3, [r7, #28]

  /* Configure the port pins */
  while (((GPIO_InitStruct->Pin) >> pinpos) != 0x00000000U)
 8000dc6:	e048      	b.n	8000e5a <LL_GPIO_Init+0xbc>
  {
    /* Get current io position */
    currentpin = (GPIO_InitStruct->Pin) & (0x00000001U << pinpos);
 8000dc8:	683b      	ldr	r3, [r7, #0]
 8000dca:	681a      	ldr	r2, [r3, #0]
 8000dcc:	2101      	movs	r1, #1
 8000dce:	69fb      	ldr	r3, [r7, #28]
 8000dd0:	fa01 f303 	lsl.w	r3, r1, r3
 8000dd4:	4013      	ands	r3, r2
 8000dd6:	61bb      	str	r3, [r7, #24]

    if (currentpin)
 8000dd8:	69bb      	ldr	r3, [r7, #24]
 8000dda:	2b00      	cmp	r3, #0
 8000ddc:	d03a      	beq.n	8000e54 <LL_GPIO_Init+0xb6>
    {
      /* Pin Mode configuration */
      LL_GPIO_SetPinMode(GPIOx, currentpin, GPIO_InitStruct->Mode);
 8000dde:	683b      	ldr	r3, [r7, #0]
 8000de0:	685b      	ldr	r3, [r3, #4]
 8000de2:	461a      	mov	r2, r3
 8000de4:	69b9      	ldr	r1, [r7, #24]
 8000de6:	6878      	ldr	r0, [r7, #4]
 8000de8:	f7ff fede 	bl	8000ba8 <LL_GPIO_SetPinMode>

      if ((GPIO_InitStruct->Mode == LL_GPIO_MODE_OUTPUT) || (GPIO_InitStruct->Mode == LL_GPIO_MODE_ALTERNATE))
 8000dec:	683b      	ldr	r3, [r7, #0]
 8000dee:	685b      	ldr	r3, [r3, #4]
 8000df0:	2b01      	cmp	r3, #1
 8000df2:	d003      	beq.n	8000dfc <LL_GPIO_Init+0x5e>
 8000df4:	683b      	ldr	r3, [r7, #0]
 8000df6:	685b      	ldr	r3, [r3, #4]
 8000df8:	2b02      	cmp	r3, #2
 8000dfa:	d106      	bne.n	8000e0a <LL_GPIO_Init+0x6c>
      {
        /* Check Speed mode parameters */
        assert_param(IS_LL_GPIO_SPEED(GPIO_InitStruct->Speed));

        /* Speed mode configuration */
        LL_GPIO_SetPinSpeed(GPIOx, currentpin, GPIO_InitStruct->Speed);
 8000dfc:	683b      	ldr	r3, [r7, #0]
 8000dfe:	689b      	ldr	r3, [r3, #8]
 8000e00:	461a      	mov	r2, r3
 8000e02:	69b9      	ldr	r1, [r7, #24]
 8000e04:	6878      	ldr	r0, [r7, #4]
 8000e06:	f7ff ff14 	bl	8000c32 <LL_GPIO_SetPinSpeed>
      }

      /* Pull-up Pull down resistor configuration*/
      LL_GPIO_SetPinPull(GPIOx, currentpin, GPIO_InitStruct->Pull);
 8000e0a:	683b      	ldr	r3, [r7, #0]
 8000e0c:	691b      	ldr	r3, [r3, #16]
 8000e0e:	461a      	mov	r2, r3
 8000e10:	69b9      	ldr	r1, [r7, #24]
 8000e12:	6878      	ldr	r0, [r7, #4]
 8000e14:	f7ff ff3a 	bl	8000c8c <LL_GPIO_SetPinPull>

      if (GPIO_InitStruct->Mode == LL_GPIO_MODE_ALTERNATE)
 8000e18:	683b      	ldr	r3, [r7, #0]
 8000e1a:	685b      	ldr	r3, [r3, #4]
 8000e1c:	2b02      	cmp	r3, #2
 8000e1e:	d119      	bne.n	8000e54 <LL_GPIO_Init+0xb6>
 8000e20:	69bb      	ldr	r3, [r7, #24]
 8000e22:	60fb      	str	r3, [r7, #12]
   __ASM volatile ("rbit %0, %1" : "=r" (result) : "r" (value) );
 8000e24:	68fb      	ldr	r3, [r7, #12]
 8000e26:	fa93 f3a3 	rbit	r3, r3
 8000e2a:	60bb      	str	r3, [r7, #8]
  return(result);
 8000e2c:	68bb      	ldr	r3, [r7, #8]
      {
        /* Check Alternate parameter */
        assert_param(IS_LL_GPIO_ALTERNATE(GPIO_InitStruct->Alternate));

        /* Speed mode configuration */
        if (POSITION_VAL(currentpin) < 0x00000008U)
 8000e2e:	fab3 f383 	clz	r3, r3
 8000e32:	2b07      	cmp	r3, #7
 8000e34:	d807      	bhi.n	8000e46 <LL_GPIO_Init+0xa8>
        {
          LL_GPIO_SetAFPin_0_7(GPIOx, currentpin, GPIO_InitStruct->Alternate);
 8000e36:	683b      	ldr	r3, [r7, #0]
 8000e38:	695b      	ldr	r3, [r3, #20]
 8000e3a:	461a      	mov	r2, r3
 8000e3c:	69b9      	ldr	r1, [r7, #24]
 8000e3e:	6878      	ldr	r0, [r7, #4]
 8000e40:	f7ff ff51 	bl	8000ce6 <LL_GPIO_SetAFPin_0_7>
 8000e44:	e006      	b.n	8000e54 <LL_GPIO_Init+0xb6>
        }
        else
        {
          LL_GPIO_SetAFPin_8_15(GPIOx, currentpin, GPIO_InitStruct->Alternate);
 8000e46:	683b      	ldr	r3, [r7, #0]
 8000e48:	695b      	ldr	r3, [r3, #20]
 8000e4a:	461a      	mov	r2, r3
 8000e4c:	69b9      	ldr	r1, [r7, #24]
 8000e4e:	6878      	ldr	r0, [r7, #4]
 8000e50:	f7ff ff76 	bl	8000d40 <LL_GPIO_SetAFPin_8_15>
        }
      }
    }
    pinpos++;
 8000e54:	69fb      	ldr	r3, [r7, #28]
 8000e56:	3301      	adds	r3, #1
 8000e58:	61fb      	str	r3, [r7, #28]
  while (((GPIO_InitStruct->Pin) >> pinpos) != 0x00000000U)
 8000e5a:	683b      	ldr	r3, [r7, #0]
 8000e5c:	681a      	ldr	r2, [r3, #0]
 8000e5e:	69fb      	ldr	r3, [r7, #28]
 8000e60:	fa22 f303 	lsr.w	r3, r2, r3
 8000e64:	2b00      	cmp	r3, #0
 8000e66:	d1af      	bne.n	8000dc8 <LL_GPIO_Init+0x2a>
  }

  if ((GPIO_InitStruct->Mode == LL_GPIO_MODE_OUTPUT) || (GPIO_InitStruct->Mode == LL_GPIO_MODE_ALTERNATE))
 8000e68:	683b      	ldr	r3, [r7, #0]
 8000e6a:	685b      	ldr	r3, [r3, #4]
 8000e6c:	2b01      	cmp	r3, #1
 8000e6e:	d003      	beq.n	8000e78 <LL_GPIO_Init+0xda>
 8000e70:	683b      	ldr	r3, [r7, #0]
 8000e72:	685b      	ldr	r3, [r3, #4]
 8000e74:	2b02      	cmp	r3, #2
 8000e76:	d107      	bne.n	8000e88 <LL_GPIO_Init+0xea>
  {
    /* Check Output mode parameters */
    assert_param(IS_LL_GPIO_OUTPUT_TYPE(GPIO_InitStruct->OutputType));

    /* Output mode configuration*/
    LL_GPIO_SetPinOutputType(GPIOx, GPIO_InitStruct->Pin, GPIO_InitStruct->OutputType);
 8000e78:	683b      	ldr	r3, [r7, #0]
 8000e7a:	6819      	ldr	r1, [r3, #0]
 8000e7c:	683b      	ldr	r3, [r7, #0]
 8000e7e:	68db      	ldr	r3, [r3, #12]
 8000e80:	461a      	mov	r2, r3
 8000e82:	6878      	ldr	r0, [r7, #4]
 8000e84:	f7ff febd 	bl	8000c02 <LL_GPIO_SetPinOutputType>

  }
  return (SUCCESS);
 8000e88:	2300      	movs	r3, #0
}
 8000e8a:	4618      	mov	r0, r3
 8000e8c:	3720      	adds	r7, #32
 8000e8e:	46bd      	mov	sp, r7
 8000e90:	bd80      	pop	{r7, pc}
	...

08000e94 <LL_RCC_HSI_IsReady>:
  * @brief  Check if HSI clock is ready
  * @rmtoll CR           HSIRDY        LL_RCC_HSI_IsReady
  * @retval State of bit (1 or 0).
  */
__STATIC_INLINE uint32_t LL_RCC_HSI_IsReady(void)
{
 8000e94:	b480      	push	{r7}
 8000e96:	af00      	add	r7, sp, #0
  return (READ_BIT(RCC->CR, RCC_CR_HSIRDY) == (RCC_CR_HSIRDY));
 8000e98:	4b06      	ldr	r3, [pc, #24]	; (8000eb4 <LL_RCC_HSI_IsReady+0x20>)
 8000e9a:	681b      	ldr	r3, [r3, #0]
 8000e9c:	f003 0302 	and.w	r3, r3, #2
 8000ea0:	2b02      	cmp	r3, #2
 8000ea2:	bf0c      	ite	eq
 8000ea4:	2301      	moveq	r3, #1
 8000ea6:	2300      	movne	r3, #0
 8000ea8:	b2db      	uxtb	r3, r3
}
 8000eaa:	4618      	mov	r0, r3
 8000eac:	46bd      	mov	sp, r7
 8000eae:	f85d 7b04 	ldr.w	r7, [sp], #4
 8000eb2:	4770      	bx	lr
 8000eb4:	40021000 	.word	0x40021000

08000eb8 <LL_RCC_LSE_IsReady>:
  * @brief  Check if LSE oscillator Ready
  * @rmtoll BDCR         LSERDY        LL_RCC_LSE_IsReady
  * @retval State of bit (1 or 0).
  */
__STATIC_INLINE uint32_t LL_RCC_LSE_IsReady(void)
{
 8000eb8:	b480      	push	{r7}
 8000eba:	af00      	add	r7, sp, #0
  return (READ_BIT(RCC->BDCR, RCC_BDCR_LSERDY) == (RCC_BDCR_LSERDY));
 8000ebc:	4b06      	ldr	r3, [pc, #24]	; (8000ed8 <LL_RCC_LSE_IsReady+0x20>)
 8000ebe:	6a1b      	ldr	r3, [r3, #32]
 8000ec0:	f003 0302 	and.w	r3, r3, #2
 8000ec4:	2b02      	cmp	r3, #2
 8000ec6:	bf0c      	ite	eq
 8000ec8:	2301      	moveq	r3, #1
 8000eca:	2300      	movne	r3, #0
 8000ecc:	b2db      	uxtb	r3, r3
}
 8000ece:	4618      	mov	r0, r3
 8000ed0:	46bd      	mov	sp, r7
 8000ed2:	f85d 7b04 	ldr.w	r7, [sp], #4
 8000ed6:	4770      	bx	lr
 8000ed8:	40021000 	.word	0x40021000

08000edc <LL_RCC_GetSysClkSource>:
  *         @arg @ref LL_RCC_SYS_CLKSOURCE_STATUS_HSI
  *         @arg @ref LL_RCC_SYS_CLKSOURCE_STATUS_HSE
  *         @arg @ref LL_RCC_SYS_CLKSOURCE_STATUS_PLL
  */
__STATIC_INLINE uint32_t LL_RCC_GetSysClkSource(void)
{
 8000edc:	b480      	push	{r7}
 8000ede:	af00      	add	r7, sp, #0
  return (uint32_t)(READ_BIT(RCC->CFGR, RCC_CFGR_SWS));
 8000ee0:	4b04      	ldr	r3, [pc, #16]	; (8000ef4 <LL_RCC_GetSysClkSource+0x18>)
 8000ee2:	685b      	ldr	r3, [r3, #4]
 8000ee4:	f003 030c 	and.w	r3, r3, #12
}
 8000ee8:	4618      	mov	r0, r3
 8000eea:	46bd      	mov	sp, r7
 8000eec:	f85d 7b04 	ldr.w	r7, [sp], #4
 8000ef0:	4770      	bx	lr
 8000ef2:	bf00      	nop
 8000ef4:	40021000 	.word	0x40021000

08000ef8 <LL_RCC_GetAHBPrescaler>:
  *         @arg @ref LL_RCC_SYSCLK_DIV_128
  *         @arg @ref LL_RCC_SYSCLK_DIV_256
  *         @arg @ref LL_RCC_SYSCLK_DIV_512
  */
__STATIC_INLINE uint32_t LL_RCC_GetAHBPrescaler(void)
{
 8000ef8:	b480      	push	{r7}
 8000efa:	af00      	add	r7, sp, #0
  return (uint32_t)(READ_BIT(RCC->CFGR, RCC_CFGR_HPRE));
 8000efc:	4b04      	ldr	r3, [pc, #16]	; (8000f10 <LL_RCC_GetAHBPrescaler+0x18>)
 8000efe:	685b      	ldr	r3, [r3, #4]
 8000f00:	f003 03f0 	and.w	r3, r3, #240	; 0xf0
}
 8000f04:	4618      	mov	r0, r3
 8000f06:	46bd      	mov	sp, r7
 8000f08:	f85d 7b04 	ldr.w	r7, [sp], #4
 8000f0c:	4770      	bx	lr
 8000f0e:	bf00      	nop
 8000f10:	40021000 	.word	0x40021000

08000f14 <LL_RCC_GetAPB1Prescaler>:
  *         @arg @ref LL_RCC_APB1_DIV_4
  *         @arg @ref LL_RCC_APB1_DIV_8
  *         @arg @ref LL_RCC_APB1_DIV_16
  */
__STATIC_INLINE uint32_t LL_RCC_GetAPB1Prescaler(void)
{
 8000f14:	b480      	push	{r7}
 8000f16:	af00      	add	r7, sp, #0
  return (uint32_t)(READ_BIT(RCC->CFGR, RCC_CFGR_PPRE1));
 8000f18:	4b04      	ldr	r3, [pc, #16]	; (8000f2c <LL_RCC_GetAPB1Prescaler+0x18>)
 8000f1a:	685b      	ldr	r3, [r3, #4]
 8000f1c:	f403 63e0 	and.w	r3, r3, #1792	; 0x700
}
 8000f20:	4618      	mov	r0, r3
 8000f22:	46bd      	mov	sp, r7
 8000f24:	f85d 7b04 	ldr.w	r7, [sp], #4
 8000f28:	4770      	bx	lr
 8000f2a:	bf00      	nop
 8000f2c:	40021000 	.word	0x40021000

08000f30 <LL_RCC_GetAPB2Prescaler>:
  *         @arg @ref LL_RCC_APB2_DIV_4
  *         @arg @ref LL_RCC_APB2_DIV_8
  *         @arg @ref LL_RCC_APB2_DIV_16
  */
__STATIC_INLINE uint32_t LL_RCC_GetAPB2Prescaler(void)
{
 8000f30:	b480      	push	{r7}
 8000f32:	af00      	add	r7, sp, #0
  return (uint32_t)(READ_BIT(RCC->CFGR, RCC_CFGR_PPRE2));
 8000f34:	4b04      	ldr	r3, [pc, #16]	; (8000f48 <LL_RCC_GetAPB2Prescaler+0x18>)
 8000f36:	685b      	ldr	r3, [r3, #4]
 8000f38:	f403 5360 	and.w	r3, r3, #14336	; 0x3800
}
 8000f3c:	4618      	mov	r0, r3
 8000f3e:	46bd      	mov	sp, r7
 8000f40:	f85d 7b04 	ldr.w	r7, [sp], #4
 8000f44:	4770      	bx	lr
 8000f46:	bf00      	nop
 8000f48:	40021000 	.word	0x40021000

08000f4c <LL_RCC_GetUSARTClockSource>:
  *         @arg @ref LL_RCC_USART3_CLKSOURCE_HSI (*)
  *
  *         (*) value not defined in all devices.
  */
__STATIC_INLINE uint32_t LL_RCC_GetUSARTClockSource(uint32_t USARTx)
{
 8000f4c:	b480      	push	{r7}
 8000f4e:	b083      	sub	sp, #12
 8000f50:	af00      	add	r7, sp, #0
 8000f52:	6078      	str	r0, [r7, #4]
  return (uint32_t)(READ_BIT(RCC->CFGR3, (RCC_CFGR3_USART1SW << USARTx)) | (USARTx << 24U));
 8000f54:	4b07      	ldr	r3, [pc, #28]	; (8000f74 <LL_RCC_GetUSARTClockSource+0x28>)
 8000f56:	6b1a      	ldr	r2, [r3, #48]	; 0x30
 8000f58:	2103      	movs	r1, #3
 8000f5a:	687b      	ldr	r3, [r7, #4]
 8000f5c:	fa01 f303 	lsl.w	r3, r1, r3
 8000f60:	401a      	ands	r2, r3
 8000f62:	687b      	ldr	r3, [r7, #4]
 8000f64:	061b      	lsls	r3, r3, #24
 8000f66:	4313      	orrs	r3, r2
}
 8000f68:	4618      	mov	r0, r3
 8000f6a:	370c      	adds	r7, #12
 8000f6c:	46bd      	mov	sp, r7
 8000f6e:	f85d 7b04 	ldr.w	r7, [sp], #4
 8000f72:	4770      	bx	lr
 8000f74:	40021000 	.word	0x40021000

08000f78 <LL_RCC_PLL_GetMainSource>:
  *         @arg @ref LL_RCC_PLLSOURCE_HSE
  *
  *         (*) value not defined in all devices
  */
__STATIC_INLINE uint32_t LL_RCC_PLL_GetMainSource(void)
{
 8000f78:	b480      	push	{r7}
 8000f7a:	af00      	add	r7, sp, #0
  return (uint32_t)(READ_BIT(RCC->CFGR, RCC_CFGR_PLLSRC));
 8000f7c:	4b04      	ldr	r3, [pc, #16]	; (8000f90 <LL_RCC_PLL_GetMainSource+0x18>)
 8000f7e:	685b      	ldr	r3, [r3, #4]
 8000f80:	f403 3380 	and.w	r3, r3, #65536	; 0x10000
}
 8000f84:	4618      	mov	r0, r3
 8000f86:	46bd      	mov	sp, r7
 8000f88:	f85d 7b04 	ldr.w	r7, [sp], #4
 8000f8c:	4770      	bx	lr
 8000f8e:	bf00      	nop
 8000f90:	40021000 	.word	0x40021000

08000f94 <LL_RCC_PLL_GetMultiplicator>:
  *         @arg @ref LL_RCC_PLL_MUL_14
  *         @arg @ref LL_RCC_PLL_MUL_15
  *         @arg @ref LL_RCC_PLL_MUL_16
  */
__STATIC_INLINE uint32_t LL_RCC_PLL_GetMultiplicator(void)
{
 8000f94:	b480      	push	{r7}
 8000f96:	af00      	add	r7, sp, #0
  return (uint32_t)(READ_BIT(RCC->CFGR, RCC_CFGR_PLLMUL));
 8000f98:	4b04      	ldr	r3, [pc, #16]	; (8000fac <LL_RCC_PLL_GetMultiplicator+0x18>)
 8000f9a:	685b      	ldr	r3, [r3, #4]
 8000f9c:	f403 1370 	and.w	r3, r3, #3932160	; 0x3c0000
}
 8000fa0:	4618      	mov	r0, r3
 8000fa2:	46bd      	mov	sp, r7
 8000fa4:	f85d 7b04 	ldr.w	r7, [sp], #4
 8000fa8:	4770      	bx	lr
 8000faa:	bf00      	nop
 8000fac:	40021000 	.word	0x40021000

08000fb0 <LL_RCC_PLL_GetPrediv>:
  *         @arg @ref LL_RCC_PREDIV_DIV_14
  *         @arg @ref LL_RCC_PREDIV_DIV_15
  *         @arg @ref LL_RCC_PREDIV_DIV_16
  */
__STATIC_INLINE uint32_t LL_RCC_PLL_GetPrediv(void)
{
 8000fb0:	b480      	push	{r7}
 8000fb2:	af00      	add	r7, sp, #0
  return (uint32_t)(READ_BIT(RCC->CFGR2, RCC_CFGR2_PREDIV));
 8000fb4:	4b04      	ldr	r3, [pc, #16]	; (8000fc8 <LL_RCC_PLL_GetPrediv+0x18>)
 8000fb6:	6adb      	ldr	r3, [r3, #44]	; 0x2c
 8000fb8:	f003 030f 	and.w	r3, r3, #15
}
 8000fbc:	4618      	mov	r0, r3
 8000fbe:	46bd      	mov	sp, r7
 8000fc0:	f85d 7b04 	ldr.w	r7, [sp], #4
 8000fc4:	4770      	bx	lr
 8000fc6:	bf00      	nop
 8000fc8:	40021000 	.word	0x40021000

08000fcc <LL_RCC_GetSystemClocksFreq>:
  *         configuration based on this function will be incorrect.
  * @param  RCC_Clocks pointer to a @ref LL_RCC_ClocksTypeDef structure which will hold the clocks frequencies
  * @retval None
  */
void LL_RCC_GetSystemClocksFreq(LL_RCC_ClocksTypeDef *RCC_Clocks)
{
 8000fcc:	b580      	push	{r7, lr}
 8000fce:	b082      	sub	sp, #8
 8000fd0:	af00      	add	r7, sp, #0
 8000fd2:	6078      	str	r0, [r7, #4]
  /* Get SYSCLK frequency */
  RCC_Clocks->SYSCLK_Frequency = RCC_GetSystemClockFreq();
 8000fd4:	f000 f860 	bl	8001098 <RCC_GetSystemClockFreq>
 8000fd8:	4602      	mov	r2, r0
 8000fda:	687b      	ldr	r3, [r7, #4]
 8000fdc:	601a      	str	r2, [r3, #0]

  /* HCLK clock frequency */
  RCC_Clocks->HCLK_Frequency   = RCC_GetHCLKClockFreq(RCC_Clocks->SYSCLK_Frequency);
 8000fde:	687b      	ldr	r3, [r7, #4]
 8000fe0:	681b      	ldr	r3, [r3, #0]
 8000fe2:	4618      	mov	r0, r3
 8000fe4:	f000 f87a 	bl	80010dc <RCC_GetHCLKClockFreq>
 8000fe8:	4602      	mov	r2, r0
 8000fea:	687b      	ldr	r3, [r7, #4]
 8000fec:	605a      	str	r2, [r3, #4]

  /* PCLK1 clock frequency */
  RCC_Clocks->PCLK1_Frequency  = RCC_GetPCLK1ClockFreq(RCC_Clocks->HCLK_Frequency);
 8000fee:	687b      	ldr	r3, [r7, #4]
 8000ff0:	685b      	ldr	r3, [r3, #4]
 8000ff2:	4618      	mov	r0, r3
 8000ff4:	f000 f888 	bl	8001108 <RCC_GetPCLK1ClockFreq>
 8000ff8:	4602      	mov	r2, r0
 8000ffa:	687b      	ldr	r3, [r7, #4]
 8000ffc:	609a      	str	r2, [r3, #8]

  /* PCLK2 clock frequency */
  RCC_Clocks->PCLK2_Frequency  = RCC_GetPCLK2ClockFreq(RCC_Clocks->HCLK_Frequency);
 8000ffe:	687b      	ldr	r3, [r7, #4]
 8001000:	685b      	ldr	r3, [r3, #4]
 8001002:	4618      	mov	r0, r3
 8001004:	f000 f894 	bl	8001130 <RCC_GetPCLK2ClockFreq>
 8001008:	4602      	mov	r2, r0
 800100a:	687b      	ldr	r3, [r7, #4]
 800100c:	60da      	str	r2, [r3, #12]
}
 800100e:	bf00      	nop
 8001010:	3708      	adds	r7, #8
 8001012:	46bd      	mov	sp, r7
 8001014:	bd80      	pop	{r7, pc}
	...

08001018 <LL_RCC_GetUSARTClockFreq>:
  *         (*) value not defined in all devices.
  * @retval USART clock frequency (in Hz)
  *         @arg @ref LL_RCC_PERIPH_FREQUENCY_NO indicates that oscillator (HSI or LSE) is not ready
  */
uint32_t LL_RCC_GetUSARTClockFreq(uint32_t USARTxSource)
{
 8001018:	b580      	push	{r7, lr}
 800101a:	b084      	sub	sp, #16
 800101c:	af00      	add	r7, sp, #0
 800101e:	6078      	str	r0, [r7, #4]
  uint32_t usart_frequency = LL_RCC_PERIPH_FREQUENCY_NO;
 8001020:	2300      	movs	r3, #0
 8001022:	60fb      	str	r3, [r7, #12]

  /* Check parameter */
  assert_param(IS_LL_RCC_USART_CLKSOURCE(USARTxSource));
#if defined(RCC_CFGR3_USART1SW)
  if (USARTxSource == LL_RCC_USART1_CLKSOURCE)
 8001024:	687b      	ldr	r3, [r7, #4]
 8001026:	2b00      	cmp	r3, #0
 8001028:	d12a      	bne.n	8001080 <LL_RCC_GetUSARTClockFreq+0x68>
  {
    /* USART1CLK clock frequency */
    switch (LL_RCC_GetUSARTClockSource(USARTxSource))
 800102a:	6878      	ldr	r0, [r7, #4]
 800102c:	f7ff ff8e 	bl	8000f4c <LL_RCC_GetUSARTClockSource>
 8001030:	4603      	mov	r3, r0
 8001032:	2b02      	cmp	r3, #2
 8001034:	d00f      	beq.n	8001056 <LL_RCC_GetUSARTClockFreq+0x3e>
 8001036:	2b03      	cmp	r3, #3
 8001038:	d005      	beq.n	8001046 <LL_RCC_GetUSARTClockFreq+0x2e>
 800103a:	2b01      	cmp	r3, #1
 800103c:	d114      	bne.n	8001068 <LL_RCC_GetUSARTClockFreq+0x50>
    {
      case LL_RCC_USART1_CLKSOURCE_SYSCLK: /* USART1 Clock is System Clock */
        usart_frequency = RCC_GetSystemClockFreq();
 800103e:	f000 f82b 	bl	8001098 <RCC_GetSystemClockFreq>
 8001042:	60f8      	str	r0, [r7, #12]
        break;
 8001044:	e021      	b.n	800108a <LL_RCC_GetUSARTClockFreq+0x72>

      case LL_RCC_USART1_CLKSOURCE_HSI:    /* USART1 Clock is HSI Osc. */
        if (LL_RCC_HSI_IsReady())
 8001046:	f7ff ff25 	bl	8000e94 <LL_RCC_HSI_IsReady>
 800104a:	4603      	mov	r3, r0
 800104c:	2b00      	cmp	r3, #0
 800104e:	d019      	beq.n	8001084 <LL_RCC_GetUSARTClockFreq+0x6c>
        {
          usart_frequency = HSI_VALUE;
 8001050:	4b10      	ldr	r3, [pc, #64]	; (8001094 <LL_RCC_GetUSARTClockFreq+0x7c>)
 8001052:	60fb      	str	r3, [r7, #12]
        }
        break;
 8001054:	e016      	b.n	8001084 <LL_RCC_GetUSARTClockFreq+0x6c>

      case LL_RCC_USART1_CLKSOURCE_LSE:    /* USART1 Clock is LSE Osc. */
        if (LL_RCC_LSE_IsReady())
 8001056:	f7ff ff2f 	bl	8000eb8 <LL_RCC_LSE_IsReady>
 800105a:	4603      	mov	r3, r0
 800105c:	2b00      	cmp	r3, #0
 800105e:	d013      	beq.n	8001088 <LL_RCC_GetUSARTClockFreq+0x70>
        {
          usart_frequency = LSE_VALUE;
 8001060:	f44f 4300 	mov.w	r3, #32768	; 0x8000
 8001064:	60fb      	str	r3, [r7, #12]
        }
        break;
 8001066:	e00f      	b.n	8001088 <LL_RCC_GetUSARTClockFreq+0x70>

#if defined(RCC_CFGR3_USART1SW_PCLK1)
      case LL_RCC_USART1_CLKSOURCE_PCLK1:  /* USART1 Clock is PCLK1 */
      default:
        usart_frequency = RCC_GetPCLK1ClockFreq(RCC_GetHCLKClockFreq(RCC_GetSystemClockFreq()));
 8001068:	f000 f816 	bl	8001098 <RCC_GetSystemClockFreq>
 800106c:	4603      	mov	r3, r0
 800106e:	4618      	mov	r0, r3
 8001070:	f000 f834 	bl	80010dc <RCC_GetHCLKClockFreq>
 8001074:	4603      	mov	r3, r0
 8001076:	4618      	mov	r0, r3
 8001078:	f000 f846 	bl	8001108 <RCC_GetPCLK1ClockFreq>
 800107c:	60f8      	str	r0, [r7, #12]
#else
      case LL_RCC_USART1_CLKSOURCE_PCLK2:  /* USART1 Clock is PCLK2 */
      default:
        usart_frequency = RCC_GetPCLK2ClockFreq(RCC_GetHCLKClockFreq(RCC_GetSystemClockFreq()));
#endif /* RCC_CFGR3_USART1SW_PCLK1 */
        break;
 800107e:	e004      	b.n	800108a <LL_RCC_GetUSARTClockFreq+0x72>
    }
  }
 8001080:	bf00      	nop
 8001082:	e002      	b.n	800108a <LL_RCC_GetUSARTClockFreq+0x72>
        break;
 8001084:	bf00      	nop
 8001086:	e000      	b.n	800108a <LL_RCC_GetUSARTClockFreq+0x72>
        break;
 8001088:	bf00      	nop
        break;
    }
  }

#endif /* RCC_CFGR3_USART3SW */
  return usart_frequency;
 800108a:	68fb      	ldr	r3, [r7, #12]
}
 800108c:	4618      	mov	r0, r3
 800108e:	3710      	adds	r7, #16
 8001090:	46bd      	mov	sp, r7
 8001092:	bd80      	pop	{r7, pc}
 8001094:	007a1200 	.word	0x007a1200

08001098 <RCC_GetSystemClockFreq>:
/**
  * @brief  Return SYSTEM clock frequency
  * @retval SYSTEM clock frequency (in Hz)
  */
uint32_t RCC_GetSystemClockFreq(void)
{
 8001098:	b580      	push	{r7, lr}
 800109a:	b082      	sub	sp, #8
 800109c:	af00      	add	r7, sp, #0
  uint32_t frequency = 0U;
 800109e:	2300      	movs	r3, #0
 80010a0:	607b      	str	r3, [r7, #4]

  /* Get SYSCLK source -------------------------------------------------------*/
  switch (LL_RCC_GetSysClkSource())
 80010a2:	f7ff ff1b 	bl	8000edc <LL_RCC_GetSysClkSource>
 80010a6:	4603      	mov	r3, r0
 80010a8:	2b04      	cmp	r3, #4
 80010aa:	d006      	beq.n	80010ba <RCC_GetSystemClockFreq+0x22>
 80010ac:	2b08      	cmp	r3, #8
 80010ae:	d007      	beq.n	80010c0 <RCC_GetSystemClockFreq+0x28>
 80010b0:	2b00      	cmp	r3, #0
 80010b2:	d109      	bne.n	80010c8 <RCC_GetSystemClockFreq+0x30>
  {
    case LL_RCC_SYS_CLKSOURCE_STATUS_HSI:  /* HSI used as system clock  source */
      frequency = HSI_VALUE;
 80010b4:	4b08      	ldr	r3, [pc, #32]	; (80010d8 <RCC_GetSystemClockFreq+0x40>)
 80010b6:	607b      	str	r3, [r7, #4]
      break;
 80010b8:	e009      	b.n	80010ce <RCC_GetSystemClockFreq+0x36>

    case LL_RCC_SYS_CLKSOURCE_STATUS_HSE:  /* HSE used as system clock  source */
      frequency = HSE_VALUE;
 80010ba:	4b07      	ldr	r3, [pc, #28]	; (80010d8 <RCC_GetSystemClockFreq+0x40>)
 80010bc:	607b      	str	r3, [r7, #4]
      break;
 80010be:	e006      	b.n	80010ce <RCC_GetSystemClockFreq+0x36>

    case LL_RCC_SYS_CLKSOURCE_STATUS_PLL:  /* PLL used as system clock  source */
      frequency = RCC_PLL_GetFreqDomain_SYS();
 80010c0:	f000 f84a 	bl	8001158 <RCC_PLL_GetFreqDomain_SYS>
 80010c4:	6078      	str	r0, [r7, #4]
      break;
 80010c6:	e002      	b.n	80010ce <RCC_GetSystemClockFreq+0x36>

    default:
      frequency = HSI_VALUE;
 80010c8:	4b03      	ldr	r3, [pc, #12]	; (80010d8 <RCC_GetSystemClockFreq+0x40>)
 80010ca:	607b      	str	r3, [r7, #4]
      break;
 80010cc:	bf00      	nop
  }

  return frequency;
 80010ce:	687b      	ldr	r3, [r7, #4]
}
 80010d0:	4618      	mov	r0, r3
 80010d2:	3708      	adds	r7, #8
 80010d4:	46bd      	mov	sp, r7
 80010d6:	bd80      	pop	{r7, pc}
 80010d8:	007a1200 	.word	0x007a1200

080010dc <RCC_GetHCLKClockFreq>:
  * @brief  Return HCLK clock frequency
  * @param  SYSCLK_Frequency SYSCLK clock frequency
  * @retval HCLK clock frequency (in Hz)
  */
uint32_t RCC_GetHCLKClockFreq(uint32_t SYSCLK_Frequency)
{
 80010dc:	b580      	push	{r7, lr}
 80010de:	b082      	sub	sp, #8
 80010e0:	af00      	add	r7, sp, #0
 80010e2:	6078      	str	r0, [r7, #4]
  /* HCLK clock frequency */
  return __LL_RCC_CALC_HCLK_FREQ(SYSCLK_Frequency, LL_RCC_GetAHBPrescaler());
 80010e4:	f7ff ff08 	bl	8000ef8 <LL_RCC_GetAHBPrescaler>
 80010e8:	4603      	mov	r3, r0
 80010ea:	091b      	lsrs	r3, r3, #4
 80010ec:	f003 030f 	and.w	r3, r3, #15
 80010f0:	4a04      	ldr	r2, [pc, #16]	; (8001104 <RCC_GetHCLKClockFreq+0x28>)
 80010f2:	5cd3      	ldrb	r3, [r2, r3]
 80010f4:	461a      	mov	r2, r3
 80010f6:	687b      	ldr	r3, [r7, #4]
 80010f8:	40d3      	lsrs	r3, r2
}
 80010fa:	4618      	mov	r0, r3
 80010fc:	3708      	adds	r7, #8
 80010fe:	46bd      	mov	sp, r7
 8001100:	bd80      	pop	{r7, pc}
 8001102:	bf00      	nop
 8001104:	08006280 	.word	0x08006280

08001108 <RCC_GetPCLK1ClockFreq>:
  * @brief  Return PCLK1 clock frequency
  * @param  HCLK_Frequency HCLK clock frequency
  * @retval PCLK1 clock frequency (in Hz)
  */
uint32_t RCC_GetPCLK1ClockFreq(uint32_t HCLK_Frequency)
{
 8001108:	b580      	push	{r7, lr}
 800110a:	b082      	sub	sp, #8
 800110c:	af00      	add	r7, sp, #0
 800110e:	6078      	str	r0, [r7, #4]
  /* PCLK1 clock frequency */
  return __LL_RCC_CALC_PCLK1_FREQ(HCLK_Frequency, LL_RCC_GetAPB1Prescaler());
 8001110:	f7ff ff00 	bl	8000f14 <LL_RCC_GetAPB1Prescaler>
 8001114:	4603      	mov	r3, r0
 8001116:	0a1b      	lsrs	r3, r3, #8
 8001118:	4a04      	ldr	r2, [pc, #16]	; (800112c <RCC_GetPCLK1ClockFreq+0x24>)
 800111a:	5cd3      	ldrb	r3, [r2, r3]
 800111c:	461a      	mov	r2, r3
 800111e:	687b      	ldr	r3, [r7, #4]
 8001120:	40d3      	lsrs	r3, r2
}
 8001122:	4618      	mov	r0, r3
 8001124:	3708      	adds	r7, #8
 8001126:	46bd      	mov	sp, r7
 8001128:	bd80      	pop	{r7, pc}
 800112a:	bf00      	nop
 800112c:	08006290 	.word	0x08006290

08001130 <RCC_GetPCLK2ClockFreq>:
  * @brief  Return PCLK2 clock frequency
  * @param  HCLK_Frequency HCLK clock frequency
  * @retval PCLK2 clock frequency (in Hz)
  */
uint32_t RCC_GetPCLK2ClockFreq(uint32_t HCLK_Frequency)
{
 8001130:	b580      	push	{r7, lr}
 8001132:	b082      	sub	sp, #8
 8001134:	af00      	add	r7, sp, #0
 8001136:	6078      	str	r0, [r7, #4]
  /* PCLK2 clock frequency */
  return __LL_RCC_CALC_PCLK2_FREQ(HCLK_Frequency, LL_RCC_GetAPB2Prescaler());
 8001138:	f7ff fefa 	bl	8000f30 <LL_RCC_GetAPB2Prescaler>
 800113c:	4603      	mov	r3, r0
 800113e:	0adb      	lsrs	r3, r3, #11
 8001140:	4a04      	ldr	r2, [pc, #16]	; (8001154 <RCC_GetPCLK2ClockFreq+0x24>)
 8001142:	5cd3      	ldrb	r3, [r2, r3]
 8001144:	461a      	mov	r2, r3
 8001146:	687b      	ldr	r3, [r7, #4]
 8001148:	40d3      	lsrs	r3, r2
}
 800114a:	4618      	mov	r0, r3
 800114c:	3708      	adds	r7, #8
 800114e:	46bd      	mov	sp, r7
 8001150:	bd80      	pop	{r7, pc}
 8001152:	bf00      	nop
 8001154:	08006290 	.word	0x08006290

08001158 <RCC_PLL_GetFreqDomain_SYS>:
/**
  * @brief  Return PLL clock frequency used for system domain
  * @retval PLL clock frequency (in Hz)
  */
uint32_t RCC_PLL_GetFreqDomain_SYS(void)
{
 8001158:	b590      	push	{r4, r7, lr}
 800115a:	b085      	sub	sp, #20
 800115c:	af00      	add	r7, sp, #0
  uint32_t pllinputfreq = 0U, pllsource = 0U;
 800115e:	2300      	movs	r3, #0
 8001160:	60fb      	str	r3, [r7, #12]
 8001162:	2300      	movs	r3, #0
 8001164:	60bb      	str	r3, [r7, #8]

  /* PLL_VCO = (HSE_VALUE or HSI_VALUE / PLL divider) * PLL Multiplicator */

  /* Get PLL source */
  pllsource = LL_RCC_PLL_GetMainSource();
 8001166:	f7ff ff07 	bl	8000f78 <LL_RCC_PLL_GetMainSource>
 800116a:	60b8      	str	r0, [r7, #8]

  switch (pllsource)
 800116c:	68bb      	ldr	r3, [r7, #8]
 800116e:	2b00      	cmp	r3, #0
 8001170:	d003      	beq.n	800117a <RCC_PLL_GetFreqDomain_SYS+0x22>
 8001172:	f5b3 3f80 	cmp.w	r3, #65536	; 0x10000
 8001176:	d003      	beq.n	8001180 <RCC_PLL_GetFreqDomain_SYS+0x28>
 8001178:	e005      	b.n	8001186 <RCC_PLL_GetFreqDomain_SYS+0x2e>
#if defined(RCC_PLLSRC_PREDIV1_SUPPORT)
    case LL_RCC_PLLSOURCE_HSI:       /* HSI used as PLL clock source */
      pllinputfreq = HSI_VALUE;
#else
    case LL_RCC_PLLSOURCE_HSI_DIV_2: /* HSI used as PLL clock source */
      pllinputfreq = HSI_VALUE / 2U;
 800117a:	4b13      	ldr	r3, [pc, #76]	; (80011c8 <RCC_PLL_GetFreqDomain_SYS+0x70>)
 800117c:	60fb      	str	r3, [r7, #12]
#endif /* RCC_PLLSRC_PREDIV1_SUPPORT */
      break;
 800117e:	e005      	b.n	800118c <RCC_PLL_GetFreqDomain_SYS+0x34>

    case LL_RCC_PLLSOURCE_HSE:       /* HSE used as PLL clock source */
      pllinputfreq = HSE_VALUE;
 8001180:	4b12      	ldr	r3, [pc, #72]	; (80011cc <RCC_PLL_GetFreqDomain_SYS+0x74>)
 8001182:	60fb      	str	r3, [r7, #12]
      break;
 8001184:	e002      	b.n	800118c <RCC_PLL_GetFreqDomain_SYS+0x34>

    default:
#if defined(RCC_PLLSRC_PREDIV1_SUPPORT)
      pllinputfreq = HSI_VALUE;
#else
      pllinputfreq = HSI_VALUE / 2U;
 8001186:	4b10      	ldr	r3, [pc, #64]	; (80011c8 <RCC_PLL_GetFreqDomain_SYS+0x70>)
 8001188:	60fb      	str	r3, [r7, #12]
#endif /* RCC_PLLSRC_PREDIV1_SUPPORT */
      break;
 800118a:	bf00      	nop
  }
#if defined(RCC_PLLSRC_PREDIV1_SUPPORT)
  return __LL_RCC_CALC_PLLCLK_FREQ(pllinputfreq, LL_RCC_PLL_GetMultiplicator(), LL_RCC_PLL_GetPrediv());
#else
  return __LL_RCC_CALC_PLLCLK_FREQ((pllinputfreq / (LL_RCC_PLL_GetPrediv() + 1U)), LL_RCC_PLL_GetMultiplicator());
 800118c:	f7ff ff10 	bl	8000fb0 <LL_RCC_PLL_GetPrediv>
 8001190:	4603      	mov	r3, r0
 8001192:	3301      	adds	r3, #1
 8001194:	68fa      	ldr	r2, [r7, #12]
 8001196:	fbb2 f4f3 	udiv	r4, r2, r3
 800119a:	f7ff fefb 	bl	8000f94 <LL_RCC_PLL_GetMultiplicator>
 800119e:	4603      	mov	r3, r0
 80011a0:	f403 1370 	and.w	r3, r3, #3932160	; 0x3c0000
 80011a4:	f44f 1270 	mov.w	r2, #3932160	; 0x3c0000
 80011a8:	607a      	str	r2, [r7, #4]
   __ASM volatile ("rbit %0, %1" : "=r" (result) : "r" (value) );
 80011aa:	687a      	ldr	r2, [r7, #4]
 80011ac:	fa92 f2a2 	rbit	r2, r2
 80011b0:	603a      	str	r2, [r7, #0]
  return(result);
 80011b2:	683a      	ldr	r2, [r7, #0]
 80011b4:	fab2 f282 	clz	r2, r2
 80011b8:	40d3      	lsrs	r3, r2
 80011ba:	3302      	adds	r3, #2
 80011bc:	fb03 f304 	mul.w	r3, r3, r4
#endif /* RCC_PLLSRC_PREDIV1_SUPPORT */
}
 80011c0:	4618      	mov	r0, r3
 80011c2:	3714      	adds	r7, #20
 80011c4:	46bd      	mov	sp, r7
 80011c6:	bd90      	pop	{r4, r7, pc}
 80011c8:	003d0900 	.word	0x003d0900
 80011cc:	007a1200 	.word	0x007a1200

080011d0 <LL_TIM_SetPrescaler>:
  * @param  TIMx Timer instance
  * @param  Prescaler between Min_Data=0 and Max_Data=65535
  * @retval None
  */
__STATIC_INLINE void LL_TIM_SetPrescaler(TIM_TypeDef *TIMx, uint32_t Prescaler)
{
 80011d0:	b480      	push	{r7}
 80011d2:	b083      	sub	sp, #12
 80011d4:	af00      	add	r7, sp, #0
 80011d6:	6078      	str	r0, [r7, #4]
 80011d8:	6039      	str	r1, [r7, #0]
  WRITE_REG(TIMx->PSC, Prescaler);
 80011da:	687b      	ldr	r3, [r7, #4]
 80011dc:	683a      	ldr	r2, [r7, #0]
 80011de:	629a      	str	r2, [r3, #40]	; 0x28
}
 80011e0:	bf00      	nop
 80011e2:	370c      	adds	r7, #12
 80011e4:	46bd      	mov	sp, r7
 80011e6:	f85d 7b04 	ldr.w	r7, [sp], #4
 80011ea:	4770      	bx	lr

080011ec <LL_TIM_SetAutoReload>:
  * @param  TIMx Timer instance
  * @param  AutoReload between Min_Data=0 and Max_Data=65535
  * @retval None
  */
__STATIC_INLINE void LL_TIM_SetAutoReload(TIM_TypeDef *TIMx, uint32_t AutoReload)
{
 80011ec:	b480      	push	{r7}
 80011ee:	b083      	sub	sp, #12
 80011f0:	af00      	add	r7, sp, #0
 80011f2:	6078      	str	r0, [r7, #4]
 80011f4:	6039      	str	r1, [r7, #0]
  WRITE_REG(TIMx->ARR, AutoReload);
 80011f6:	687b      	ldr	r3, [r7, #4]
 80011f8:	683a      	ldr	r2, [r7, #0]
 80011fa:	62da      	str	r2, [r3, #44]	; 0x2c
}
 80011fc:	bf00      	nop
 80011fe:	370c      	adds	r7, #12
 8001200:	46bd      	mov	sp, r7
 8001202:	f85d 7b04 	ldr.w	r7, [sp], #4
 8001206:	4770      	bx	lr

08001208 <LL_TIM_SetRepetitionCounter>:
  * @param  TIMx Timer instance
  * @param  RepetitionCounter between Min_Data=0 and Max_Data=255
  * @retval None
  */
__STATIC_INLINE void LL_TIM_SetRepetitionCounter(TIM_TypeDef *TIMx, uint32_t RepetitionCounter)
{
 8001208:	b480      	push	{r7}
 800120a:	b083      	sub	sp, #12
 800120c:	af00      	add	r7, sp, #0
 800120e:	6078      	str	r0, [r7, #4]
 8001210:	6039      	str	r1, [r7, #0]
  WRITE_REG(TIMx->RCR, RepetitionCounter);
 8001212:	687b      	ldr	r3, [r7, #4]
 8001214:	683a      	ldr	r2, [r7, #0]
 8001216:	631a      	str	r2, [r3, #48]	; 0x30
}
 8001218:	bf00      	nop
 800121a:	370c      	adds	r7, #12
 800121c:	46bd      	mov	sp, r7
 800121e:	f85d 7b04 	ldr.w	r7, [sp], #4
 8001222:	4770      	bx	lr

08001224 <LL_TIM_OC_SetCompareCH1>:
  * @param  TIMx Timer instance
  * @param  CompareValue between Min_Data=0 and Max_Data=65535
  * @retval None
  */
__STATIC_INLINE void LL_TIM_OC_SetCompareCH1(TIM_TypeDef *TIMx, uint32_t CompareValue)
{
 8001224:	b480      	push	{r7}
 8001226:	b083      	sub	sp, #12
 8001228:	af00      	add	r7, sp, #0
 800122a:	6078      	str	r0, [r7, #4]
 800122c:	6039      	str	r1, [r7, #0]
  WRITE_REG(TIMx->CCR1, CompareValue);
 800122e:	687b      	ldr	r3, [r7, #4]
 8001230:	683a      	ldr	r2, [r7, #0]
 8001232:	635a      	str	r2, [r3, #52]	; 0x34
}
 8001234:	bf00      	nop
 8001236:	370c      	adds	r7, #12
 8001238:	46bd      	mov	sp, r7
 800123a:	f85d 7b04 	ldr.w	r7, [sp], #4
 800123e:	4770      	bx	lr

08001240 <LL_TIM_OC_SetCompareCH2>:
  * @param  TIMx Timer instance
  * @param  CompareValue between Min_Data=0 and Max_Data=65535
  * @retval None
  */
__STATIC_INLINE void LL_TIM_OC_SetCompareCH2(TIM_TypeDef *TIMx, uint32_t CompareValue)
{
 8001240:	b480      	push	{r7}
 8001242:	b083      	sub	sp, #12
 8001244:	af00      	add	r7, sp, #0
 8001246:	6078      	str	r0, [r7, #4]
 8001248:	6039      	str	r1, [r7, #0]
  WRITE_REG(TIMx->CCR2, CompareValue);
 800124a:	687b      	ldr	r3, [r7, #4]
 800124c:	683a      	ldr	r2, [r7, #0]
 800124e:	639a      	str	r2, [r3, #56]	; 0x38
}
 8001250:	bf00      	nop
 8001252:	370c      	adds	r7, #12
 8001254:	46bd      	mov	sp, r7
 8001256:	f85d 7b04 	ldr.w	r7, [sp], #4
 800125a:	4770      	bx	lr

0800125c <LL_TIM_OC_SetCompareCH3>:
  * @param  TIMx Timer instance
  * @param  CompareValue between Min_Data=0 and Max_Data=65535
  * @retval None
  */
__STATIC_INLINE void LL_TIM_OC_SetCompareCH3(TIM_TypeDef *TIMx, uint32_t CompareValue)
{
 800125c:	b480      	push	{r7}
 800125e:	b083      	sub	sp, #12
 8001260:	af00      	add	r7, sp, #0
 8001262:	6078      	str	r0, [r7, #4]
 8001264:	6039      	str	r1, [r7, #0]
  WRITE_REG(TIMx->CCR3, CompareValue);
 8001266:	687b      	ldr	r3, [r7, #4]
 8001268:	683a      	ldr	r2, [r7, #0]
 800126a:	63da      	str	r2, [r3, #60]	; 0x3c
}
 800126c:	bf00      	nop
 800126e:	370c      	adds	r7, #12
 8001270:	46bd      	mov	sp, r7
 8001272:	f85d 7b04 	ldr.w	r7, [sp], #4
 8001276:	4770      	bx	lr

08001278 <LL_TIM_OC_SetCompareCH4>:
  * @param  TIMx Timer instance
  * @param  CompareValue between Min_Data=0 and Max_Data=65535
  * @retval None
  */
__STATIC_INLINE void LL_TIM_OC_SetCompareCH4(TIM_TypeDef *TIMx, uint32_t CompareValue)
{
 8001278:	b480      	push	{r7}
 800127a:	b083      	sub	sp, #12
 800127c:	af00      	add	r7, sp, #0
 800127e:	6078      	str	r0, [r7, #4]
 8001280:	6039      	str	r1, [r7, #0]
  WRITE_REG(TIMx->CCR4, CompareValue);
 8001282:	687b      	ldr	r3, [r7, #4]
 8001284:	683a      	ldr	r2, [r7, #0]
 8001286:	641a      	str	r2, [r3, #64]	; 0x40
}
 8001288:	bf00      	nop
 800128a:	370c      	adds	r7, #12
 800128c:	46bd      	mov	sp, r7
 800128e:	f85d 7b04 	ldr.w	r7, [sp], #4
 8001292:	4770      	bx	lr

08001294 <LL_TIM_OC_SetCompareCH5>:
  * @param  CompareValue between Min_Data=0 and Max_Data=65535
  * @note   CH5 channel is not available for all F3 devices
  * @retval None
  */
__STATIC_INLINE void LL_TIM_OC_SetCompareCH5(TIM_TypeDef *TIMx, uint32_t CompareValue)
{
 8001294:	b480      	push	{r7}
 8001296:	b083      	sub	sp, #12
 8001298:	af00      	add	r7, sp, #0
 800129a:	6078      	str	r0, [r7, #4]
 800129c:	6039      	str	r1, [r7, #0]
  WRITE_REG(TIMx->CCR5, CompareValue);
 800129e:	687b      	ldr	r3, [r7, #4]
 80012a0:	683a      	ldr	r2, [r7, #0]
 80012a2:	659a      	str	r2, [r3, #88]	; 0x58
}
 80012a4:	bf00      	nop
 80012a6:	370c      	adds	r7, #12
 80012a8:	46bd      	mov	sp, r7
 80012aa:	f85d 7b04 	ldr.w	r7, [sp], #4
 80012ae:	4770      	bx	lr

080012b0 <LL_TIM_OC_SetCompareCH6>:
  * @param  CompareValue between Min_Data=0 and Max_Data=65535
  * @note   CH6 channel is not available for all F3 devices
  * @retval None
  */
__STATIC_INLINE void LL_TIM_OC_SetCompareCH6(TIM_TypeDef *TIMx, uint32_t CompareValue)
{
 80012b0:	b480      	push	{r7}
 80012b2:	b083      	sub	sp, #12
 80012b4:	af00      	add	r7, sp, #0
 80012b6:	6078      	str	r0, [r7, #4]
 80012b8:	6039      	str	r1, [r7, #0]
  WRITE_REG(TIMx->CCR6, CompareValue);
 80012ba:	687b      	ldr	r3, [r7, #4]
 80012bc:	683a      	ldr	r2, [r7, #0]
 80012be:	65da      	str	r2, [r3, #92]	; 0x5c
}
 80012c0:	bf00      	nop
 80012c2:	370c      	adds	r7, #12
 80012c4:	46bd      	mov	sp, r7
 80012c6:	f85d 7b04 	ldr.w	r7, [sp], #4
 80012ca:	4770      	bx	lr

080012cc <LL_TIM_GenerateEvent_UPDATE>:
  * @rmtoll EGR          UG            LL_TIM_GenerateEvent_UPDATE
  * @param  TIMx Timer instance
  * @retval None
  */
__STATIC_INLINE void LL_TIM_GenerateEvent_UPDATE(TIM_TypeDef *TIMx)
{
 80012cc:	b480      	push	{r7}
 80012ce:	b083      	sub	sp, #12
 80012d0:	af00      	add	r7, sp, #0
 80012d2:	6078      	str	r0, [r7, #4]
  SET_BIT(TIMx->EGR, TIM_EGR_UG);
 80012d4:	687b      	ldr	r3, [r7, #4]
 80012d6:	695b      	ldr	r3, [r3, #20]
 80012d8:	f043 0201 	orr.w	r2, r3, #1
 80012dc:	687b      	ldr	r3, [r7, #4]
 80012de:	615a      	str	r2, [r3, #20]
}
 80012e0:	bf00      	nop
 80012e2:	370c      	adds	r7, #12
 80012e4:	46bd      	mov	sp, r7
 80012e6:	f85d 7b04 	ldr.w	r7, [sp], #4
 80012ea:	4770      	bx	lr

080012ec <LL_TIM_Init>:
  * @retval An ErrorStatus enumeration value:
  *          - SUCCESS: TIMx registers are de-initialized
  *          - ERROR: not applicable
  */
ErrorStatus LL_TIM_Init(TIM_TypeDef *TIMx, LL_TIM_InitTypeDef *TIM_InitStruct)
{
 80012ec:	b580      	push	{r7, lr}
 80012ee:	b084      	sub	sp, #16
 80012f0:	af00      	add	r7, sp, #0
 80012f2:	6078      	str	r0, [r7, #4]
 80012f4:	6039      	str	r1, [r7, #0]
  uint32_t tmpcr1 = 0U;
 80012f6:	2300      	movs	r3, #0
 80012f8:	60fb      	str	r3, [r7, #12]
  /* Check the parameters */
  assert_param(IS_TIM_INSTANCE(TIMx));
  assert_param(IS_LL_TIM_COUNTERMODE(TIM_InitStruct->CounterMode));
  assert_param(IS_LL_TIM_CLOCKDIVISION(TIM_InitStruct->ClockDivision));

  tmpcr1 = LL_TIM_ReadReg(TIMx, CR1);
 80012fa:	687b      	ldr	r3, [r7, #4]
 80012fc:	681b      	ldr	r3, [r3, #0]
 80012fe:	60fb      	str	r3, [r7, #12]

  if (IS_TIM_COUNTER_MODE_SELECT_INSTANCE(TIMx))
 8001300:	687b      	ldr	r3, [r7, #4]
 8001302:	4a2f      	ldr	r2, [pc, #188]	; (80013c0 <LL_TIM_Init+0xd4>)
 8001304:	4293      	cmp	r3, r2
 8001306:	d007      	beq.n	8001318 <LL_TIM_Init+0x2c>
 8001308:	687b      	ldr	r3, [r7, #4]
 800130a:	f1b3 4f80 	cmp.w	r3, #1073741824	; 0x40000000
 800130e:	d003      	beq.n	8001318 <LL_TIM_Init+0x2c>
 8001310:	687b      	ldr	r3, [r7, #4]
 8001312:	4a2c      	ldr	r2, [pc, #176]	; (80013c4 <LL_TIM_Init+0xd8>)
 8001314:	4293      	cmp	r3, r2
 8001316:	d106      	bne.n	8001326 <LL_TIM_Init+0x3a>
  {
    /* Select the Counter Mode */
    MODIFY_REG(tmpcr1, (TIM_CR1_DIR | TIM_CR1_CMS), TIM_InitStruct->CounterMode);
 8001318:	68fb      	ldr	r3, [r7, #12]
 800131a:	f023 0270 	bic.w	r2, r3, #112	; 0x70
 800131e:	683b      	ldr	r3, [r7, #0]
 8001320:	685b      	ldr	r3, [r3, #4]
 8001322:	4313      	orrs	r3, r2
 8001324:	60fb      	str	r3, [r7, #12]
  }

  if (IS_TIM_CLOCK_DIVISION_INSTANCE(TIMx))
 8001326:	687b      	ldr	r3, [r7, #4]
 8001328:	4a25      	ldr	r2, [pc, #148]	; (80013c0 <LL_TIM_Init+0xd4>)
 800132a:	4293      	cmp	r3, r2
 800132c:	d013      	beq.n	8001356 <LL_TIM_Init+0x6a>
 800132e:	687b      	ldr	r3, [r7, #4]
 8001330:	f1b3 4f80 	cmp.w	r3, #1073741824	; 0x40000000
 8001334:	d00f      	beq.n	8001356 <LL_TIM_Init+0x6a>
 8001336:	687b      	ldr	r3, [r7, #4]
 8001338:	4a22      	ldr	r2, [pc, #136]	; (80013c4 <LL_TIM_Init+0xd8>)
 800133a:	4293      	cmp	r3, r2
 800133c:	d00b      	beq.n	8001356 <LL_TIM_Init+0x6a>
 800133e:	687b      	ldr	r3, [r7, #4]
 8001340:	4a21      	ldr	r2, [pc, #132]	; (80013c8 <LL_TIM_Init+0xdc>)
 8001342:	4293      	cmp	r3, r2
 8001344:	d007      	beq.n	8001356 <LL_TIM_Init+0x6a>
 8001346:	687b      	ldr	r3, [r7, #4]
 8001348:	4a20      	ldr	r2, [pc, #128]	; (80013cc <LL_TIM_Init+0xe0>)
 800134a:	4293      	cmp	r3, r2
 800134c:	d003      	beq.n	8001356 <LL_TIM_Init+0x6a>
 800134e:	687b      	ldr	r3, [r7, #4]
 8001350:	4a1f      	ldr	r2, [pc, #124]	; (80013d0 <LL_TIM_Init+0xe4>)
 8001352:	4293      	cmp	r3, r2
 8001354:	d106      	bne.n	8001364 <LL_TIM_Init+0x78>
  {
    /* Set the clock division */
    MODIFY_REG(tmpcr1, TIM_CR1_CKD, TIM_InitStruct->ClockDivision);
 8001356:	68fb      	ldr	r3, [r7, #12]
 8001358:	f423 7240 	bic.w	r2, r3, #768	; 0x300
 800135c:	683b      	ldr	r3, [r7, #0]
 800135e:	68db      	ldr	r3, [r3, #12]
 8001360:	4313      	orrs	r3, r2
 8001362:	60fb      	str	r3, [r7, #12]
  }

  /* Write to TIMx CR1 */
  LL_TIM_WriteReg(TIMx, CR1, tmpcr1);
 8001364:	687b      	ldr	r3, [r7, #4]
 8001366:	68fa      	ldr	r2, [r7, #12]
 8001368:	601a      	str	r2, [r3, #0]

  /* Set the Autoreload value */
  LL_TIM_SetAutoReload(TIMx, TIM_InitStruct->Autoreload);
 800136a:	683b      	ldr	r3, [r7, #0]
 800136c:	689b      	ldr	r3, [r3, #8]
 800136e:	4619      	mov	r1, r3
 8001370:	6878      	ldr	r0, [r7, #4]
 8001372:	f7ff ff3b 	bl	80011ec <LL_TIM_SetAutoReload>

  /* Set the Prescaler value */
  LL_TIM_SetPrescaler(TIMx, TIM_InitStruct->Prescaler);
 8001376:	683b      	ldr	r3, [r7, #0]
 8001378:	881b      	ldrh	r3, [r3, #0]
 800137a:	4619      	mov	r1, r3
 800137c:	6878      	ldr	r0, [r7, #4]
 800137e:	f7ff ff27 	bl	80011d0 <LL_TIM_SetPrescaler>

  if (IS_TIM_REPETITION_COUNTER_INSTANCE(TIMx))
 8001382:	687b      	ldr	r3, [r7, #4]
 8001384:	4a0e      	ldr	r2, [pc, #56]	; (80013c0 <LL_TIM_Init+0xd4>)
 8001386:	4293      	cmp	r3, r2
 8001388:	d00b      	beq.n	80013a2 <LL_TIM_Init+0xb6>
 800138a:	687b      	ldr	r3, [r7, #4]
 800138c:	4a0e      	ldr	r2, [pc, #56]	; (80013c8 <LL_TIM_Init+0xdc>)
 800138e:	4293      	cmp	r3, r2
 8001390:	d007      	beq.n	80013a2 <LL_TIM_Init+0xb6>
 8001392:	687b      	ldr	r3, [r7, #4]
 8001394:	4a0d      	ldr	r2, [pc, #52]	; (80013cc <LL_TIM_Init+0xe0>)
 8001396:	4293      	cmp	r3, r2
 8001398:	d003      	beq.n	80013a2 <LL_TIM_Init+0xb6>
 800139a:	687b      	ldr	r3, [r7, #4]
 800139c:	4a0c      	ldr	r2, [pc, #48]	; (80013d0 <LL_TIM_Init+0xe4>)
 800139e:	4293      	cmp	r3, r2
 80013a0:	d105      	bne.n	80013ae <LL_TIM_Init+0xc2>
  {
    /* Set the Repetition Counter value */
    LL_TIM_SetRepetitionCounter(TIMx, TIM_InitStruct->RepetitionCounter);
 80013a2:	683b      	ldr	r3, [r7, #0]
 80013a4:	7c1b      	ldrb	r3, [r3, #16]
 80013a6:	4619      	mov	r1, r3
 80013a8:	6878      	ldr	r0, [r7, #4]
 80013aa:	f7ff ff2d 	bl	8001208 <LL_TIM_SetRepetitionCounter>
  }

  /* Generate an update event to reload the Prescaler
     and the repetition counter value (if applicable) immediately */
  LL_TIM_GenerateEvent_UPDATE(TIMx);
 80013ae:	6878      	ldr	r0, [r7, #4]
 80013b0:	f7ff ff8c 	bl	80012cc <LL_TIM_GenerateEvent_UPDATE>

  return SUCCESS;
 80013b4:	2300      	movs	r3, #0
}
 80013b6:	4618      	mov	r0, r3
 80013b8:	3710      	adds	r7, #16
 80013ba:	46bd      	mov	sp, r7
 80013bc:	bd80      	pop	{r7, pc}
 80013be:	bf00      	nop
 80013c0:	40012c00 	.word	0x40012c00
 80013c4:	40000400 	.word	0x40000400
 80013c8:	40014000 	.word	0x40014000
 80013cc:	40014400 	.word	0x40014400
 80013d0:	40014800 	.word	0x40014800

080013d4 <LL_TIM_OC_Init>:
  * @retval An ErrorStatus enumeration value:
  *          - SUCCESS: TIMx output channel is initialized
  *          - ERROR: TIMx output channel is not initialized
  */
ErrorStatus LL_TIM_OC_Init(TIM_TypeDef *TIMx, uint32_t Channel, LL_TIM_OC_InitTypeDef *TIM_OC_InitStruct)
{
 80013d4:	b580      	push	{r7, lr}
 80013d6:	b086      	sub	sp, #24
 80013d8:	af00      	add	r7, sp, #0
 80013da:	60f8      	str	r0, [r7, #12]
 80013dc:	60b9      	str	r1, [r7, #8]
 80013de:	607a      	str	r2, [r7, #4]
  ErrorStatus result = ERROR;
 80013e0:	2301      	movs	r3, #1
 80013e2:	75fb      	strb	r3, [r7, #23]

  switch (Channel)
 80013e4:	68bb      	ldr	r3, [r7, #8]
 80013e6:	f5b3 7f80 	cmp.w	r3, #256	; 0x100
 80013ea:	d01f      	beq.n	800142c <LL_TIM_OC_Init+0x58>
 80013ec:	f5b3 7f80 	cmp.w	r3, #256	; 0x100
 80013f0:	d804      	bhi.n	80013fc <LL_TIM_OC_Init+0x28>
 80013f2:	2b01      	cmp	r3, #1
 80013f4:	d00c      	beq.n	8001410 <LL_TIM_OC_Init+0x3c>
 80013f6:	2b10      	cmp	r3, #16
 80013f8:	d011      	beq.n	800141e <LL_TIM_OC_Init+0x4a>
    case LL_TIM_CHANNEL_CH6:
      result = OC6Config(TIMx, TIM_OC_InitStruct);
      break;
#endif /* TIM_CCER_CC5E */
    default:
      break;
 80013fa:	e033      	b.n	8001464 <LL_TIM_OC_Init+0x90>
  switch (Channel)
 80013fc:	f5b3 3f80 	cmp.w	r3, #65536	; 0x10000
 8001400:	d022      	beq.n	8001448 <LL_TIM_OC_Init+0x74>
 8001402:	f5b3 1f80 	cmp.w	r3, #1048576	; 0x100000
 8001406:	d026      	beq.n	8001456 <LL_TIM_OC_Init+0x82>
 8001408:	f5b3 5f80 	cmp.w	r3, #4096	; 0x1000
 800140c:	d015      	beq.n	800143a <LL_TIM_OC_Init+0x66>
      break;
 800140e:	e029      	b.n	8001464 <LL_TIM_OC_Init+0x90>
      result = OC1Config(TIMx, TIM_OC_InitStruct);
 8001410:	6879      	ldr	r1, [r7, #4]
 8001412:	68f8      	ldr	r0, [r7, #12]
 8001414:	f000 f82c 	bl	8001470 <OC1Config>
 8001418:	4603      	mov	r3, r0
 800141a:	75fb      	strb	r3, [r7, #23]
      break;
 800141c:	e022      	b.n	8001464 <LL_TIM_OC_Init+0x90>
      result = OC2Config(TIMx, TIM_OC_InitStruct);
 800141e:	6879      	ldr	r1, [r7, #4]
 8001420:	68f8      	ldr	r0, [r7, #12]
 8001422:	f000 f8a5 	bl	8001570 <OC2Config>
 8001426:	4603      	mov	r3, r0
 8001428:	75fb      	strb	r3, [r7, #23]
      break;
 800142a:	e01b      	b.n	8001464 <LL_TIM_OC_Init+0x90>
      result = OC3Config(TIMx, TIM_OC_InitStruct);
 800142c:	6879      	ldr	r1, [r7, #4]
 800142e:	68f8      	ldr	r0, [r7, #12]
 8001430:	f000 f922 	bl	8001678 <OC3Config>
 8001434:	4603      	mov	r3, r0
 8001436:	75fb      	strb	r3, [r7, #23]
      break;
 8001438:	e014      	b.n	8001464 <LL_TIM_OC_Init+0x90>
      result = OC4Config(TIMx, TIM_OC_InitStruct);
 800143a:	6879      	ldr	r1, [r7, #4]
 800143c:	68f8      	ldr	r0, [r7, #12]
 800143e:	f000 f99f 	bl	8001780 <OC4Config>
 8001442:	4603      	mov	r3, r0
 8001444:	75fb      	strb	r3, [r7, #23]
      break;
 8001446:	e00d      	b.n	8001464 <LL_TIM_OC_Init+0x90>
      result = OC5Config(TIMx, TIM_OC_InitStruct);
 8001448:	6879      	ldr	r1, [r7, #4]
 800144a:	68f8      	ldr	r0, [r7, #12]
 800144c:	f000 fa04 	bl	8001858 <OC5Config>
 8001450:	4603      	mov	r3, r0
 8001452:	75fb      	strb	r3, [r7, #23]
      break;
 8001454:	e006      	b.n	8001464 <LL_TIM_OC_Init+0x90>
      result = OC6Config(TIMx, TIM_OC_InitStruct);
 8001456:	6879      	ldr	r1, [r7, #4]
 8001458:	68f8      	ldr	r0, [r7, #12]
 800145a:	f000 fa5f 	bl	800191c <OC6Config>
 800145e:	4603      	mov	r3, r0
 8001460:	75fb      	strb	r3, [r7, #23]
      break;
 8001462:	bf00      	nop
  }

  return result;
 8001464:	7dfb      	ldrb	r3, [r7, #23]
}
 8001466:	4618      	mov	r0, r3
 8001468:	3718      	adds	r7, #24
 800146a:	46bd      	mov	sp, r7
 800146c:	bd80      	pop	{r7, pc}
	...

08001470 <OC1Config>:
  * @retval An ErrorStatus enumeration value:
  *          - SUCCESS: TIMx registers are de-initialized
  *          - ERROR: not applicable
  */
static ErrorStatus OC1Config(TIM_TypeDef *TIMx, LL_TIM_OC_InitTypeDef *TIM_OCInitStruct)
{
 8001470:	b580      	push	{r7, lr}
 8001472:	b086      	sub	sp, #24
 8001474:	af00      	add	r7, sp, #0
 8001476:	6078      	str	r0, [r7, #4]
 8001478:	6039      	str	r1, [r7, #0]
  uint32_t tmpccmr1 = 0U;
 800147a:	2300      	movs	r3, #0
 800147c:	60fb      	str	r3, [r7, #12]
  uint32_t tmpccer = 0U;
 800147e:	2300      	movs	r3, #0
 8001480:	617b      	str	r3, [r7, #20]
  uint32_t tmpcr2 = 0U;
 8001482:	2300      	movs	r3, #0
 8001484:	613b      	str	r3, [r7, #16]
  assert_param(IS_LL_TIM_OCPOLARITY(TIM_OCInitStruct->OCPolarity));
  assert_param(IS_LL_TIM_OCSTATE(TIM_OCInitStruct->OCNState));
  assert_param(IS_LL_TIM_OCPOLARITY(TIM_OCInitStruct->OCNPolarity));

  /* Disable the Channel 1: Reset the CC1E Bit */
  CLEAR_BIT(TIMx->CCER, TIM_CCER_CC1E);
 8001486:	687b      	ldr	r3, [r7, #4]
 8001488:	6a1b      	ldr	r3, [r3, #32]
 800148a:	f023 0201 	bic.w	r2, r3, #1
 800148e:	687b      	ldr	r3, [r7, #4]
 8001490:	621a      	str	r2, [r3, #32]

  /* Get the TIMx CCER register value */
  tmpccer = LL_TIM_ReadReg(TIMx, CCER);
 8001492:	687b      	ldr	r3, [r7, #4]
 8001494:	6a1b      	ldr	r3, [r3, #32]
 8001496:	617b      	str	r3, [r7, #20]

  /* Get the TIMx CR2 register value */
  tmpcr2 = LL_TIM_ReadReg(TIMx, CR2);
 8001498:	687b      	ldr	r3, [r7, #4]
 800149a:	685b      	ldr	r3, [r3, #4]
 800149c:	613b      	str	r3, [r7, #16]

  /* Get the TIMx CCMR1 register value */
  tmpccmr1 = LL_TIM_ReadReg(TIMx, CCMR1);
 800149e:	687b      	ldr	r3, [r7, #4]
 80014a0:	699b      	ldr	r3, [r3, #24]
 80014a2:	60fb      	str	r3, [r7, #12]

  /* Reset Capture/Compare selection Bits */
  CLEAR_BIT(tmpccmr1, TIM_CCMR1_CC1S);
 80014a4:	68fb      	ldr	r3, [r7, #12]
 80014a6:	f023 0303 	bic.w	r3, r3, #3
 80014aa:	60fb      	str	r3, [r7, #12]

  /* Set the Output Compare Mode */
  MODIFY_REG(tmpccmr1, TIM_CCMR1_OC1M, TIM_OCInitStruct->OCMode);
 80014ac:	68fb      	ldr	r3, [r7, #12]
 80014ae:	f423 3380 	bic.w	r3, r3, #65536	; 0x10000
 80014b2:	f023 0370 	bic.w	r3, r3, #112	; 0x70
 80014b6:	683a      	ldr	r2, [r7, #0]
 80014b8:	6812      	ldr	r2, [r2, #0]
 80014ba:	4313      	orrs	r3, r2
 80014bc:	60fb      	str	r3, [r7, #12]

  /* Set the Output Compare Polarity */
  MODIFY_REG(tmpccer, TIM_CCER_CC1P, TIM_OCInitStruct->OCPolarity);
 80014be:	697b      	ldr	r3, [r7, #20]
 80014c0:	f023 0202 	bic.w	r2, r3, #2
 80014c4:	683b      	ldr	r3, [r7, #0]
 80014c6:	691b      	ldr	r3, [r3, #16]
 80014c8:	4313      	orrs	r3, r2
 80014ca:	617b      	str	r3, [r7, #20]

  /* Set the Output State */
  MODIFY_REG(tmpccer, TIM_CCER_CC1E, TIM_OCInitStruct->OCState);
 80014cc:	697b      	ldr	r3, [r7, #20]
 80014ce:	f023 0201 	bic.w	r2, r3, #1
 80014d2:	683b      	ldr	r3, [r7, #0]
 80014d4:	685b      	ldr	r3, [r3, #4]
 80014d6:	4313      	orrs	r3, r2
 80014d8:	617b      	str	r3, [r7, #20]

  if (IS_TIM_BREAK_INSTANCE(TIMx))
 80014da:	687b      	ldr	r3, [r7, #4]
 80014dc:	4a20      	ldr	r2, [pc, #128]	; (8001560 <OC1Config+0xf0>)
 80014de:	4293      	cmp	r3, r2
 80014e0:	d00b      	beq.n	80014fa <OC1Config+0x8a>
 80014e2:	687b      	ldr	r3, [r7, #4]
 80014e4:	4a1f      	ldr	r2, [pc, #124]	; (8001564 <OC1Config+0xf4>)
 80014e6:	4293      	cmp	r3, r2
 80014e8:	d007      	beq.n	80014fa <OC1Config+0x8a>
 80014ea:	687b      	ldr	r3, [r7, #4]
 80014ec:	4a1e      	ldr	r2, [pc, #120]	; (8001568 <OC1Config+0xf8>)
 80014ee:	4293      	cmp	r3, r2
 80014f0:	d003      	beq.n	80014fa <OC1Config+0x8a>
 80014f2:	687b      	ldr	r3, [r7, #4]
 80014f4:	4a1d      	ldr	r2, [pc, #116]	; (800156c <OC1Config+0xfc>)
 80014f6:	4293      	cmp	r3, r2
 80014f8:	d11e      	bne.n	8001538 <OC1Config+0xc8>
  {
    assert_param(IS_LL_TIM_OCIDLESTATE(TIM_OCInitStruct->OCNIdleState));
    assert_param(IS_LL_TIM_OCIDLESTATE(TIM_OCInitStruct->OCIdleState));

    /* Set the complementary output Polarity */
    MODIFY_REG(tmpccer, TIM_CCER_CC1NP, TIM_OCInitStruct->OCNPolarity << 2U);
 80014fa:	697b      	ldr	r3, [r7, #20]
 80014fc:	f023 0208 	bic.w	r2, r3, #8
 8001500:	683b      	ldr	r3, [r7, #0]
 8001502:	695b      	ldr	r3, [r3, #20]
 8001504:	009b      	lsls	r3, r3, #2
 8001506:	4313      	orrs	r3, r2
 8001508:	617b      	str	r3, [r7, #20]

    /* Set the complementary output State */
    MODIFY_REG(tmpccer, TIM_CCER_CC1NE, TIM_OCInitStruct->OCNState << 2U);
 800150a:	697b      	ldr	r3, [r7, #20]
 800150c:	f023 0204 	bic.w	r2, r3, #4
 8001510:	683b      	ldr	r3, [r7, #0]
 8001512:	689b      	ldr	r3, [r3, #8]
 8001514:	009b      	lsls	r3, r3, #2
 8001516:	4313      	orrs	r3, r2
 8001518:	617b      	str	r3, [r7, #20]

    /* Set the Output Idle state */
    MODIFY_REG(tmpcr2, TIM_CR2_OIS1, TIM_OCInitStruct->OCIdleState);
 800151a:	693b      	ldr	r3, [r7, #16]
 800151c:	f423 7280 	bic.w	r2, r3, #256	; 0x100
 8001520:	683b      	ldr	r3, [r7, #0]
 8001522:	699b      	ldr	r3, [r3, #24]
 8001524:	4313      	orrs	r3, r2
 8001526:	613b      	str	r3, [r7, #16]

    /* Set the complementary output Idle state */
    MODIFY_REG(tmpcr2, TIM_CR2_OIS1N, TIM_OCInitStruct->OCNIdleState << 1U);
 8001528:	693b      	ldr	r3, [r7, #16]
 800152a:	f423 7200 	bic.w	r2, r3, #512	; 0x200
 800152e:	683b      	ldr	r3, [r7, #0]
 8001530:	69db      	ldr	r3, [r3, #28]
 8001532:	005b      	lsls	r3, r3, #1
 8001534:	4313      	orrs	r3, r2
 8001536:	613b      	str	r3, [r7, #16]
  }

  /* Write to TIMx CR2 */
  LL_TIM_WriteReg(TIMx, CR2, tmpcr2);
 8001538:	687b      	ldr	r3, [r7, #4]
 800153a:	693a      	ldr	r2, [r7, #16]
 800153c:	605a      	str	r2, [r3, #4]

  /* Write to TIMx CCMR1 */
  LL_TIM_WriteReg(TIMx, CCMR1, tmpccmr1);
 800153e:	687b      	ldr	r3, [r7, #4]
 8001540:	68fa      	ldr	r2, [r7, #12]
 8001542:	619a      	str	r2, [r3, #24]

  /* Set the Capture Compare Register value */
  LL_TIM_OC_SetCompareCH1(TIMx, TIM_OCInitStruct->CompareValue);
 8001544:	683b      	ldr	r3, [r7, #0]
 8001546:	68db      	ldr	r3, [r3, #12]
 8001548:	4619      	mov	r1, r3
 800154a:	6878      	ldr	r0, [r7, #4]
 800154c:	f7ff fe6a 	bl	8001224 <LL_TIM_OC_SetCompareCH1>

  /* Write to TIMx CCER */
  LL_TIM_WriteReg(TIMx, CCER, tmpccer);
 8001550:	687b      	ldr	r3, [r7, #4]
 8001552:	697a      	ldr	r2, [r7, #20]
 8001554:	621a      	str	r2, [r3, #32]

  return SUCCESS;
 8001556:	2300      	movs	r3, #0
}
 8001558:	4618      	mov	r0, r3
 800155a:	3718      	adds	r7, #24
 800155c:	46bd      	mov	sp, r7
 800155e:	bd80      	pop	{r7, pc}
 8001560:	40012c00 	.word	0x40012c00
 8001564:	40014000 	.word	0x40014000
 8001568:	40014400 	.word	0x40014400
 800156c:	40014800 	.word	0x40014800

08001570 <OC2Config>:
  * @retval An ErrorStatus enumeration value:
  *          - SUCCESS: TIMx registers are de-initialized
  *          - ERROR: not applicable
  */
static ErrorStatus OC2Config(TIM_TypeDef *TIMx, LL_TIM_OC_InitTypeDef *TIM_OCInitStruct)
{
 8001570:	b580      	push	{r7, lr}
 8001572:	b086      	sub	sp, #24
 8001574:	af00      	add	r7, sp, #0
 8001576:	6078      	str	r0, [r7, #4]
 8001578:	6039      	str	r1, [r7, #0]
  uint32_t tmpccmr1 = 0U;
 800157a:	2300      	movs	r3, #0
 800157c:	60fb      	str	r3, [r7, #12]
  uint32_t tmpccer = 0U;
 800157e:	2300      	movs	r3, #0
 8001580:	617b      	str	r3, [r7, #20]
  uint32_t tmpcr2 = 0U;
 8001582:	2300      	movs	r3, #0
 8001584:	613b      	str	r3, [r7, #16]
  assert_param(IS_LL_TIM_OCPOLARITY(TIM_OCInitStruct->OCPolarity));
  assert_param(IS_LL_TIM_OCSTATE(TIM_OCInitStruct->OCNState));
  assert_param(IS_LL_TIM_OCPOLARITY(TIM_OCInitStruct->OCNPolarity));

  /* Disable the Channel 2: Reset the CC2E Bit */
  CLEAR_BIT(TIMx->CCER, TIM_CCER_CC2E);
 8001586:	687b      	ldr	r3, [r7, #4]
 8001588:	6a1b      	ldr	r3, [r3, #32]
 800158a:	f023 0210 	bic.w	r2, r3, #16
 800158e:	687b      	ldr	r3, [r7, #4]
 8001590:	621a      	str	r2, [r3, #32]

  /* Get the TIMx CCER register value */
  tmpccer =  LL_TIM_ReadReg(TIMx, CCER);
 8001592:	687b      	ldr	r3, [r7, #4]
 8001594:	6a1b      	ldr	r3, [r3, #32]
 8001596:	617b      	str	r3, [r7, #20]

  /* Get the TIMx CR2 register value */
  tmpcr2 = LL_TIM_ReadReg(TIMx, CR2);
 8001598:	687b      	ldr	r3, [r7, #4]
 800159a:	685b      	ldr	r3, [r3, #4]
 800159c:	613b      	str	r3, [r7, #16]

  /* Get the TIMx CCMR1 register value */
  tmpccmr1 = LL_TIM_ReadReg(TIMx, CCMR1);
 800159e:	687b      	ldr	r3, [r7, #4]
 80015a0:	699b      	ldr	r3, [r3, #24]
 80015a2:	60fb      	str	r3, [r7, #12]

  /* Reset Capture/Compare selection Bits */
  CLEAR_BIT(tmpccmr1, TIM_CCMR1_CC2S);
 80015a4:	68fb      	ldr	r3, [r7, #12]
 80015a6:	f423 7340 	bic.w	r3, r3, #768	; 0x300
 80015aa:	60fb      	str	r3, [r7, #12]

  /* Select the Output Compare Mode */
  MODIFY_REG(tmpccmr1, TIM_CCMR1_OC2M, TIM_OCInitStruct->OCMode << 8U);
 80015ac:	68fb      	ldr	r3, [r7, #12]
 80015ae:	f023 7380 	bic.w	r3, r3, #16777216	; 0x1000000
 80015b2:	f423 43e0 	bic.w	r3, r3, #28672	; 0x7000
 80015b6:	683a      	ldr	r2, [r7, #0]
 80015b8:	6812      	ldr	r2, [r2, #0]
 80015ba:	0212      	lsls	r2, r2, #8
 80015bc:	4313      	orrs	r3, r2
 80015be:	60fb      	str	r3, [r7, #12]

  /* Set the Output Compare Polarity */
  MODIFY_REG(tmpccer, TIM_CCER_CC2P, TIM_OCInitStruct->OCPolarity << 4U);
 80015c0:	697b      	ldr	r3, [r7, #20]
 80015c2:	f023 0220 	bic.w	r2, r3, #32
 80015c6:	683b      	ldr	r3, [r7, #0]
 80015c8:	691b      	ldr	r3, [r3, #16]
 80015ca:	011b      	lsls	r3, r3, #4
 80015cc:	4313      	orrs	r3, r2
 80015ce:	617b      	str	r3, [r7, #20]

  /* Set the Output State */
  MODIFY_REG(tmpccer, TIM_CCER_CC2E, TIM_OCInitStruct->OCState << 4U);
 80015d0:	697b      	ldr	r3, [r7, #20]
 80015d2:	f023 0210 	bic.w	r2, r3, #16
 80015d6:	683b      	ldr	r3, [r7, #0]
 80015d8:	685b      	ldr	r3, [r3, #4]
 80015da:	011b      	lsls	r3, r3, #4
 80015dc:	4313      	orrs	r3, r2
 80015de:	617b      	str	r3, [r7, #20]

  if (IS_TIM_BREAK_INSTANCE(TIMx))
 80015e0:	687b      	ldr	r3, [r7, #4]
 80015e2:	4a21      	ldr	r2, [pc, #132]	; (8001668 <OC2Config+0xf8>)
 80015e4:	4293      	cmp	r3, r2
 80015e6:	d00b      	beq.n	8001600 <OC2Config+0x90>
 80015e8:	687b      	ldr	r3, [r7, #4]
 80015ea:	4a20      	ldr	r2, [pc, #128]	; (800166c <OC2Config+0xfc>)
 80015ec:	4293      	cmp	r3, r2
 80015ee:	d007      	beq.n	8001600 <OC2Config+0x90>
 80015f0:	687b      	ldr	r3, [r7, #4]
 80015f2:	4a1f      	ldr	r2, [pc, #124]	; (8001670 <OC2Config+0x100>)
 80015f4:	4293      	cmp	r3, r2
 80015f6:	d003      	beq.n	8001600 <OC2Config+0x90>
 80015f8:	687b      	ldr	r3, [r7, #4]
 80015fa:	4a1e      	ldr	r2, [pc, #120]	; (8001674 <OC2Config+0x104>)
 80015fc:	4293      	cmp	r3, r2
 80015fe:	d11f      	bne.n	8001640 <OC2Config+0xd0>
  {
    assert_param(IS_LL_TIM_OCIDLESTATE(TIM_OCInitStruct->OCNIdleState));
    assert_param(IS_LL_TIM_OCIDLESTATE(TIM_OCInitStruct->OCIdleState));

    /* Set the complementary output Polarity */
    MODIFY_REG(tmpccer, TIM_CCER_CC2NP, TIM_OCInitStruct->OCNPolarity << 6U);
 8001600:	697b      	ldr	r3, [r7, #20]
 8001602:	f023 0280 	bic.w	r2, r3, #128	; 0x80
 8001606:	683b      	ldr	r3, [r7, #0]
 8001608:	695b      	ldr	r3, [r3, #20]
 800160a:	019b      	lsls	r3, r3, #6
 800160c:	4313      	orrs	r3, r2
 800160e:	617b      	str	r3, [r7, #20]

    /* Set the complementary output State */
    MODIFY_REG(tmpccer, TIM_CCER_CC2NE, TIM_OCInitStruct->OCNState << 6U);
 8001610:	697b      	ldr	r3, [r7, #20]
 8001612:	f023 0240 	bic.w	r2, r3, #64	; 0x40
 8001616:	683b      	ldr	r3, [r7, #0]
 8001618:	689b      	ldr	r3, [r3, #8]
 800161a:	019b      	lsls	r3, r3, #6
 800161c:	4313      	orrs	r3, r2
 800161e:	617b      	str	r3, [r7, #20]

    /* Set the Output Idle state */
    MODIFY_REG(tmpcr2, TIM_CR2_OIS2, TIM_OCInitStruct->OCIdleState << 2U);
 8001620:	693b      	ldr	r3, [r7, #16]
 8001622:	f423 6280 	bic.w	r2, r3, #1024	; 0x400
 8001626:	683b      	ldr	r3, [r7, #0]
 8001628:	699b      	ldr	r3, [r3, #24]
 800162a:	009b      	lsls	r3, r3, #2
 800162c:	4313      	orrs	r3, r2
 800162e:	613b      	str	r3, [r7, #16]

#if defined(STM32F373xC) || defined(STM32F378xx)
#else
    /* Set the complementary output Idle state */
    MODIFY_REG(tmpcr2, TIM_CR2_OIS2N, TIM_OCInitStruct->OCNIdleState << 3U);
 8001630:	693b      	ldr	r3, [r7, #16]
 8001632:	f423 6200 	bic.w	r2, r3, #2048	; 0x800
 8001636:	683b      	ldr	r3, [r7, #0]
 8001638:	69db      	ldr	r3, [r3, #28]
 800163a:	00db      	lsls	r3, r3, #3
 800163c:	4313      	orrs	r3, r2
 800163e:	613b      	str	r3, [r7, #16]
#endif
  }

  /* Write to TIMx CR2 */
  LL_TIM_WriteReg(TIMx, CR2, tmpcr2);
 8001640:	687b      	ldr	r3, [r7, #4]
 8001642:	693a      	ldr	r2, [r7, #16]
 8001644:	605a      	str	r2, [r3, #4]

  /* Write to TIMx CCMR1 */
  LL_TIM_WriteReg(TIMx, CCMR1, tmpccmr1);
 8001646:	687b      	ldr	r3, [r7, #4]
 8001648:	68fa      	ldr	r2, [r7, #12]
 800164a:	619a      	str	r2, [r3, #24]

  /* Set the Capture Compare Register value */
  LL_TIM_OC_SetCompareCH2(TIMx, TIM_OCInitStruct->CompareValue);
 800164c:	683b      	ldr	r3, [r7, #0]
 800164e:	68db      	ldr	r3, [r3, #12]
 8001650:	4619      	mov	r1, r3
 8001652:	6878      	ldr	r0, [r7, #4]
 8001654:	f7ff fdf4 	bl	8001240 <LL_TIM_OC_SetCompareCH2>

  /* Write to TIMx CCER */
  LL_TIM_WriteReg(TIMx, CCER, tmpccer);
 8001658:	687b      	ldr	r3, [r7, #4]
 800165a:	697a      	ldr	r2, [r7, #20]
 800165c:	621a      	str	r2, [r3, #32]

  return SUCCESS;
 800165e:	2300      	movs	r3, #0
}
 8001660:	4618      	mov	r0, r3
 8001662:	3718      	adds	r7, #24
 8001664:	46bd      	mov	sp, r7
 8001666:	bd80      	pop	{r7, pc}
 8001668:	40012c00 	.word	0x40012c00
 800166c:	40014000 	.word	0x40014000
 8001670:	40014400 	.word	0x40014400
 8001674:	40014800 	.word	0x40014800

08001678 <OC3Config>:
  * @retval An ErrorStatus enumeration value:
  *          - SUCCESS: TIMx registers are de-initialized
  *          - ERROR: not applicable
  */
static ErrorStatus OC3Config(TIM_TypeDef *TIMx, LL_TIM_OC_InitTypeDef *TIM_OCInitStruct)
{
 8001678:	b580      	push	{r7, lr}
 800167a:	b086      	sub	sp, #24
 800167c:	af00      	add	r7, sp, #0
 800167e:	6078      	str	r0, [r7, #4]
 8001680:	6039      	str	r1, [r7, #0]
  uint32_t tmpccmr2 = 0U;
 8001682:	2300      	movs	r3, #0
 8001684:	60fb      	str	r3, [r7, #12]
  uint32_t tmpccer = 0U;
 8001686:	2300      	movs	r3, #0
 8001688:	617b      	str	r3, [r7, #20]
  uint32_t tmpcr2 = 0U;
 800168a:	2300      	movs	r3, #0
 800168c:	613b      	str	r3, [r7, #16]
  assert_param(IS_LL_TIM_OCPOLARITY(TIM_OCInitStruct->OCPolarity));
  assert_param(IS_LL_TIM_OCSTATE(TIM_OCInitStruct->OCNState));
  assert_param(IS_LL_TIM_OCPOLARITY(TIM_OCInitStruct->OCNPolarity));

  /* Disable the Channel 3: Reset the CC3E Bit */
  CLEAR_BIT(TIMx->CCER, TIM_CCER_CC3E);
 800168e:	687b      	ldr	r3, [r7, #4]
 8001690:	6a1b      	ldr	r3, [r3, #32]
 8001692:	f423 7280 	bic.w	r2, r3, #256	; 0x100
 8001696:	687b      	ldr	r3, [r7, #4]
 8001698:	621a      	str	r2, [r3, #32]

  /* Get the TIMx CCER register value */
  tmpccer =  LL_TIM_ReadReg(TIMx, CCER);
 800169a:	687b      	ldr	r3, [r7, #4]
 800169c:	6a1b      	ldr	r3, [r3, #32]
 800169e:	617b      	str	r3, [r7, #20]

  /* Get the TIMx CR2 register value */
  tmpcr2 = LL_TIM_ReadReg(TIMx, CR2);
 80016a0:	687b      	ldr	r3, [r7, #4]
 80016a2:	685b      	ldr	r3, [r3, #4]
 80016a4:	613b      	str	r3, [r7, #16]

  /* Get the TIMx CCMR2 register value */
  tmpccmr2 = LL_TIM_ReadReg(TIMx, CCMR2);
 80016a6:	687b      	ldr	r3, [r7, #4]
 80016a8:	69db      	ldr	r3, [r3, #28]
 80016aa:	60fb      	str	r3, [r7, #12]

  /* Reset Capture/Compare selection Bits */
  CLEAR_BIT(tmpccmr2, TIM_CCMR2_CC3S);
 80016ac:	68fb      	ldr	r3, [r7, #12]
 80016ae:	f023 0303 	bic.w	r3, r3, #3
 80016b2:	60fb      	str	r3, [r7, #12]

  /* Select the Output Compare Mode */
  MODIFY_REG(tmpccmr2, TIM_CCMR2_OC3M, TIM_OCInitStruct->OCMode);
 80016b4:	68fb      	ldr	r3, [r7, #12]
 80016b6:	f423 3380 	bic.w	r3, r3, #65536	; 0x10000
 80016ba:	f023 0370 	bic.w	r3, r3, #112	; 0x70
 80016be:	683a      	ldr	r2, [r7, #0]
 80016c0:	6812      	ldr	r2, [r2, #0]
 80016c2:	4313      	orrs	r3, r2
 80016c4:	60fb      	str	r3, [r7, #12]

  /* Set the Output Compare Polarity */
  MODIFY_REG(tmpccer, TIM_CCER_CC3P, TIM_OCInitStruct->OCPolarity << 8U);
 80016c6:	697b      	ldr	r3, [r7, #20]
 80016c8:	f423 7200 	bic.w	r2, r3, #512	; 0x200
 80016cc:	683b      	ldr	r3, [r7, #0]
 80016ce:	691b      	ldr	r3, [r3, #16]
 80016d0:	021b      	lsls	r3, r3, #8
 80016d2:	4313      	orrs	r3, r2
 80016d4:	617b      	str	r3, [r7, #20]

  /* Set the Output State */
  MODIFY_REG(tmpccer, TIM_CCER_CC3E, TIM_OCInitStruct->OCState << 8U);
 80016d6:	697b      	ldr	r3, [r7, #20]
 80016d8:	f423 7280 	bic.w	r2, r3, #256	; 0x100
 80016dc:	683b      	ldr	r3, [r7, #0]
 80016de:	685b      	ldr	r3, [r3, #4]
 80016e0:	021b      	lsls	r3, r3, #8
 80016e2:	4313      	orrs	r3, r2
 80016e4:	617b      	str	r3, [r7, #20]

  if (IS_TIM_BREAK_INSTANCE(TIMx))
 80016e6:	687b      	ldr	r3, [r7, #4]
 80016e8:	4a21      	ldr	r2, [pc, #132]	; (8001770 <OC3Config+0xf8>)
 80016ea:	4293      	cmp	r3, r2
 80016ec:	d00b      	beq.n	8001706 <OC3Config+0x8e>
 80016ee:	687b      	ldr	r3, [r7, #4]
 80016f0:	4a20      	ldr	r2, [pc, #128]	; (8001774 <OC3Config+0xfc>)
 80016f2:	4293      	cmp	r3, r2
 80016f4:	d007      	beq.n	8001706 <OC3Config+0x8e>
 80016f6:	687b      	ldr	r3, [r7, #4]
 80016f8:	4a1f      	ldr	r2, [pc, #124]	; (8001778 <OC3Config+0x100>)
 80016fa:	4293      	cmp	r3, r2
 80016fc:	d003      	beq.n	8001706 <OC3Config+0x8e>
 80016fe:	687b      	ldr	r3, [r7, #4]
 8001700:	4a1e      	ldr	r2, [pc, #120]	; (800177c <OC3Config+0x104>)
 8001702:	4293      	cmp	r3, r2
 8001704:	d11f      	bne.n	8001746 <OC3Config+0xce>
  {
    assert_param(IS_LL_TIM_OCIDLESTATE(TIM_OCInitStruct->OCNIdleState));
    assert_param(IS_LL_TIM_OCIDLESTATE(TIM_OCInitStruct->OCIdleState));

    /* Set the complementary output Polarity */
    MODIFY_REG(tmpccer, TIM_CCER_CC3NP, TIM_OCInitStruct->OCNPolarity << 10U);
 8001706:	697b      	ldr	r3, [r7, #20]
 8001708:	f423 6200 	bic.w	r2, r3, #2048	; 0x800
 800170c:	683b      	ldr	r3, [r7, #0]
 800170e:	695b      	ldr	r3, [r3, #20]
 8001710:	029b      	lsls	r3, r3, #10
 8001712:	4313      	orrs	r3, r2
 8001714:	617b      	str	r3, [r7, #20]

    /* Set the complementary output State */
    MODIFY_REG(tmpccer, TIM_CCER_CC3NE, TIM_OCInitStruct->OCNState << 10U);
 8001716:	697b      	ldr	r3, [r7, #20]
 8001718:	f423 6280 	bic.w	r2, r3, #1024	; 0x400
 800171c:	683b      	ldr	r3, [r7, #0]
 800171e:	689b      	ldr	r3, [r3, #8]
 8001720:	029b      	lsls	r3, r3, #10
 8001722:	4313      	orrs	r3, r2
 8001724:	617b      	str	r3, [r7, #20]

#if defined(STM32F373xC) || defined(STM32F378xx)
#else
    /* Set the Output Idle state */
    MODIFY_REG(tmpcr2, TIM_CR2_OIS3, TIM_OCInitStruct->OCIdleState << 4U);
 8001726:	693b      	ldr	r3, [r7, #16]
 8001728:	f423 5280 	bic.w	r2, r3, #4096	; 0x1000
 800172c:	683b      	ldr	r3, [r7, #0]
 800172e:	699b      	ldr	r3, [r3, #24]
 8001730:	011b      	lsls	r3, r3, #4
 8001732:	4313      	orrs	r3, r2
 8001734:	613b      	str	r3, [r7, #16]

    /* Set the complementary output Idle state */
    MODIFY_REG(tmpcr2, TIM_CR2_OIS3N, TIM_OCInitStruct->OCNIdleState << 5U);
 8001736:	693b      	ldr	r3, [r7, #16]
 8001738:	f423 5200 	bic.w	r2, r3, #8192	; 0x2000
 800173c:	683b      	ldr	r3, [r7, #0]
 800173e:	69db      	ldr	r3, [r3, #28]
 8001740:	015b      	lsls	r3, r3, #5
 8001742:	4313      	orrs	r3, r2
 8001744:	613b      	str	r3, [r7, #16]
#endif
  }

  /* Write to TIMx CR2 */
  LL_TIM_WriteReg(TIMx, CR2, tmpcr2);
 8001746:	687b      	ldr	r3, [r7, #4]
 8001748:	693a      	ldr	r2, [r7, #16]
 800174a:	605a      	str	r2, [r3, #4]

  /* Write to TIMx CCMR2 */
  LL_TIM_WriteReg(TIMx, CCMR2, tmpccmr2);
 800174c:	687b      	ldr	r3, [r7, #4]
 800174e:	68fa      	ldr	r2, [r7, #12]
 8001750:	61da      	str	r2, [r3, #28]

  /* Set the Capture Compare Register value */
  LL_TIM_OC_SetCompareCH3(TIMx, TIM_OCInitStruct->CompareValue);
 8001752:	683b      	ldr	r3, [r7, #0]
 8001754:	68db      	ldr	r3, [r3, #12]
 8001756:	4619      	mov	r1, r3
 8001758:	6878      	ldr	r0, [r7, #4]
 800175a:	f7ff fd7f 	bl	800125c <LL_TIM_OC_SetCompareCH3>

  /* Write to TIMx CCER */
  LL_TIM_WriteReg(TIMx, CCER, tmpccer);
 800175e:	687b      	ldr	r3, [r7, #4]
 8001760:	697a      	ldr	r2, [r7, #20]
 8001762:	621a      	str	r2, [r3, #32]

  return SUCCESS;
 8001764:	2300      	movs	r3, #0
}
 8001766:	4618      	mov	r0, r3
 8001768:	3718      	adds	r7, #24
 800176a:	46bd      	mov	sp, r7
 800176c:	bd80      	pop	{r7, pc}
 800176e:	bf00      	nop
 8001770:	40012c00 	.word	0x40012c00
 8001774:	40014000 	.word	0x40014000
 8001778:	40014400 	.word	0x40014400
 800177c:	40014800 	.word	0x40014800

08001780 <OC4Config>:
  * @retval An ErrorStatus enumeration value:
  *          - SUCCESS: TIMx registers are de-initialized
  *          - ERROR: not applicable
  */
static ErrorStatus OC4Config(TIM_TypeDef *TIMx, LL_TIM_OC_InitTypeDef *TIM_OCInitStruct)
{
 8001780:	b580      	push	{r7, lr}
 8001782:	b086      	sub	sp, #24
 8001784:	af00      	add	r7, sp, #0
 8001786:	6078      	str	r0, [r7, #4]
 8001788:	6039      	str	r1, [r7, #0]
  uint32_t tmpccmr2 = 0U;
 800178a:	2300      	movs	r3, #0
 800178c:	613b      	str	r3, [r7, #16]
  uint32_t tmpccer = 0U;
 800178e:	2300      	movs	r3, #0
 8001790:	60fb      	str	r3, [r7, #12]
  uint32_t tmpcr2 = 0U;
 8001792:	2300      	movs	r3, #0
 8001794:	617b      	str	r3, [r7, #20]
  assert_param(IS_LL_TIM_OCPOLARITY(TIM_OCInitStruct->OCPolarity));
  assert_param(IS_LL_TIM_OCPOLARITY(TIM_OCInitStruct->OCNPolarity));
  assert_param(IS_LL_TIM_OCSTATE(TIM_OCInitStruct->OCNState));

  /* Disable the Channel 4: Reset the CC4E Bit */
  CLEAR_BIT(TIMx->CCER, TIM_CCER_CC4E);
 8001796:	687b      	ldr	r3, [r7, #4]
 8001798:	6a1b      	ldr	r3, [r3, #32]
 800179a:	f423 5280 	bic.w	r2, r3, #4096	; 0x1000
 800179e:	687b      	ldr	r3, [r7, #4]
 80017a0:	621a      	str	r2, [r3, #32]

  /* Get the TIMx CCER register value */
  tmpccer = LL_TIM_ReadReg(TIMx, CCER);
 80017a2:	687b      	ldr	r3, [r7, #4]
 80017a4:	6a1b      	ldr	r3, [r3, #32]
 80017a6:	60fb      	str	r3, [r7, #12]

  /* Get the TIMx CR2 register value */
  tmpcr2 =  LL_TIM_ReadReg(TIMx, CR2);
 80017a8:	687b      	ldr	r3, [r7, #4]
 80017aa:	685b      	ldr	r3, [r3, #4]
 80017ac:	617b      	str	r3, [r7, #20]

  /* Get the TIMx CCMR2 register value */
  tmpccmr2 = LL_TIM_ReadReg(TIMx, CCMR2);
 80017ae:	687b      	ldr	r3, [r7, #4]
 80017b0:	69db      	ldr	r3, [r3, #28]
 80017b2:	613b      	str	r3, [r7, #16]

  /* Reset Capture/Compare selection Bits */
  CLEAR_BIT(tmpccmr2, TIM_CCMR2_CC4S);
 80017b4:	693b      	ldr	r3, [r7, #16]
 80017b6:	f423 7340 	bic.w	r3, r3, #768	; 0x300
 80017ba:	613b      	str	r3, [r7, #16]

  /* Select the Output Compare Mode */
  MODIFY_REG(tmpccmr2, TIM_CCMR2_OC4M, TIM_OCInitStruct->OCMode << 8U);
 80017bc:	693b      	ldr	r3, [r7, #16]
 80017be:	f023 7380 	bic.w	r3, r3, #16777216	; 0x1000000
 80017c2:	f423 43e0 	bic.w	r3, r3, #28672	; 0x7000
 80017c6:	683a      	ldr	r2, [r7, #0]
 80017c8:	6812      	ldr	r2, [r2, #0]
 80017ca:	0212      	lsls	r2, r2, #8
 80017cc:	4313      	orrs	r3, r2
 80017ce:	613b      	str	r3, [r7, #16]

  /* Set the Output Compare Polarity */
  MODIFY_REG(tmpccer, TIM_CCER_CC4P, TIM_OCInitStruct->OCPolarity << 12U);
 80017d0:	68fb      	ldr	r3, [r7, #12]
 80017d2:	f423 5200 	bic.w	r2, r3, #8192	; 0x2000
 80017d6:	683b      	ldr	r3, [r7, #0]
 80017d8:	691b      	ldr	r3, [r3, #16]
 80017da:	031b      	lsls	r3, r3, #12
 80017dc:	4313      	orrs	r3, r2
 80017de:	60fb      	str	r3, [r7, #12]

  /* Set the Output State */
  MODIFY_REG(tmpccer, TIM_CCER_CC4E, TIM_OCInitStruct->OCState << 12U);
 80017e0:	68fb      	ldr	r3, [r7, #12]
 80017e2:	f423 5280 	bic.w	r2, r3, #4096	; 0x1000
 80017e6:	683b      	ldr	r3, [r7, #0]
 80017e8:	685b      	ldr	r3, [r3, #4]
 80017ea:	031b      	lsls	r3, r3, #12
 80017ec:	4313      	orrs	r3, r2
 80017ee:	60fb      	str	r3, [r7, #12]

  if (IS_TIM_BREAK_INSTANCE(TIMx))
 80017f0:	687b      	ldr	r3, [r7, #4]
 80017f2:	4a15      	ldr	r2, [pc, #84]	; (8001848 <OC4Config+0xc8>)
 80017f4:	4293      	cmp	r3, r2
 80017f6:	d00b      	beq.n	8001810 <OC4Config+0x90>
 80017f8:	687b      	ldr	r3, [r7, #4]
 80017fa:	4a14      	ldr	r2, [pc, #80]	; (800184c <OC4Config+0xcc>)
 80017fc:	4293      	cmp	r3, r2
 80017fe:	d007      	beq.n	8001810 <OC4Config+0x90>
 8001800:	687b      	ldr	r3, [r7, #4]
 8001802:	4a13      	ldr	r2, [pc, #76]	; (8001850 <OC4Config+0xd0>)
 8001804:	4293      	cmp	r3, r2
 8001806:	d003      	beq.n	8001810 <OC4Config+0x90>
 8001808:	687b      	ldr	r3, [r7, #4]
 800180a:	4a12      	ldr	r2, [pc, #72]	; (8001854 <OC4Config+0xd4>)
 800180c:	4293      	cmp	r3, r2
 800180e:	d107      	bne.n	8001820 <OC4Config+0xa0>
    assert_param(IS_LL_TIM_OCIDLESTATE(TIM_OCInitStruct->OCIdleState));

#if defined(STM32F373xC) || defined(STM32F378xx)
#else
    /* Set the Output Idle state */
    MODIFY_REG(tmpcr2, TIM_CR2_OIS4, TIM_OCInitStruct->OCIdleState << 6U);
 8001810:	697b      	ldr	r3, [r7, #20]
 8001812:	f423 4280 	bic.w	r2, r3, #16384	; 0x4000
 8001816:	683b      	ldr	r3, [r7, #0]
 8001818:	699b      	ldr	r3, [r3, #24]
 800181a:	019b      	lsls	r3, r3, #6
 800181c:	4313      	orrs	r3, r2
 800181e:	617b      	str	r3, [r7, #20]
#endif
  }

  /* Write to TIMx CR2 */
  LL_TIM_WriteReg(TIMx, CR2, tmpcr2);
 8001820:	687b      	ldr	r3, [r7, #4]
 8001822:	697a      	ldr	r2, [r7, #20]
 8001824:	605a      	str	r2, [r3, #4]

  /* Write to TIMx CCMR2 */
  LL_TIM_WriteReg(TIMx, CCMR2, tmpccmr2);
 8001826:	687b      	ldr	r3, [r7, #4]
 8001828:	693a      	ldr	r2, [r7, #16]
 800182a:	61da      	str	r2, [r3, #28]

  /* Set the Capture Compare Register value */
  LL_TIM_OC_SetCompareCH4(TIMx, TIM_OCInitStruct->CompareValue);
 800182c:	683b      	ldr	r3, [r7, #0]
 800182e:	68db      	ldr	r3, [r3, #12]
 8001830:	4619      	mov	r1, r3
 8001832:	6878      	ldr	r0, [r7, #4]
 8001834:	f7ff fd20 	bl	8001278 <LL_TIM_OC_SetCompareCH4>

  /* Write to TIMx CCER */
  LL_TIM_WriteReg(TIMx, CCER, tmpccer);
 8001838:	687b      	ldr	r3, [r7, #4]
 800183a:	68fa      	ldr	r2, [r7, #12]
 800183c:	621a      	str	r2, [r3, #32]

  return SUCCESS;
 800183e:	2300      	movs	r3, #0
}
 8001840:	4618      	mov	r0, r3
 8001842:	3718      	adds	r7, #24
 8001844:	46bd      	mov	sp, r7
 8001846:	bd80      	pop	{r7, pc}
 8001848:	40012c00 	.word	0x40012c00
 800184c:	40014000 	.word	0x40014000
 8001850:	40014400 	.word	0x40014400
 8001854:	40014800 	.word	0x40014800

08001858 <OC5Config>:
  * @retval An ErrorStatus enumeration value:
  *          - SUCCESS: TIMx registers are de-initialized
  *          - ERROR: not applicable
  */
static ErrorStatus OC5Config(TIM_TypeDef *TIMx, LL_TIM_OC_InitTypeDef *TIM_OCInitStruct)
{
 8001858:	b580      	push	{r7, lr}
 800185a:	b084      	sub	sp, #16
 800185c:	af00      	add	r7, sp, #0
 800185e:	6078      	str	r0, [r7, #4]
 8001860:	6039      	str	r1, [r7, #0]
  uint32_t tmpccmr3 = 0U;
 8001862:	2300      	movs	r3, #0
 8001864:	60fb      	str	r3, [r7, #12]
  uint32_t tmpccer = 0U;
 8001866:	2300      	movs	r3, #0
 8001868:	60bb      	str	r3, [r7, #8]
  assert_param(IS_LL_TIM_OCPOLARITY(TIM_OCInitStruct->OCPolarity));
  assert_param(IS_LL_TIM_OCPOLARITY(TIM_OCInitStruct->OCNPolarity));
  assert_param(IS_LL_TIM_OCSTATE(TIM_OCInitStruct->OCNState));

  /* Disable the Channel 5: Reset the CC5E Bit */
  CLEAR_BIT(TIMx->CCER, TIM_CCER_CC5E);
 800186a:	687b      	ldr	r3, [r7, #4]
 800186c:	6a1b      	ldr	r3, [r3, #32]
 800186e:	f423 3280 	bic.w	r2, r3, #65536	; 0x10000
 8001872:	687b      	ldr	r3, [r7, #4]
 8001874:	621a      	str	r2, [r3, #32]

  /* Get the TIMx CCER register value */
  tmpccer = LL_TIM_ReadReg(TIMx, CCER);
 8001876:	687b      	ldr	r3, [r7, #4]
 8001878:	6a1b      	ldr	r3, [r3, #32]
 800187a:	60bb      	str	r3, [r7, #8]

  /* Get the TIMx CCMR3 register value */
  tmpccmr3 = LL_TIM_ReadReg(TIMx, CCMR3);
 800187c:	687b      	ldr	r3, [r7, #4]
 800187e:	6d5b      	ldr	r3, [r3, #84]	; 0x54
 8001880:	60fb      	str	r3, [r7, #12]

  /* Select the Output Compare Mode */
  MODIFY_REG(tmpccmr3, TIM_CCMR3_OC5M, TIM_OCInitStruct->OCMode);
 8001882:	68fb      	ldr	r3, [r7, #12]
 8001884:	f423 3380 	bic.w	r3, r3, #65536	; 0x10000
 8001888:	f023 0370 	bic.w	r3, r3, #112	; 0x70
 800188c:	683a      	ldr	r2, [r7, #0]
 800188e:	6812      	ldr	r2, [r2, #0]
 8001890:	4313      	orrs	r3, r2
 8001892:	60fb      	str	r3, [r7, #12]

  /* Set the Output Compare Polarity */
  MODIFY_REG(tmpccer, TIM_CCER_CC5P, TIM_OCInitStruct->OCPolarity << 16U);
 8001894:	68bb      	ldr	r3, [r7, #8]
 8001896:	f423 3200 	bic.w	r2, r3, #131072	; 0x20000
 800189a:	683b      	ldr	r3, [r7, #0]
 800189c:	691b      	ldr	r3, [r3, #16]
 800189e:	041b      	lsls	r3, r3, #16
 80018a0:	4313      	orrs	r3, r2
 80018a2:	60bb      	str	r3, [r7, #8]

  /* Set the Output State */
  MODIFY_REG(tmpccer, TIM_CCER_CC5E, TIM_OCInitStruct->OCState << 16U);
 80018a4:	68bb      	ldr	r3, [r7, #8]
 80018a6:	f423 3280 	bic.w	r2, r3, #65536	; 0x10000
 80018aa:	683b      	ldr	r3, [r7, #0]
 80018ac:	685b      	ldr	r3, [r3, #4]
 80018ae:	041b      	lsls	r3, r3, #16
 80018b0:	4313      	orrs	r3, r2
 80018b2:	60bb      	str	r3, [r7, #8]

  if (IS_TIM_BREAK_INSTANCE(TIMx))
 80018b4:	687b      	ldr	r3, [r7, #4]
 80018b6:	4a15      	ldr	r2, [pc, #84]	; (800190c <OC5Config+0xb4>)
 80018b8:	4293      	cmp	r3, r2
 80018ba:	d00b      	beq.n	80018d4 <OC5Config+0x7c>
 80018bc:	687b      	ldr	r3, [r7, #4]
 80018be:	4a14      	ldr	r2, [pc, #80]	; (8001910 <OC5Config+0xb8>)
 80018c0:	4293      	cmp	r3, r2
 80018c2:	d007      	beq.n	80018d4 <OC5Config+0x7c>
 80018c4:	687b      	ldr	r3, [r7, #4]
 80018c6:	4a13      	ldr	r2, [pc, #76]	; (8001914 <OC5Config+0xbc>)
 80018c8:	4293      	cmp	r3, r2
 80018ca:	d003      	beq.n	80018d4 <OC5Config+0x7c>
 80018cc:	687b      	ldr	r3, [r7, #4]
 80018ce:	4a12      	ldr	r2, [pc, #72]	; (8001918 <OC5Config+0xc0>)
 80018d0:	4293      	cmp	r3, r2
 80018d2:	d109      	bne.n	80018e8 <OC5Config+0x90>
  {
    assert_param(IS_LL_TIM_OCIDLESTATE(TIM_OCInitStruct->OCNIdleState));
    assert_param(IS_LL_TIM_OCIDLESTATE(TIM_OCInitStruct->OCIdleState));

    /* Set the Output Idle state */
    MODIFY_REG(TIMx->CR2, TIM_CR2_OIS5, TIM_OCInitStruct->OCIdleState << 8U);
 80018d4:	687b      	ldr	r3, [r7, #4]
 80018d6:	685b      	ldr	r3, [r3, #4]
 80018d8:	f423 3280 	bic.w	r2, r3, #65536	; 0x10000
 80018dc:	683b      	ldr	r3, [r7, #0]
 80018de:	699b      	ldr	r3, [r3, #24]
 80018e0:	021b      	lsls	r3, r3, #8
 80018e2:	431a      	orrs	r2, r3
 80018e4:	687b      	ldr	r3, [r7, #4]
 80018e6:	605a      	str	r2, [r3, #4]

  }

  /* Write to TIMx CCMR3 */
  LL_TIM_WriteReg(TIMx, CCMR3, tmpccmr3);
 80018e8:	687b      	ldr	r3, [r7, #4]
 80018ea:	68fa      	ldr	r2, [r7, #12]
 80018ec:	655a      	str	r2, [r3, #84]	; 0x54

  /* Set the Capture Compare Register value */
  LL_TIM_OC_SetCompareCH5(TIMx, TIM_OCInitStruct->CompareValue);
 80018ee:	683b      	ldr	r3, [r7, #0]
 80018f0:	68db      	ldr	r3, [r3, #12]
 80018f2:	4619      	mov	r1, r3
 80018f4:	6878      	ldr	r0, [r7, #4]
 80018f6:	f7ff fccd 	bl	8001294 <LL_TIM_OC_SetCompareCH5>

  /* Write to TIMx CCER */
  LL_TIM_WriteReg(TIMx, CCER, tmpccer);
 80018fa:	687b      	ldr	r3, [r7, #4]
 80018fc:	68ba      	ldr	r2, [r7, #8]
 80018fe:	621a      	str	r2, [r3, #32]

  return SUCCESS;
 8001900:	2300      	movs	r3, #0
}
 8001902:	4618      	mov	r0, r3
 8001904:	3710      	adds	r7, #16
 8001906:	46bd      	mov	sp, r7
 8001908:	bd80      	pop	{r7, pc}
 800190a:	bf00      	nop
 800190c:	40012c00 	.word	0x40012c00
 8001910:	40014000 	.word	0x40014000
 8001914:	40014400 	.word	0x40014400
 8001918:	40014800 	.word	0x40014800

0800191c <OC6Config>:
  * @retval An ErrorStatus enumeration value:
  *          - SUCCESS: TIMx registers are de-initialized
  *          - ERROR: not applicable
  */
static ErrorStatus OC6Config(TIM_TypeDef *TIMx, LL_TIM_OC_InitTypeDef *TIM_OCInitStruct)
{
 800191c:	b580      	push	{r7, lr}
 800191e:	b084      	sub	sp, #16
 8001920:	af00      	add	r7, sp, #0
 8001922:	6078      	str	r0, [r7, #4]
 8001924:	6039      	str	r1, [r7, #0]
  uint32_t tmpccmr3 = 0U;
 8001926:	2300      	movs	r3, #0
 8001928:	60fb      	str	r3, [r7, #12]
  uint32_t tmpccer = 0U;
 800192a:	2300      	movs	r3, #0
 800192c:	60bb      	str	r3, [r7, #8]
  assert_param(IS_LL_TIM_OCPOLARITY(TIM_OCInitStruct->OCPolarity));
  assert_param(IS_LL_TIM_OCPOLARITY(TIM_OCInitStruct->OCNPolarity));
  assert_param(IS_LL_TIM_OCSTATE(TIM_OCInitStruct->OCNState));

  /* Disable the Channel 5: Reset the CC6E Bit */
  CLEAR_BIT(TIMx->CCER, TIM_CCER_CC6E);
 800192e:	687b      	ldr	r3, [r7, #4]
 8001930:	6a1b      	ldr	r3, [r3, #32]
 8001932:	f423 1280 	bic.w	r2, r3, #1048576	; 0x100000
 8001936:	687b      	ldr	r3, [r7, #4]
 8001938:	621a      	str	r2, [r3, #32]

  /* Get the TIMx CCER register value */
  tmpccer = LL_TIM_ReadReg(TIMx, CCER);
 800193a:	687b      	ldr	r3, [r7, #4]
 800193c:	6a1b      	ldr	r3, [r3, #32]
 800193e:	60bb      	str	r3, [r7, #8]

  /* Get the TIMx CCMR3 register value */
  tmpccmr3 = LL_TIM_ReadReg(TIMx, CCMR3);
 8001940:	687b      	ldr	r3, [r7, #4]
 8001942:	6d5b      	ldr	r3, [r3, #84]	; 0x54
 8001944:	60fb      	str	r3, [r7, #12]

  /* Select the Output Compare Mode */
  MODIFY_REG(tmpccmr3, TIM_CCMR3_OC6M, TIM_OCInitStruct->OCMode << 8U);
 8001946:	68fb      	ldr	r3, [r7, #12]
 8001948:	f023 7380 	bic.w	r3, r3, #16777216	; 0x1000000
 800194c:	f423 43e0 	bic.w	r3, r3, #28672	; 0x7000
 8001950:	683a      	ldr	r2, [r7, #0]
 8001952:	6812      	ldr	r2, [r2, #0]
 8001954:	0212      	lsls	r2, r2, #8
 8001956:	4313      	orrs	r3, r2
 8001958:	60fb      	str	r3, [r7, #12]

  /* Set the Output Compare Polarity */
  MODIFY_REG(tmpccer, TIM_CCER_CC6P, TIM_OCInitStruct->OCPolarity << 20U);
 800195a:	68bb      	ldr	r3, [r7, #8]
 800195c:	f423 1200 	bic.w	r2, r3, #2097152	; 0x200000
 8001960:	683b      	ldr	r3, [r7, #0]
 8001962:	691b      	ldr	r3, [r3, #16]
 8001964:	051b      	lsls	r3, r3, #20
 8001966:	4313      	orrs	r3, r2
 8001968:	60bb      	str	r3, [r7, #8]

  /* Set the Output State */
  MODIFY_REG(tmpccer, TIM_CCER_CC6E, TIM_OCInitStruct->OCState << 20U);
 800196a:	68bb      	ldr	r3, [r7, #8]
 800196c:	f423 1280 	bic.w	r2, r3, #1048576	; 0x100000
 8001970:	683b      	ldr	r3, [r7, #0]
 8001972:	685b      	ldr	r3, [r3, #4]
 8001974:	051b      	lsls	r3, r3, #20
 8001976:	4313      	orrs	r3, r2
 8001978:	60bb      	str	r3, [r7, #8]

  if (IS_TIM_BREAK_INSTANCE(TIMx))
 800197a:	687b      	ldr	r3, [r7, #4]
 800197c:	4a14      	ldr	r2, [pc, #80]	; (80019d0 <OC6Config+0xb4>)
 800197e:	4293      	cmp	r3, r2
 8001980:	d00b      	beq.n	800199a <OC6Config+0x7e>
 8001982:	687b      	ldr	r3, [r7, #4]
 8001984:	4a13      	ldr	r2, [pc, #76]	; (80019d4 <OC6Config+0xb8>)
 8001986:	4293      	cmp	r3, r2
 8001988:	d007      	beq.n	800199a <OC6Config+0x7e>
 800198a:	687b      	ldr	r3, [r7, #4]
 800198c:	4a12      	ldr	r2, [pc, #72]	; (80019d8 <OC6Config+0xbc>)
 800198e:	4293      	cmp	r3, r2
 8001990:	d003      	beq.n	800199a <OC6Config+0x7e>
 8001992:	687b      	ldr	r3, [r7, #4]
 8001994:	4a11      	ldr	r2, [pc, #68]	; (80019dc <OC6Config+0xc0>)
 8001996:	4293      	cmp	r3, r2
 8001998:	d109      	bne.n	80019ae <OC6Config+0x92>
  {
    assert_param(IS_LL_TIM_OCIDLESTATE(TIM_OCInitStruct->OCNIdleState));
    assert_param(IS_LL_TIM_OCIDLESTATE(TIM_OCInitStruct->OCIdleState));

    /* Set the Output Idle state */
    MODIFY_REG(TIMx->CR2, TIM_CR2_OIS6, TIM_OCInitStruct->OCIdleState << 10U);
 800199a:	687b      	ldr	r3, [r7, #4]
 800199c:	685b      	ldr	r3, [r3, #4]
 800199e:	f423 2280 	bic.w	r2, r3, #262144	; 0x40000
 80019a2:	683b      	ldr	r3, [r7, #0]
 80019a4:	699b      	ldr	r3, [r3, #24]
 80019a6:	029b      	lsls	r3, r3, #10
 80019a8:	431a      	orrs	r2, r3
 80019aa:	687b      	ldr	r3, [r7, #4]
 80019ac:	605a      	str	r2, [r3, #4]
  }

  /* Write to TIMx CCMR3 */
  LL_TIM_WriteReg(TIMx, CCMR3, tmpccmr3);
 80019ae:	687b      	ldr	r3, [r7, #4]
 80019b0:	68fa      	ldr	r2, [r7, #12]
 80019b2:	655a      	str	r2, [r3, #84]	; 0x54

  /* Set the Capture Compare Register value */
  LL_TIM_OC_SetCompareCH6(TIMx, TIM_OCInitStruct->CompareValue);
 80019b4:	683b      	ldr	r3, [r7, #0]
 80019b6:	68db      	ldr	r3, [r3, #12]
 80019b8:	4619      	mov	r1, r3
 80019ba:	6878      	ldr	r0, [r7, #4]
 80019bc:	f7ff fc78 	bl	80012b0 <LL_TIM_OC_SetCompareCH6>

  /* Write to TIMx CCER */
  LL_TIM_WriteReg(TIMx, CCER, tmpccer);
 80019c0:	687b      	ldr	r3, [r7, #4]
 80019c2:	68ba      	ldr	r2, [r7, #8]
 80019c4:	621a      	str	r2, [r3, #32]

  return SUCCESS;
 80019c6:	2300      	movs	r3, #0
}
 80019c8:	4618      	mov	r0, r3
 80019ca:	3710      	adds	r7, #16
 80019cc:	46bd      	mov	sp, r7
 80019ce:	bd80      	pop	{r7, pc}
 80019d0:	40012c00 	.word	0x40012c00
 80019d4:	40014000 	.word	0x40014000
 80019d8:	40014400 	.word	0x40014400
 80019dc:	40014800 	.word	0x40014800

080019e0 <LL_USART_IsEnabled>:
  * @rmtoll CR1          UE            LL_USART_IsEnabled
  * @param  USARTx USART Instance
  * @retval State of bit (1 or 0).
  */
__STATIC_INLINE uint32_t LL_USART_IsEnabled(USART_TypeDef *USARTx)
{
 80019e0:	b480      	push	{r7}
 80019e2:	b083      	sub	sp, #12
 80019e4:	af00      	add	r7, sp, #0
 80019e6:	6078      	str	r0, [r7, #4]
  return (READ_BIT(USARTx->CR1, USART_CR1_UE) == (USART_CR1_UE));
 80019e8:	687b      	ldr	r3, [r7, #4]
 80019ea:	681b      	ldr	r3, [r3, #0]
 80019ec:	f003 0301 	and.w	r3, r3, #1
 80019f0:	2b01      	cmp	r3, #1
 80019f2:	bf0c      	ite	eq
 80019f4:	2301      	moveq	r3, #1
 80019f6:	2300      	movne	r3, #0
 80019f8:	b2db      	uxtb	r3, r3
}
 80019fa:	4618      	mov	r0, r3
 80019fc:	370c      	adds	r7, #12
 80019fe:	46bd      	mov	sp, r7
 8001a00:	f85d 7b04 	ldr.w	r7, [sp], #4
 8001a04:	4770      	bx	lr

08001a06 <LL_USART_SetStopBitsLength>:
  *         @arg @ref LL_USART_STOPBITS_1_5
  *         @arg @ref LL_USART_STOPBITS_2
  * @retval None
  */
__STATIC_INLINE void LL_USART_SetStopBitsLength(USART_TypeDef *USARTx, uint32_t StopBits)
{
 8001a06:	b480      	push	{r7}
 8001a08:	b083      	sub	sp, #12
 8001a0a:	af00      	add	r7, sp, #0
 8001a0c:	6078      	str	r0, [r7, #4]
 8001a0e:	6039      	str	r1, [r7, #0]
  MODIFY_REG(USARTx->CR2, USART_CR2_STOP, StopBits);
 8001a10:	687b      	ldr	r3, [r7, #4]
 8001a12:	685b      	ldr	r3, [r3, #4]
 8001a14:	f423 5240 	bic.w	r2, r3, #12288	; 0x3000
 8001a18:	683b      	ldr	r3, [r7, #0]
 8001a1a:	431a      	orrs	r2, r3
 8001a1c:	687b      	ldr	r3, [r7, #4]
 8001a1e:	605a      	str	r2, [r3, #4]
}
 8001a20:	bf00      	nop
 8001a22:	370c      	adds	r7, #12
 8001a24:	46bd      	mov	sp, r7
 8001a26:	f85d 7b04 	ldr.w	r7, [sp], #4
 8001a2a:	4770      	bx	lr

08001a2c <LL_USART_SetHWFlowCtrl>:
  *         @arg @ref LL_USART_HWCONTROL_CTS
  *         @arg @ref LL_USART_HWCONTROL_RTS_CTS
  * @retval None
  */
__STATIC_INLINE void LL_USART_SetHWFlowCtrl(USART_TypeDef *USARTx, uint32_t HardwareFlowControl)
{
 8001a2c:	b480      	push	{r7}
 8001a2e:	b083      	sub	sp, #12
 8001a30:	af00      	add	r7, sp, #0
 8001a32:	6078      	str	r0, [r7, #4]
 8001a34:	6039      	str	r1, [r7, #0]
  MODIFY_REG(USARTx->CR3, USART_CR3_RTSE | USART_CR3_CTSE, HardwareFlowControl);
 8001a36:	687b      	ldr	r3, [r7, #4]
 8001a38:	689b      	ldr	r3, [r3, #8]
 8001a3a:	f423 7240 	bic.w	r2, r3, #768	; 0x300
 8001a3e:	683b      	ldr	r3, [r7, #0]
 8001a40:	431a      	orrs	r2, r3
 8001a42:	687b      	ldr	r3, [r7, #4]
 8001a44:	609a      	str	r2, [r3, #8]
}
 8001a46:	bf00      	nop
 8001a48:	370c      	adds	r7, #12
 8001a4a:	46bd      	mov	sp, r7
 8001a4c:	f85d 7b04 	ldr.w	r7, [sp], #4
 8001a50:	4770      	bx	lr

08001a52 <LL_USART_SetBaudRate>:
  * @param  BaudRate Baud Rate
  * @retval None
  */
__STATIC_INLINE void LL_USART_SetBaudRate(USART_TypeDef *USARTx, uint32_t PeriphClk, uint32_t OverSampling,
                                          uint32_t BaudRate)
{
 8001a52:	b4b0      	push	{r4, r5, r7}
 8001a54:	b085      	sub	sp, #20
 8001a56:	af00      	add	r7, sp, #0
 8001a58:	60f8      	str	r0, [r7, #12]
 8001a5a:	60b9      	str	r1, [r7, #8]
 8001a5c:	607a      	str	r2, [r7, #4]
 8001a5e:	603b      	str	r3, [r7, #0]
  register uint32_t usartdiv = 0x0U;
 8001a60:	2500      	movs	r5, #0
  register uint32_t brrtemp = 0x0U;
 8001a62:	2400      	movs	r4, #0

  if (OverSampling == LL_USART_OVERSAMPLING_8)
 8001a64:	687b      	ldr	r3, [r7, #4]
 8001a66:	f5b3 4f00 	cmp.w	r3, #32768	; 0x8000
 8001a6a:	d114      	bne.n	8001a96 <LL_USART_SetBaudRate+0x44>
  {
    usartdiv = (uint16_t)(__LL_USART_DIV_SAMPLING8(PeriphClk, BaudRate));
 8001a6c:	68bb      	ldr	r3, [r7, #8]
 8001a6e:	005a      	lsls	r2, r3, #1
 8001a70:	683b      	ldr	r3, [r7, #0]
 8001a72:	085b      	lsrs	r3, r3, #1
 8001a74:	441a      	add	r2, r3
 8001a76:	683b      	ldr	r3, [r7, #0]
 8001a78:	fbb2 f3f3 	udiv	r3, r2, r3
 8001a7c:	b29b      	uxth	r3, r3
 8001a7e:	461d      	mov	r5, r3
    brrtemp = usartdiv & 0xFFF0U;
 8001a80:	f64f 74f0 	movw	r4, #65520	; 0xfff0
 8001a84:	402c      	ands	r4, r5
    brrtemp |= (uint16_t)((usartdiv & (uint16_t)0x000FU) >> 1U);
 8001a86:	086b      	lsrs	r3, r5, #1
 8001a88:	b29b      	uxth	r3, r3
 8001a8a:	f003 0307 	and.w	r3, r3, #7
 8001a8e:	431c      	orrs	r4, r3
    USARTx->BRR = brrtemp;
 8001a90:	68fb      	ldr	r3, [r7, #12]
 8001a92:	60dc      	str	r4, [r3, #12]
  }
  else
  {
    USARTx->BRR = (uint16_t)(__LL_USART_DIV_SAMPLING16(PeriphClk, BaudRate));
  }
}
 8001a94:	e00a      	b.n	8001aac <LL_USART_SetBaudRate+0x5a>
    USARTx->BRR = (uint16_t)(__LL_USART_DIV_SAMPLING16(PeriphClk, BaudRate));
 8001a96:	683b      	ldr	r3, [r7, #0]
 8001a98:	085a      	lsrs	r2, r3, #1
 8001a9a:	68bb      	ldr	r3, [r7, #8]
 8001a9c:	441a      	add	r2, r3
 8001a9e:	683b      	ldr	r3, [r7, #0]
 8001aa0:	fbb2 f3f3 	udiv	r3, r2, r3
 8001aa4:	b29b      	uxth	r3, r3
 8001aa6:	461a      	mov	r2, r3
 8001aa8:	68fb      	ldr	r3, [r7, #12]
 8001aaa:	60da      	str	r2, [r3, #12]
}
 8001aac:	bf00      	nop
 8001aae:	3714      	adds	r7, #20
 8001ab0:	46bd      	mov	sp, r7
 8001ab2:	bcb0      	pop	{r4, r5, r7}
 8001ab4:	4770      	bx	lr
	...

08001ab8 <LL_USART_Init>:
  * @retval An ErrorStatus enumeration value:
  *          - SUCCESS: USART registers are initialized according to USART_InitStruct content
  *          - ERROR: Problem occurred during USART Registers initialization
  */
ErrorStatus LL_USART_Init(USART_TypeDef *USARTx, LL_USART_InitTypeDef *USART_InitStruct)
{
 8001ab8:	b580      	push	{r7, lr}
 8001aba:	b088      	sub	sp, #32
 8001abc:	af00      	add	r7, sp, #0
 8001abe:	6078      	str	r0, [r7, #4]
 8001ac0:	6039      	str	r1, [r7, #0]
  ErrorStatus status = ERROR;
 8001ac2:	2301      	movs	r3, #1
 8001ac4:	77fb      	strb	r3, [r7, #31]
  uint32_t periphclk = LL_RCC_PERIPH_FREQUENCY_NO;
 8001ac6:	2300      	movs	r3, #0
 8001ac8:	61bb      	str	r3, [r7, #24]
  assert_param(IS_LL_USART_HWCONTROL(USART_InitStruct->HardwareFlowControl));
  assert_param(IS_LL_USART_OVERSAMPLING(USART_InitStruct->OverSampling));

  /* USART needs to be in disabled state, in order to be able to configure some bits in
     CRx registers */
  if (LL_USART_IsEnabled(USARTx) == 0U)
 8001aca:	6878      	ldr	r0, [r7, #4]
 8001acc:	f7ff ff88 	bl	80019e0 <LL_USART_IsEnabled>
 8001ad0:	4603      	mov	r3, r0
 8001ad2:	2b00      	cmp	r3, #0
 8001ad4:	d14e      	bne.n	8001b74 <LL_USART_Init+0xbc>
     * - DataWidth:          USART_CR1_M bits according to USART_InitStruct->DataWidth value
     * - Parity:             USART_CR1_PCE, USART_CR1_PS bits according to USART_InitStruct->Parity value
     * - TransferDirection:  USART_CR1_TE, USART_CR1_RE bits according to USART_InitStruct->TransferDirection value
     * - Oversampling:       USART_CR1_OVER8 bit according to USART_InitStruct->OverSampling value.
     */
    MODIFY_REG(USARTx->CR1,
 8001ad6:	687b      	ldr	r3, [r7, #4]
 8001ad8:	681a      	ldr	r2, [r3, #0]
 8001ada:	4b29      	ldr	r3, [pc, #164]	; (8001b80 <LL_USART_Init+0xc8>)
 8001adc:	4013      	ands	r3, r2
 8001ade:	683a      	ldr	r2, [r7, #0]
 8001ae0:	6851      	ldr	r1, [r2, #4]
 8001ae2:	683a      	ldr	r2, [r7, #0]
 8001ae4:	68d2      	ldr	r2, [r2, #12]
 8001ae6:	4311      	orrs	r1, r2
 8001ae8:	683a      	ldr	r2, [r7, #0]
 8001aea:	6912      	ldr	r2, [r2, #16]
 8001aec:	4311      	orrs	r1, r2
 8001aee:	683a      	ldr	r2, [r7, #0]
 8001af0:	6992      	ldr	r2, [r2, #24]
 8001af2:	430a      	orrs	r2, r1
 8001af4:	431a      	orrs	r2, r3
 8001af6:	687b      	ldr	r3, [r7, #4]
 8001af8:	601a      	str	r2, [r3, #0]
    /*---------------------------- USART CR2 Configuration ---------------------
     * Configure USARTx CR2 (Stop bits) with parameters:
     * - Stop Bits:          USART_CR2_STOP bits according to USART_InitStruct->StopBits value.
     * - CLKEN, CPOL, CPHA and LBCL bits are to be configured using LL_USART_ClockInit().
     */
    LL_USART_SetStopBitsLength(USARTx, USART_InitStruct->StopBits);
 8001afa:	683b      	ldr	r3, [r7, #0]
 8001afc:	689b      	ldr	r3, [r3, #8]
 8001afe:	4619      	mov	r1, r3
 8001b00:	6878      	ldr	r0, [r7, #4]
 8001b02:	f7ff ff80 	bl	8001a06 <LL_USART_SetStopBitsLength>

    /*---------------------------- USART CR3 Configuration ---------------------
     * Configure USARTx CR3 (Hardware Flow Control) with parameters:
     * - HardwareFlowControl: USART_CR3_RTSE, USART_CR3_CTSE bits according to USART_InitStruct->HardwareFlowControl value.
     */
    LL_USART_SetHWFlowCtrl(USARTx, USART_InitStruct->HardwareFlowControl);
 8001b06:	683b      	ldr	r3, [r7, #0]
 8001b08:	695b      	ldr	r3, [r3, #20]
 8001b0a:	4619      	mov	r1, r3
 8001b0c:	6878      	ldr	r0, [r7, #4]
 8001b0e:	f7ff ff8d 	bl	8001a2c <LL_USART_SetHWFlowCtrl>

    /*---------------------------- USART BRR Configuration ---------------------
     * Retrieve Clock frequency used for USART Peripheral
     */
    if (USARTx == USART1)
 8001b12:	687b      	ldr	r3, [r7, #4]
 8001b14:	4a1b      	ldr	r2, [pc, #108]	; (8001b84 <LL_USART_Init+0xcc>)
 8001b16:	4293      	cmp	r3, r2
 8001b18:	d104      	bne.n	8001b24 <LL_USART_Init+0x6c>
    {
      periphclk = LL_RCC_GetUSARTClockFreq(LL_RCC_USART1_CLKSOURCE);
 8001b1a:	2000      	movs	r0, #0
 8001b1c:	f7ff fa7c 	bl	8001018 <LL_RCC_GetUSARTClockFreq>
 8001b20:	61b8      	str	r0, [r7, #24]
 8001b22:	e016      	b.n	8001b52 <LL_USART_Init+0x9a>
    }
    else if (USARTx == USART2)
 8001b24:	687b      	ldr	r3, [r7, #4]
 8001b26:	4a18      	ldr	r2, [pc, #96]	; (8001b88 <LL_USART_Init+0xd0>)
 8001b28:	4293      	cmp	r3, r2
 8001b2a:	d107      	bne.n	8001b3c <LL_USART_Init+0x84>
    {
#if defined (RCC_CFGR3_USART2SW)
      periphclk = LL_RCC_GetUSARTClockFreq(LL_RCC_USART2_CLKSOURCE);
#else
      /* USART2 clock is PCLK */
      LL_RCC_GetSystemClocksFreq(&RCC_Clocks);
 8001b2c:	f107 0308 	add.w	r3, r7, #8
 8001b30:	4618      	mov	r0, r3
 8001b32:	f7ff fa4b 	bl	8000fcc <LL_RCC_GetSystemClocksFreq>
      periphclk = RCC_Clocks.PCLK1_Frequency;
 8001b36:	693b      	ldr	r3, [r7, #16]
 8001b38:	61bb      	str	r3, [r7, #24]
 8001b3a:	e00a      	b.n	8001b52 <LL_USART_Init+0x9a>
#endif
    }
    else if (USARTx == USART3)
 8001b3c:	687b      	ldr	r3, [r7, #4]
 8001b3e:	4a13      	ldr	r2, [pc, #76]	; (8001b8c <LL_USART_Init+0xd4>)
 8001b40:	4293      	cmp	r3, r2
 8001b42:	d106      	bne.n	8001b52 <LL_USART_Init+0x9a>
    {
#if defined (RCC_CFGR3_USART3SW)
      periphclk = LL_RCC_GetUSARTClockFreq(LL_RCC_USART3_CLKSOURCE);
#else
      /* USART3 clock is PCLK */
      LL_RCC_GetSystemClocksFreq(&RCC_Clocks);
 8001b44:	f107 0308 	add.w	r3, r7, #8
 8001b48:	4618      	mov	r0, r3
 8001b4a:	f7ff fa3f 	bl	8000fcc <LL_RCC_GetSystemClocksFreq>
      periphclk = RCC_Clocks.PCLK1_Frequency;
 8001b4e:	693b      	ldr	r3, [r7, #16]
 8001b50:	61bb      	str	r3, [r7, #24]

    /* Configure the USART Baud Rate :
       - valid baud rate value (different from 0) is required
       - Peripheral clock as returned by RCC service, should be valid (different from 0).
    */
    if ((periphclk != LL_RCC_PERIPH_FREQUENCY_NO)
 8001b52:	69bb      	ldr	r3, [r7, #24]
 8001b54:	2b00      	cmp	r3, #0
 8001b56:	d00d      	beq.n	8001b74 <LL_USART_Init+0xbc>
        && (USART_InitStruct->BaudRate != 0U))
 8001b58:	683b      	ldr	r3, [r7, #0]
 8001b5a:	681b      	ldr	r3, [r3, #0]
 8001b5c:	2b00      	cmp	r3, #0
 8001b5e:	d009      	beq.n	8001b74 <LL_USART_Init+0xbc>
    {
      status = SUCCESS;
 8001b60:	2300      	movs	r3, #0
 8001b62:	77fb      	strb	r3, [r7, #31]
      LL_USART_SetBaudRate(USARTx,
 8001b64:	683b      	ldr	r3, [r7, #0]
 8001b66:	699a      	ldr	r2, [r3, #24]
 8001b68:	683b      	ldr	r3, [r7, #0]
 8001b6a:	681b      	ldr	r3, [r3, #0]
 8001b6c:	69b9      	ldr	r1, [r7, #24]
 8001b6e:	6878      	ldr	r0, [r7, #4]
 8001b70:	f7ff ff6f 	bl	8001a52 <LL_USART_SetBaudRate>
      assert_param(IS_LL_USART_BRR_MAX(USARTx->BRR));
    }
  }
  /* Endif (=> USART not in Disabled state => return ERROR) */

  return (status);
 8001b74:	7ffb      	ldrb	r3, [r7, #31]
}
 8001b76:	4618      	mov	r0, r3
 8001b78:	3720      	adds	r7, #32
 8001b7a:	46bd      	mov	sp, r7
 8001b7c:	bd80      	pop	{r7, pc}
 8001b7e:	bf00      	nop
 8001b80:	efff69f3 	.word	0xefff69f3
 8001b84:	40013800 	.word	0x40013800
 8001b88:	40004400 	.word	0x40004400
 8001b8c:	40004800 	.word	0x40004800

08001b90 <LL_InitTick>:
  *         configuration by calling this function, for a delay use rather osDelay RTOS service.
  * @param  Ticks Number of ticks
  * @retval None
  */
__STATIC_INLINE void LL_InitTick(uint32_t HCLKFrequency, uint32_t Ticks)
{
 8001b90:	b480      	push	{r7}
 8001b92:	b083      	sub	sp, #12
 8001b94:	af00      	add	r7, sp, #0
 8001b96:	6078      	str	r0, [r7, #4]
 8001b98:	6039      	str	r1, [r7, #0]
  /* Configure the SysTick to have interrupt in 1ms time base */
  SysTick->LOAD  = (uint32_t)((HCLKFrequency / Ticks) - 1UL);  /* set reload register */
 8001b9a:	687a      	ldr	r2, [r7, #4]
 8001b9c:	683b      	ldr	r3, [r7, #0]
 8001b9e:	fbb2 f3f3 	udiv	r3, r2, r3
 8001ba2:	4a07      	ldr	r2, [pc, #28]	; (8001bc0 <LL_InitTick+0x30>)
 8001ba4:	3b01      	subs	r3, #1
 8001ba6:	6053      	str	r3, [r2, #4]
  SysTick->VAL   = 0UL;                                       /* Load the SysTick Counter Value */
 8001ba8:	4b05      	ldr	r3, [pc, #20]	; (8001bc0 <LL_InitTick+0x30>)
 8001baa:	2200      	movs	r2, #0
 8001bac:	609a      	str	r2, [r3, #8]
  SysTick->CTRL  = SysTick_CTRL_CLKSOURCE_Msk |
 8001bae:	4b04      	ldr	r3, [pc, #16]	; (8001bc0 <LL_InitTick+0x30>)
 8001bb0:	2205      	movs	r2, #5
 8001bb2:	601a      	str	r2, [r3, #0]
                   SysTick_CTRL_ENABLE_Msk;                   /* Enable the Systick Timer */
}
 8001bb4:	bf00      	nop
 8001bb6:	370c      	adds	r7, #12
 8001bb8:	46bd      	mov	sp, r7
 8001bba:	f85d 7b04 	ldr.w	r7, [sp], #4
 8001bbe:	4770      	bx	lr
 8001bc0:	e000e010 	.word	0xe000e010

08001bc4 <LL_Init1msTick>:
  * @param  HCLKFrequency HCLK frequency in Hz
  * @note   HCLK frequency can be calculated thanks to RCC helper macro or function @ref LL_RCC_GetSystemClocksFreq
  * @retval None
  */
void LL_Init1msTick(uint32_t HCLKFrequency)
{
 8001bc4:	b580      	push	{r7, lr}
 8001bc6:	b082      	sub	sp, #8
 8001bc8:	af00      	add	r7, sp, #0
 8001bca:	6078      	str	r0, [r7, #4]
  /* Use frequency provided in argument */
  LL_InitTick(HCLKFrequency, 1000U);
 8001bcc:	f44f 717a 	mov.w	r1, #1000	; 0x3e8
 8001bd0:	6878      	ldr	r0, [r7, #4]
 8001bd2:	f7ff ffdd 	bl	8001b90 <LL_InitTick>
}
 8001bd6:	bf00      	nop
 8001bd8:	3708      	adds	r7, #8
 8001bda:	46bd      	mov	sp, r7
 8001bdc:	bd80      	pop	{r7, pc}
	...

08001be0 <LL_mDelay>:
  *         will configure Systick to 1ms
  * @param  Delay specifies the delay time length, in milliseconds.
  * @retval None
  */
void LL_mDelay(uint32_t Delay)
{
 8001be0:	b480      	push	{r7}
 8001be2:	b085      	sub	sp, #20
 8001be4:	af00      	add	r7, sp, #0
 8001be6:	6078      	str	r0, [r7, #4]
  __IO uint32_t  tmp = SysTick->CTRL;  /* Clear the COUNTFLAG first */
 8001be8:	4b0e      	ldr	r3, [pc, #56]	; (8001c24 <LL_mDelay+0x44>)
 8001bea:	681b      	ldr	r3, [r3, #0]
 8001bec:	60fb      	str	r3, [r7, #12]
  /* Add this code to indicate that local variable is not used */
  ((void)tmp);
 8001bee:	68fb      	ldr	r3, [r7, #12]

  /* Add a period to guaranty minimum wait */
  if (Delay < LL_MAX_DELAY)
 8001bf0:	687b      	ldr	r3, [r7, #4]
 8001bf2:	f1b3 3fff 	cmp.w	r3, #4294967295
 8001bf6:	d00c      	beq.n	8001c12 <LL_mDelay+0x32>
  {
    Delay++;
 8001bf8:	687b      	ldr	r3, [r7, #4]
 8001bfa:	3301      	adds	r3, #1
 8001bfc:	607b      	str	r3, [r7, #4]
  }

  while (Delay)
 8001bfe:	e008      	b.n	8001c12 <LL_mDelay+0x32>
  {
    if ((SysTick->CTRL & SysTick_CTRL_COUNTFLAG_Msk) != 0U)
 8001c00:	4b08      	ldr	r3, [pc, #32]	; (8001c24 <LL_mDelay+0x44>)
 8001c02:	681b      	ldr	r3, [r3, #0]
 8001c04:	f403 3380 	and.w	r3, r3, #65536	; 0x10000
 8001c08:	2b00      	cmp	r3, #0
 8001c0a:	d002      	beq.n	8001c12 <LL_mDelay+0x32>
    {
      Delay--;
 8001c0c:	687b      	ldr	r3, [r7, #4]
 8001c0e:	3b01      	subs	r3, #1
 8001c10:	607b      	str	r3, [r7, #4]
  while (Delay)
 8001c12:	687b      	ldr	r3, [r7, #4]
 8001c14:	2b00      	cmp	r3, #0
 8001c16:	d1f3      	bne.n	8001c00 <LL_mDelay+0x20>
    }
  }
}
 8001c18:	bf00      	nop
 8001c1a:	3714      	adds	r7, #20
 8001c1c:	46bd      	mov	sp, r7
 8001c1e:	f85d 7b04 	ldr.w	r7, [sp], #4
 8001c22:	4770      	bx	lr
 8001c24:	e000e010 	.word	0xe000e010

08001c28 <LL_SetSystemCoreClock>:
  * @note   Variable can be calculated also through SystemCoreClockUpdate function.
  * @param  HCLKFrequency HCLK frequency in Hz (can be calculated thanks to RCC helper macro)
  * @retval None
  */
void LL_SetSystemCoreClock(uint32_t HCLKFrequency)
{
 8001c28:	b480      	push	{r7}
 8001c2a:	b083      	sub	sp, #12
 8001c2c:	af00      	add	r7, sp, #0
 8001c2e:	6078      	str	r0, [r7, #4]
  /* HCLK clock frequency */
  SystemCoreClock = HCLKFrequency;
 8001c30:	4a04      	ldr	r2, [pc, #16]	; (8001c44 <LL_SetSystemCoreClock+0x1c>)
 8001c32:	687b      	ldr	r3, [r7, #4]
 8001c34:	6013      	str	r3, [r2, #0]
}
 8001c36:	bf00      	nop
 8001c38:	370c      	adds	r7, #12
 8001c3a:	46bd      	mov	sp, r7
 8001c3c:	f85d 7b04 	ldr.w	r7, [sp], #4
 8001c40:	4770      	bx	lr
 8001c42:	bf00      	nop
 8001c44:	20000004 	.word	0x20000004

08001c48 <NVIC_GetPriorityGrouping>:
  \brief   Get Priority Grouping
  \details Reads the priority grouping field from the NVIC Interrupt Controller.
  \return                Priority grouping field (SCB->AIRCR [10:8] PRIGROUP field).
 */
__STATIC_INLINE uint32_t NVIC_GetPriorityGrouping(void)
{
 8001c48:	b480      	push	{r7}
 8001c4a:	af00      	add	r7, sp, #0
  return ((uint32_t)((SCB->AIRCR & SCB_AIRCR_PRIGROUP_Msk) >> SCB_AIRCR_PRIGROUP_Pos));
 8001c4c:	4b04      	ldr	r3, [pc, #16]	; (8001c60 <NVIC_GetPriorityGrouping+0x18>)
 8001c4e:	68db      	ldr	r3, [r3, #12]
 8001c50:	0a1b      	lsrs	r3, r3, #8
 8001c52:	f003 0307 	and.w	r3, r3, #7
}
 8001c56:	4618      	mov	r0, r3
 8001c58:	46bd      	mov	sp, r7
 8001c5a:	f85d 7b04 	ldr.w	r7, [sp], #4
 8001c5e:	4770      	bx	lr
 8001c60:	e000ed00 	.word	0xe000ed00

08001c64 <NVIC_EnableIRQ>:
  \brief   Enable External Interrupt
  \details Enables a device-specific interrupt in the NVIC interrupt controller.
  \param [in]      IRQn  External interrupt number. Value cannot be negative.
 */
__STATIC_INLINE void NVIC_EnableIRQ(IRQn_Type IRQn)
{
 8001c64:	b480      	push	{r7}
 8001c66:	b083      	sub	sp, #12
 8001c68:	af00      	add	r7, sp, #0
 8001c6a:	4603      	mov	r3, r0
 8001c6c:	71fb      	strb	r3, [r7, #7]
  NVIC->ISER[(((uint32_t)(int32_t)IRQn) >> 5UL)] = (uint32_t)(1UL << (((uint32_t)(int32_t)IRQn) & 0x1FUL));
 8001c6e:	79fb      	ldrb	r3, [r7, #7]
 8001c70:	f003 021f 	and.w	r2, r3, #31
 8001c74:	4907      	ldr	r1, [pc, #28]	; (8001c94 <NVIC_EnableIRQ+0x30>)
 8001c76:	f997 3007 	ldrsb.w	r3, [r7, #7]
 8001c7a:	095b      	lsrs	r3, r3, #5
 8001c7c:	2001      	movs	r0, #1
 8001c7e:	fa00 f202 	lsl.w	r2, r0, r2
 8001c82:	f841 2023 	str.w	r2, [r1, r3, lsl #2]
}
 8001c86:	bf00      	nop
 8001c88:	370c      	adds	r7, #12
 8001c8a:	46bd      	mov	sp, r7
 8001c8c:	f85d 7b04 	ldr.w	r7, [sp], #4
 8001c90:	4770      	bx	lr
 8001c92:	bf00      	nop
 8001c94:	e000e100 	.word	0xe000e100

08001c98 <NVIC_SetPriority>:
  \note    The priority cannot be set for every core interrupt.
  \param [in]      IRQn  Interrupt number.
  \param [in]  priority  Priority to set.
 */
__STATIC_INLINE void NVIC_SetPriority(IRQn_Type IRQn, uint32_t priority)
{
 8001c98:	b480      	push	{r7}
 8001c9a:	b083      	sub	sp, #12
 8001c9c:	af00      	add	r7, sp, #0
 8001c9e:	4603      	mov	r3, r0
 8001ca0:	6039      	str	r1, [r7, #0]
 8001ca2:	71fb      	strb	r3, [r7, #7]
  if ((int32_t)(IRQn) < 0)
 8001ca4:	f997 3007 	ldrsb.w	r3, [r7, #7]
 8001ca8:	2b00      	cmp	r3, #0
 8001caa:	da0b      	bge.n	8001cc4 <NVIC_SetPriority+0x2c>
  {
    SCB->SHP[(((uint32_t)(int32_t)IRQn) & 0xFUL)-4UL] = (uint8_t)((priority << (8U - __NVIC_PRIO_BITS)) & (uint32_t)0xFFUL);
 8001cac:	683b      	ldr	r3, [r7, #0]
 8001cae:	b2da      	uxtb	r2, r3
 8001cb0:	490c      	ldr	r1, [pc, #48]	; (8001ce4 <NVIC_SetPriority+0x4c>)
 8001cb2:	79fb      	ldrb	r3, [r7, #7]
 8001cb4:	f003 030f 	and.w	r3, r3, #15
 8001cb8:	3b04      	subs	r3, #4
 8001cba:	0112      	lsls	r2, r2, #4
 8001cbc:	b2d2      	uxtb	r2, r2
 8001cbe:	440b      	add	r3, r1
 8001cc0:	761a      	strb	r2, [r3, #24]
  }
  else
  {
    NVIC->IP[((uint32_t)(int32_t)IRQn)]               = (uint8_t)((priority << (8U - __NVIC_PRIO_BITS)) & (uint32_t)0xFFUL);
  }
}
 8001cc2:	e009      	b.n	8001cd8 <NVIC_SetPriority+0x40>
    NVIC->IP[((uint32_t)(int32_t)IRQn)]               = (uint8_t)((priority << (8U - __NVIC_PRIO_BITS)) & (uint32_t)0xFFUL);
 8001cc4:	683b      	ldr	r3, [r7, #0]
 8001cc6:	b2da      	uxtb	r2, r3
 8001cc8:	4907      	ldr	r1, [pc, #28]	; (8001ce8 <NVIC_SetPriority+0x50>)
 8001cca:	f997 3007 	ldrsb.w	r3, [r7, #7]
 8001cce:	0112      	lsls	r2, r2, #4
 8001cd0:	b2d2      	uxtb	r2, r2
 8001cd2:	440b      	add	r3, r1
 8001cd4:	f883 2300 	strb.w	r2, [r3, #768]	; 0x300
}
 8001cd8:	bf00      	nop
 8001cda:	370c      	adds	r7, #12
 8001cdc:	46bd      	mov	sp, r7
 8001cde:	f85d 7b04 	ldr.w	r7, [sp], #4
 8001ce2:	4770      	bx	lr
 8001ce4:	e000ed00 	.word	0xe000ed00
 8001ce8:	e000e100 	.word	0xe000e100

08001cec <NVIC_EncodePriority>:
  \param [in]   PreemptPriority  Preemptive priority value (starting from 0).
  \param [in]       SubPriority  Subpriority value (starting from 0).
  \return                        Encoded priority. Value can be used in the function \ref NVIC_SetPriority().
 */
__STATIC_INLINE uint32_t NVIC_EncodePriority (uint32_t PriorityGroup, uint32_t PreemptPriority, uint32_t SubPriority)
{
 8001cec:	b480      	push	{r7}
 8001cee:	b089      	sub	sp, #36	; 0x24
 8001cf0:	af00      	add	r7, sp, #0
 8001cf2:	60f8      	str	r0, [r7, #12]
 8001cf4:	60b9      	str	r1, [r7, #8]
 8001cf6:	607a      	str	r2, [r7, #4]
  uint32_t PriorityGroupTmp = (PriorityGroup & (uint32_t)0x07UL);   /* only values 0..7 are used          */
 8001cf8:	68fb      	ldr	r3, [r7, #12]
 8001cfa:	f003 0307 	and.w	r3, r3, #7
 8001cfe:	61fb      	str	r3, [r7, #28]
  uint32_t PreemptPriorityBits;
  uint32_t SubPriorityBits;

  PreemptPriorityBits = ((7UL - PriorityGroupTmp) > (uint32_t)(__NVIC_PRIO_BITS)) ? (uint32_t)(__NVIC_PRIO_BITS) : (uint32_t)(7UL - PriorityGroupTmp);
 8001d00:	69fb      	ldr	r3, [r7, #28]
 8001d02:	f1c3 0307 	rsb	r3, r3, #7
 8001d06:	2b04      	cmp	r3, #4
 8001d08:	bf28      	it	cs
 8001d0a:	2304      	movcs	r3, #4
 8001d0c:	61bb      	str	r3, [r7, #24]
  SubPriorityBits     = ((PriorityGroupTmp + (uint32_t)(__NVIC_PRIO_BITS)) < (uint32_t)7UL) ? (uint32_t)0UL : (uint32_t)((PriorityGroupTmp - 7UL) + (uint32_t)(__NVIC_PRIO_BITS));
 8001d0e:	69fb      	ldr	r3, [r7, #28]
 8001d10:	3304      	adds	r3, #4
 8001d12:	2b06      	cmp	r3, #6
 8001d14:	d902      	bls.n	8001d1c <NVIC_EncodePriority+0x30>
 8001d16:	69fb      	ldr	r3, [r7, #28]
 8001d18:	3b03      	subs	r3, #3
 8001d1a:	e000      	b.n	8001d1e <NVIC_EncodePriority+0x32>
 8001d1c:	2300      	movs	r3, #0
 8001d1e:	617b      	str	r3, [r7, #20]

  return (
           ((PreemptPriority & (uint32_t)((1UL << (PreemptPriorityBits)) - 1UL)) << SubPriorityBits) |
 8001d20:	f04f 32ff 	mov.w	r2, #4294967295
 8001d24:	69bb      	ldr	r3, [r7, #24]
 8001d26:	fa02 f303 	lsl.w	r3, r2, r3
 8001d2a:	43da      	mvns	r2, r3
 8001d2c:	68bb      	ldr	r3, [r7, #8]
 8001d2e:	401a      	ands	r2, r3
 8001d30:	697b      	ldr	r3, [r7, #20]
 8001d32:	409a      	lsls	r2, r3
           ((SubPriority     & (uint32_t)((1UL << (SubPriorityBits    )) - 1UL)))
 8001d34:	f04f 31ff 	mov.w	r1, #4294967295
 8001d38:	697b      	ldr	r3, [r7, #20]
 8001d3a:	fa01 f303 	lsl.w	r3, r1, r3
 8001d3e:	43d9      	mvns	r1, r3
 8001d40:	687b      	ldr	r3, [r7, #4]
 8001d42:	400b      	ands	r3, r1
           ((PreemptPriority & (uint32_t)((1UL << (PreemptPriorityBits)) - 1UL)) << SubPriorityBits) |
 8001d44:	4313      	orrs	r3, r2
         );
}
 8001d46:	4618      	mov	r0, r3
 8001d48:	3724      	adds	r7, #36	; 0x24
 8001d4a:	46bd      	mov	sp, r7
 8001d4c:	f85d 7b04 	ldr.w	r7, [sp], #4
 8001d50:	4770      	bx	lr
	...

08001d54 <LL_AHB1_GRP1_EnableClock>:
  *
  *         (*) value not defined in all devices.
  * @retval None
*/
__STATIC_INLINE void LL_AHB1_GRP1_EnableClock(uint32_t Periphs)
{
 8001d54:	b480      	push	{r7}
 8001d56:	b085      	sub	sp, #20
 8001d58:	af00      	add	r7, sp, #0
 8001d5a:	6078      	str	r0, [r7, #4]
  __IO uint32_t tmpreg;
  SET_BIT(RCC->AHBENR, Periphs);
 8001d5c:	4b08      	ldr	r3, [pc, #32]	; (8001d80 <LL_AHB1_GRP1_EnableClock+0x2c>)
 8001d5e:	695a      	ldr	r2, [r3, #20]
 8001d60:	4907      	ldr	r1, [pc, #28]	; (8001d80 <LL_AHB1_GRP1_EnableClock+0x2c>)
 8001d62:	687b      	ldr	r3, [r7, #4]
 8001d64:	4313      	orrs	r3, r2
 8001d66:	614b      	str	r3, [r1, #20]
  /* Delay after an RCC peripheral clock enabling */
  tmpreg = READ_BIT(RCC->AHBENR, Periphs);
 8001d68:	4b05      	ldr	r3, [pc, #20]	; (8001d80 <LL_AHB1_GRP1_EnableClock+0x2c>)
 8001d6a:	695a      	ldr	r2, [r3, #20]
 8001d6c:	687b      	ldr	r3, [r7, #4]
 8001d6e:	4013      	ands	r3, r2
 8001d70:	60fb      	str	r3, [r7, #12]
  (void)tmpreg;
 8001d72:	68fb      	ldr	r3, [r7, #12]
}
 8001d74:	bf00      	nop
 8001d76:	3714      	adds	r7, #20
 8001d78:	46bd      	mov	sp, r7
 8001d7a:	f85d 7b04 	ldr.w	r7, [sp], #4
 8001d7e:	4770      	bx	lr
 8001d80:	40021000 	.word	0x40021000

08001d84 <MX_DMA_Init>:

/**
  * Enable DMA controller clock
  */
void MX_DMA_Init(void)
{
 8001d84:	b580      	push	{r7, lr}
 8001d86:	af00      	add	r7, sp, #0
  /* Init with LL driver */
  /* DMA controller clock enable */
  LL_AHB1_GRP1_EnableClock(LL_AHB1_GRP1_PERIPH_DMA1);
 8001d88:	2001      	movs	r0, #1
 8001d8a:	f7ff ffe3 	bl	8001d54 <LL_AHB1_GRP1_EnableClock>

  /* DMA interrupt init */
  /* DMA1_Channel6_IRQn interrupt configuration */
  NVIC_SetPriority(DMA1_Channel6_IRQn, NVIC_EncodePriority(NVIC_GetPriorityGrouping(),0, 0));
 8001d8e:	f7ff ff5b 	bl	8001c48 <NVIC_GetPriorityGrouping>
 8001d92:	4603      	mov	r3, r0
 8001d94:	2200      	movs	r2, #0
 8001d96:	2100      	movs	r1, #0
 8001d98:	4618      	mov	r0, r3
 8001d9a:	f7ff ffa7 	bl	8001cec <NVIC_EncodePriority>
 8001d9e:	4603      	mov	r3, r0
 8001da0:	4619      	mov	r1, r3
 8001da2:	2010      	movs	r0, #16
 8001da4:	f7ff ff78 	bl	8001c98 <NVIC_SetPriority>
  NVIC_EnableIRQ(DMA1_Channel6_IRQn);
 8001da8:	2010      	movs	r0, #16
 8001daa:	f7ff ff5b 	bl	8001c64 <NVIC_EnableIRQ>
  /* DMA1_Channel7_IRQn interrupt configuration */
  NVIC_SetPriority(DMA1_Channel7_IRQn, NVIC_EncodePriority(NVIC_GetPriorityGrouping(),0, 0));
 8001dae:	f7ff ff4b 	bl	8001c48 <NVIC_GetPriorityGrouping>
 8001db2:	4603      	mov	r3, r0
 8001db4:	2200      	movs	r2, #0
 8001db6:	2100      	movs	r1, #0
 8001db8:	4618      	mov	r0, r3
 8001dba:	f7ff ff97 	bl	8001cec <NVIC_EncodePriority>
 8001dbe:	4603      	mov	r3, r0
 8001dc0:	4619      	mov	r1, r3
 8001dc2:	2011      	movs	r0, #17
 8001dc4:	f7ff ff68 	bl	8001c98 <NVIC_SetPriority>
  NVIC_EnableIRQ(DMA1_Channel7_IRQn);
 8001dc8:	2011      	movs	r0, #17
 8001dca:	f7ff ff4b 	bl	8001c64 <NVIC_EnableIRQ>

}
 8001dce:	bf00      	nop
 8001dd0:	bd80      	pop	{r7, pc}
	...

08001dd4 <LL_AHB1_GRP1_EnableClock>:
{
 8001dd4:	b480      	push	{r7}
 8001dd6:	b085      	sub	sp, #20
 8001dd8:	af00      	add	r7, sp, #0
 8001dda:	6078      	str	r0, [r7, #4]
  SET_BIT(RCC->AHBENR, Periphs);
 8001ddc:	4b08      	ldr	r3, [pc, #32]	; (8001e00 <LL_AHB1_GRP1_EnableClock+0x2c>)
 8001dde:	695a      	ldr	r2, [r3, #20]
 8001de0:	4907      	ldr	r1, [pc, #28]	; (8001e00 <LL_AHB1_GRP1_EnableClock+0x2c>)
 8001de2:	687b      	ldr	r3, [r7, #4]
 8001de4:	4313      	orrs	r3, r2
 8001de6:	614b      	str	r3, [r1, #20]
  tmpreg = READ_BIT(RCC->AHBENR, Periphs);
 8001de8:	4b05      	ldr	r3, [pc, #20]	; (8001e00 <LL_AHB1_GRP1_EnableClock+0x2c>)
 8001dea:	695a      	ldr	r2, [r3, #20]
 8001dec:	687b      	ldr	r3, [r7, #4]
 8001dee:	4013      	ands	r3, r2
 8001df0:	60fb      	str	r3, [r7, #12]
  (void)tmpreg;
 8001df2:	68fb      	ldr	r3, [r7, #12]
}
 8001df4:	bf00      	nop
 8001df6:	3714      	adds	r7, #20
 8001df8:	46bd      	mov	sp, r7
 8001dfa:	f85d 7b04 	ldr.w	r7, [sp], #4
 8001dfe:	4770      	bx	lr
 8001e00:	40021000 	.word	0x40021000

08001e04 <MX_GPIO_Init>:
/* USER CODE END 1 */

/** Pinout Configuration
*/
void MX_GPIO_Init(void)
{
 8001e04:	b580      	push	{r7, lr}
 8001e06:	af00      	add	r7, sp, #0

  /* GPIO Ports Clock Enable */
  LL_AHB1_GRP1_EnableClock(LL_AHB1_GRP1_PERIPH_GPIOA);
 8001e08:	f44f 3000 	mov.w	r0, #131072	; 0x20000
 8001e0c:	f7ff ffe2 	bl	8001dd4 <LL_AHB1_GRP1_EnableClock>

}
 8001e10:	bf00      	nop
 8001e12:	bd80      	pop	{r7, pc}

08001e14 <NVIC_SetPriorityGrouping>:
{
 8001e14:	b480      	push	{r7}
 8001e16:	b085      	sub	sp, #20
 8001e18:	af00      	add	r7, sp, #0
 8001e1a:	6078      	str	r0, [r7, #4]
  uint32_t PriorityGroupTmp = (PriorityGroup & (uint32_t)0x07UL);             /* only values 0..7 are used          */
 8001e1c:	687b      	ldr	r3, [r7, #4]
 8001e1e:	f003 0307 	and.w	r3, r3, #7
 8001e22:	60fb      	str	r3, [r7, #12]
  reg_value  =  SCB->AIRCR;                                                   /* read old register configuration    */
 8001e24:	4b0c      	ldr	r3, [pc, #48]	; (8001e58 <NVIC_SetPriorityGrouping+0x44>)
 8001e26:	68db      	ldr	r3, [r3, #12]
 8001e28:	60bb      	str	r3, [r7, #8]
  reg_value &= ~((uint32_t)(SCB_AIRCR_VECTKEY_Msk | SCB_AIRCR_PRIGROUP_Msk)); /* clear bits to change               */
 8001e2a:	68ba      	ldr	r2, [r7, #8]
 8001e2c:	f64f 03ff 	movw	r3, #63743	; 0xf8ff
 8001e30:	4013      	ands	r3, r2
 8001e32:	60bb      	str	r3, [r7, #8]
                (PriorityGroupTmp << 8U)                      );              /* Insert write key and priorty group */
 8001e34:	68fb      	ldr	r3, [r7, #12]
 8001e36:	021a      	lsls	r2, r3, #8
                ((uint32_t)0x5FAUL << SCB_AIRCR_VECTKEY_Pos) |
 8001e38:	68bb      	ldr	r3, [r7, #8]
 8001e3a:	4313      	orrs	r3, r2
  reg_value  =  (reg_value                                   |
 8001e3c:	f043 63bf 	orr.w	r3, r3, #100139008	; 0x5f80000
 8001e40:	f443 3300 	orr.w	r3, r3, #131072	; 0x20000
 8001e44:	60bb      	str	r3, [r7, #8]
  SCB->AIRCR =  reg_value;
 8001e46:	4a04      	ldr	r2, [pc, #16]	; (8001e58 <NVIC_SetPriorityGrouping+0x44>)
 8001e48:	68bb      	ldr	r3, [r7, #8]
 8001e4a:	60d3      	str	r3, [r2, #12]
}
 8001e4c:	bf00      	nop
 8001e4e:	3714      	adds	r7, #20
 8001e50:	46bd      	mov	sp, r7
 8001e52:	f85d 7b04 	ldr.w	r7, [sp], #4
 8001e56:	4770      	bx	lr
 8001e58:	e000ed00 	.word	0xe000ed00

08001e5c <LL_DMA_GetDataLength>:
  *         @arg @ref LL_DMA_CHANNEL_6
  *         @arg @ref LL_DMA_CHANNEL_7
  * @retval Between Min_Data = 0 and Max_Data = 0xFFFFFFFF
  */
__STATIC_INLINE uint32_t LL_DMA_GetDataLength(DMA_TypeDef *DMAx, uint32_t Channel)
{
 8001e5c:	b480      	push	{r7}
 8001e5e:	b083      	sub	sp, #12
 8001e60:	af00      	add	r7, sp, #0
 8001e62:	6078      	str	r0, [r7, #4]
 8001e64:	6039      	str	r1, [r7, #0]
  return (READ_BIT(((DMA_Channel_TypeDef *)((uint32_t)((uint32_t)DMAx + CHANNEL_OFFSET_TAB[Channel - 1U])))->CNDTR,
 8001e66:	683b      	ldr	r3, [r7, #0]
 8001e68:	3b01      	subs	r3, #1
 8001e6a:	4a06      	ldr	r2, [pc, #24]	; (8001e84 <LL_DMA_GetDataLength+0x28>)
 8001e6c:	5cd3      	ldrb	r3, [r2, r3]
 8001e6e:	461a      	mov	r2, r3
 8001e70:	687b      	ldr	r3, [r7, #4]
 8001e72:	4413      	add	r3, r2
 8001e74:	685b      	ldr	r3, [r3, #4]
 8001e76:	b29b      	uxth	r3, r3
                   DMA_CNDTR_NDT));
}
 8001e78:	4618      	mov	r0, r3
 8001e7a:	370c      	adds	r7, #12
 8001e7c:	46bd      	mov	sp, r7
 8001e7e:	f85d 7b04 	ldr.w	r7, [sp], #4
 8001e82:	4770      	bx	lr
 8001e84:	08006270 	.word	0x08006270

08001e88 <LL_RCC_HSI_Enable>:
{
 8001e88:	b480      	push	{r7}
 8001e8a:	af00      	add	r7, sp, #0
  SET_BIT(RCC->CR, RCC_CR_HSION);
 8001e8c:	4b05      	ldr	r3, [pc, #20]	; (8001ea4 <LL_RCC_HSI_Enable+0x1c>)
 8001e8e:	681b      	ldr	r3, [r3, #0]
 8001e90:	4a04      	ldr	r2, [pc, #16]	; (8001ea4 <LL_RCC_HSI_Enable+0x1c>)
 8001e92:	f043 0301 	orr.w	r3, r3, #1
 8001e96:	6013      	str	r3, [r2, #0]
}
 8001e98:	bf00      	nop
 8001e9a:	46bd      	mov	sp, r7
 8001e9c:	f85d 7b04 	ldr.w	r7, [sp], #4
 8001ea0:	4770      	bx	lr
 8001ea2:	bf00      	nop
 8001ea4:	40021000 	.word	0x40021000

08001ea8 <LL_RCC_HSI_IsReady>:
{
 8001ea8:	b480      	push	{r7}
 8001eaa:	af00      	add	r7, sp, #0
  return (READ_BIT(RCC->CR, RCC_CR_HSIRDY) == (RCC_CR_HSIRDY));
 8001eac:	4b06      	ldr	r3, [pc, #24]	; (8001ec8 <LL_RCC_HSI_IsReady+0x20>)
 8001eae:	681b      	ldr	r3, [r3, #0]
 8001eb0:	f003 0302 	and.w	r3, r3, #2
 8001eb4:	2b02      	cmp	r3, #2
 8001eb6:	bf0c      	ite	eq
 8001eb8:	2301      	moveq	r3, #1
 8001eba:	2300      	movne	r3, #0
 8001ebc:	b2db      	uxtb	r3, r3
}
 8001ebe:	4618      	mov	r0, r3
 8001ec0:	46bd      	mov	sp, r7
 8001ec2:	f85d 7b04 	ldr.w	r7, [sp], #4
 8001ec6:	4770      	bx	lr
 8001ec8:	40021000 	.word	0x40021000

08001ecc <LL_RCC_HSI_SetCalibTrimming>:
{
 8001ecc:	b480      	push	{r7}
 8001ece:	b083      	sub	sp, #12
 8001ed0:	af00      	add	r7, sp, #0
 8001ed2:	6078      	str	r0, [r7, #4]
  MODIFY_REG(RCC->CR, RCC_CR_HSITRIM, Value << RCC_CR_HSITRIM_Pos);
 8001ed4:	4b07      	ldr	r3, [pc, #28]	; (8001ef4 <LL_RCC_HSI_SetCalibTrimming+0x28>)
 8001ed6:	681b      	ldr	r3, [r3, #0]
 8001ed8:	f023 02f8 	bic.w	r2, r3, #248	; 0xf8
 8001edc:	687b      	ldr	r3, [r7, #4]
 8001ede:	00db      	lsls	r3, r3, #3
 8001ee0:	4904      	ldr	r1, [pc, #16]	; (8001ef4 <LL_RCC_HSI_SetCalibTrimming+0x28>)
 8001ee2:	4313      	orrs	r3, r2
 8001ee4:	600b      	str	r3, [r1, #0]
}
 8001ee6:	bf00      	nop
 8001ee8:	370c      	adds	r7, #12
 8001eea:	46bd      	mov	sp, r7
 8001eec:	f85d 7b04 	ldr.w	r7, [sp], #4
 8001ef0:	4770      	bx	lr
 8001ef2:	bf00      	nop
 8001ef4:	40021000 	.word	0x40021000

08001ef8 <LL_RCC_SetSysClkSource>:
{
 8001ef8:	b480      	push	{r7}
 8001efa:	b083      	sub	sp, #12
 8001efc:	af00      	add	r7, sp, #0
 8001efe:	6078      	str	r0, [r7, #4]
  MODIFY_REG(RCC->CFGR, RCC_CFGR_SW, Source);
 8001f00:	4b06      	ldr	r3, [pc, #24]	; (8001f1c <LL_RCC_SetSysClkSource+0x24>)
 8001f02:	685b      	ldr	r3, [r3, #4]
 8001f04:	f023 0203 	bic.w	r2, r3, #3
 8001f08:	4904      	ldr	r1, [pc, #16]	; (8001f1c <LL_RCC_SetSysClkSource+0x24>)
 8001f0a:	687b      	ldr	r3, [r7, #4]
 8001f0c:	4313      	orrs	r3, r2
 8001f0e:	604b      	str	r3, [r1, #4]
}
 8001f10:	bf00      	nop
 8001f12:	370c      	adds	r7, #12
 8001f14:	46bd      	mov	sp, r7
 8001f16:	f85d 7b04 	ldr.w	r7, [sp], #4
 8001f1a:	4770      	bx	lr
 8001f1c:	40021000 	.word	0x40021000

08001f20 <LL_RCC_GetSysClkSource>:
{
 8001f20:	b480      	push	{r7}
 8001f22:	af00      	add	r7, sp, #0
  return (uint32_t)(READ_BIT(RCC->CFGR, RCC_CFGR_SWS));
 8001f24:	4b04      	ldr	r3, [pc, #16]	; (8001f38 <LL_RCC_GetSysClkSource+0x18>)
 8001f26:	685b      	ldr	r3, [r3, #4]
 8001f28:	f003 030c 	and.w	r3, r3, #12
}
 8001f2c:	4618      	mov	r0, r3
 8001f2e:	46bd      	mov	sp, r7
 8001f30:	f85d 7b04 	ldr.w	r7, [sp], #4
 8001f34:	4770      	bx	lr
 8001f36:	bf00      	nop
 8001f38:	40021000 	.word	0x40021000

08001f3c <LL_RCC_SetAHBPrescaler>:
{
 8001f3c:	b480      	push	{r7}
 8001f3e:	b083      	sub	sp, #12
 8001f40:	af00      	add	r7, sp, #0
 8001f42:	6078      	str	r0, [r7, #4]
  MODIFY_REG(RCC->CFGR, RCC_CFGR_HPRE, Prescaler);
 8001f44:	4b06      	ldr	r3, [pc, #24]	; (8001f60 <LL_RCC_SetAHBPrescaler+0x24>)
 8001f46:	685b      	ldr	r3, [r3, #4]
 8001f48:	f023 02f0 	bic.w	r2, r3, #240	; 0xf0
 8001f4c:	4904      	ldr	r1, [pc, #16]	; (8001f60 <LL_RCC_SetAHBPrescaler+0x24>)
 8001f4e:	687b      	ldr	r3, [r7, #4]
 8001f50:	4313      	orrs	r3, r2
 8001f52:	604b      	str	r3, [r1, #4]
}
 8001f54:	bf00      	nop
 8001f56:	370c      	adds	r7, #12
 8001f58:	46bd      	mov	sp, r7
 8001f5a:	f85d 7b04 	ldr.w	r7, [sp], #4
 8001f5e:	4770      	bx	lr
 8001f60:	40021000 	.word	0x40021000

08001f64 <LL_RCC_SetAPB1Prescaler>:
{
 8001f64:	b480      	push	{r7}
 8001f66:	b083      	sub	sp, #12
 8001f68:	af00      	add	r7, sp, #0
 8001f6a:	6078      	str	r0, [r7, #4]
  MODIFY_REG(RCC->CFGR, RCC_CFGR_PPRE1, Prescaler);
 8001f6c:	4b06      	ldr	r3, [pc, #24]	; (8001f88 <LL_RCC_SetAPB1Prescaler+0x24>)
 8001f6e:	685b      	ldr	r3, [r3, #4]
 8001f70:	f423 62e0 	bic.w	r2, r3, #1792	; 0x700
 8001f74:	4904      	ldr	r1, [pc, #16]	; (8001f88 <LL_RCC_SetAPB1Prescaler+0x24>)
 8001f76:	687b      	ldr	r3, [r7, #4]
 8001f78:	4313      	orrs	r3, r2
 8001f7a:	604b      	str	r3, [r1, #4]
}
 8001f7c:	bf00      	nop
 8001f7e:	370c      	adds	r7, #12
 8001f80:	46bd      	mov	sp, r7
 8001f82:	f85d 7b04 	ldr.w	r7, [sp], #4
 8001f86:	4770      	bx	lr
 8001f88:	40021000 	.word	0x40021000

08001f8c <LL_RCC_SetAPB2Prescaler>:
{
 8001f8c:	b480      	push	{r7}
 8001f8e:	b083      	sub	sp, #12
 8001f90:	af00      	add	r7, sp, #0
 8001f92:	6078      	str	r0, [r7, #4]
  MODIFY_REG(RCC->CFGR, RCC_CFGR_PPRE2, Prescaler);
 8001f94:	4b06      	ldr	r3, [pc, #24]	; (8001fb0 <LL_RCC_SetAPB2Prescaler+0x24>)
 8001f96:	685b      	ldr	r3, [r3, #4]
 8001f98:	f423 5260 	bic.w	r2, r3, #14336	; 0x3800
 8001f9c:	4904      	ldr	r1, [pc, #16]	; (8001fb0 <LL_RCC_SetAPB2Prescaler+0x24>)
 8001f9e:	687b      	ldr	r3, [r7, #4]
 8001fa0:	4313      	orrs	r3, r2
 8001fa2:	604b      	str	r3, [r1, #4]
}
 8001fa4:	bf00      	nop
 8001fa6:	370c      	adds	r7, #12
 8001fa8:	46bd      	mov	sp, r7
 8001faa:	f85d 7b04 	ldr.w	r7, [sp], #4
 8001fae:	4770      	bx	lr
 8001fb0:	40021000 	.word	0x40021000

08001fb4 <LL_APB1_GRP1_EnableClock>:
  *
  *         (*) value not defined in all devices.
  * @retval None
*/
__STATIC_INLINE void LL_APB1_GRP1_EnableClock(uint32_t Periphs)
{
 8001fb4:	b480      	push	{r7}
 8001fb6:	b085      	sub	sp, #20
 8001fb8:	af00      	add	r7, sp, #0
 8001fba:	6078      	str	r0, [r7, #4]
  __IO uint32_t tmpreg;
  SET_BIT(RCC->APB1ENR, Periphs);
 8001fbc:	4b08      	ldr	r3, [pc, #32]	; (8001fe0 <LL_APB1_GRP1_EnableClock+0x2c>)
 8001fbe:	69da      	ldr	r2, [r3, #28]
 8001fc0:	4907      	ldr	r1, [pc, #28]	; (8001fe0 <LL_APB1_GRP1_EnableClock+0x2c>)
 8001fc2:	687b      	ldr	r3, [r7, #4]
 8001fc4:	4313      	orrs	r3, r2
 8001fc6:	61cb      	str	r3, [r1, #28]
  /* Delay after an RCC peripheral clock enabling */
  tmpreg = READ_BIT(RCC->APB1ENR, Periphs);
 8001fc8:	4b05      	ldr	r3, [pc, #20]	; (8001fe0 <LL_APB1_GRP1_EnableClock+0x2c>)
 8001fca:	69da      	ldr	r2, [r3, #28]
 8001fcc:	687b      	ldr	r3, [r7, #4]
 8001fce:	4013      	ands	r3, r2
 8001fd0:	60fb      	str	r3, [r7, #12]
  (void)tmpreg;
 8001fd2:	68fb      	ldr	r3, [r7, #12]
}
 8001fd4:	bf00      	nop
 8001fd6:	3714      	adds	r7, #20
 8001fd8:	46bd      	mov	sp, r7
 8001fda:	f85d 7b04 	ldr.w	r7, [sp], #4
 8001fde:	4770      	bx	lr
 8001fe0:	40021000 	.word	0x40021000

08001fe4 <LL_APB2_GRP1_EnableClock>:
  *
  *         (*) value not defined in all devices.
  * @retval None
*/
__STATIC_INLINE void LL_APB2_GRP1_EnableClock(uint32_t Periphs)
{
 8001fe4:	b480      	push	{r7}
 8001fe6:	b085      	sub	sp, #20
 8001fe8:	af00      	add	r7, sp, #0
 8001fea:	6078      	str	r0, [r7, #4]
  __IO uint32_t tmpreg;
  SET_BIT(RCC->APB2ENR, Periphs);
 8001fec:	4b08      	ldr	r3, [pc, #32]	; (8002010 <LL_APB2_GRP1_EnableClock+0x2c>)
 8001fee:	699a      	ldr	r2, [r3, #24]
 8001ff0:	4907      	ldr	r1, [pc, #28]	; (8002010 <LL_APB2_GRP1_EnableClock+0x2c>)
 8001ff2:	687b      	ldr	r3, [r7, #4]
 8001ff4:	4313      	orrs	r3, r2
 8001ff6:	618b      	str	r3, [r1, #24]
  /* Delay after an RCC peripheral clock enabling */
  tmpreg = READ_BIT(RCC->APB2ENR, Periphs);
 8001ff8:	4b05      	ldr	r3, [pc, #20]	; (8002010 <LL_APB2_GRP1_EnableClock+0x2c>)
 8001ffa:	699a      	ldr	r2, [r3, #24]
 8001ffc:	687b      	ldr	r3, [r7, #4]
 8001ffe:	4013      	ands	r3, r2
 8002000:	60fb      	str	r3, [r7, #12]
  (void)tmpreg;
 8002002:	68fb      	ldr	r3, [r7, #12]
}
 8002004:	bf00      	nop
 8002006:	3714      	adds	r7, #20
 8002008:	46bd      	mov	sp, r7
 800200a:	f85d 7b04 	ldr.w	r7, [sp], #4
 800200e:	4770      	bx	lr
 8002010:	40021000 	.word	0x40021000

08002014 <LL_FLASH_SetLatency>:
  *         @arg @ref LL_FLASH_LATENCY_1
  *         @arg @ref LL_FLASH_LATENCY_2
  * @retval None
  */
__STATIC_INLINE void LL_FLASH_SetLatency(uint32_t Latency)
{
 8002014:	b480      	push	{r7}
 8002016:	b083      	sub	sp, #12
 8002018:	af00      	add	r7, sp, #0
 800201a:	6078      	str	r0, [r7, #4]
  MODIFY_REG(FLASH->ACR, FLASH_ACR_LATENCY, Latency);
 800201c:	4b06      	ldr	r3, [pc, #24]	; (8002038 <LL_FLASH_SetLatency+0x24>)
 800201e:	681b      	ldr	r3, [r3, #0]
 8002020:	f023 0207 	bic.w	r2, r3, #7
 8002024:	4904      	ldr	r1, [pc, #16]	; (8002038 <LL_FLASH_SetLatency+0x24>)
 8002026:	687b      	ldr	r3, [r7, #4]
 8002028:	4313      	orrs	r3, r2
 800202a:	600b      	str	r3, [r1, #0]
}
 800202c:	bf00      	nop
 800202e:	370c      	adds	r7, #12
 8002030:	46bd      	mov	sp, r7
 8002032:	f85d 7b04 	ldr.w	r7, [sp], #4
 8002036:	4770      	bx	lr
 8002038:	40022000 	.word	0x40022000

0800203c <LL_FLASH_GetLatency>:
  *         @arg @ref LL_FLASH_LATENCY_0
  *         @arg @ref LL_FLASH_LATENCY_1
  *         @arg @ref LL_FLASH_LATENCY_2
  */
__STATIC_INLINE uint32_t LL_FLASH_GetLatency(void)
{
 800203c:	b480      	push	{r7}
 800203e:	af00      	add	r7, sp, #0
  return (uint32_t)(READ_BIT(FLASH->ACR, FLASH_ACR_LATENCY));
 8002040:	4b04      	ldr	r3, [pc, #16]	; (8002054 <LL_FLASH_GetLatency+0x18>)
 8002042:	681b      	ldr	r3, [r3, #0]
 8002044:	f003 0307 	and.w	r3, r3, #7
}
 8002048:	4618      	mov	r0, r3
 800204a:	46bd      	mov	sp, r7
 800204c:	f85d 7b04 	ldr.w	r7, [sp], #4
 8002050:	4770      	bx	lr
 8002052:	bf00      	nop
 8002054:	40022000 	.word	0x40022000

08002058 <LL_SYSTICK_SetClkSource>:
  *         @arg @ref LL_SYSTICK_CLKSOURCE_HCLK_DIV8
  *         @arg @ref LL_SYSTICK_CLKSOURCE_HCLK
  * @retval None
  */
__STATIC_INLINE void LL_SYSTICK_SetClkSource(uint32_t Source)
{
 8002058:	b480      	push	{r7}
 800205a:	b083      	sub	sp, #12
 800205c:	af00      	add	r7, sp, #0
 800205e:	6078      	str	r0, [r7, #4]
  if (Source == LL_SYSTICK_CLKSOURCE_HCLK)
 8002060:	687b      	ldr	r3, [r7, #4]
 8002062:	2b04      	cmp	r3, #4
 8002064:	d106      	bne.n	8002074 <LL_SYSTICK_SetClkSource+0x1c>
  {
    SET_BIT(SysTick->CTRL, LL_SYSTICK_CLKSOURCE_HCLK);
 8002066:	4b09      	ldr	r3, [pc, #36]	; (800208c <LL_SYSTICK_SetClkSource+0x34>)
 8002068:	681b      	ldr	r3, [r3, #0]
 800206a:	4a08      	ldr	r2, [pc, #32]	; (800208c <LL_SYSTICK_SetClkSource+0x34>)
 800206c:	f043 0304 	orr.w	r3, r3, #4
 8002070:	6013      	str	r3, [r2, #0]
  }
  else
  {
    CLEAR_BIT(SysTick->CTRL, LL_SYSTICK_CLKSOURCE_HCLK);
  }
}
 8002072:	e005      	b.n	8002080 <LL_SYSTICK_SetClkSource+0x28>
    CLEAR_BIT(SysTick->CTRL, LL_SYSTICK_CLKSOURCE_HCLK);
 8002074:	4b05      	ldr	r3, [pc, #20]	; (800208c <LL_SYSTICK_SetClkSource+0x34>)
 8002076:	681b      	ldr	r3, [r3, #0]
 8002078:	4a04      	ldr	r2, [pc, #16]	; (800208c <LL_SYSTICK_SetClkSource+0x34>)
 800207a:	f023 0304 	bic.w	r3, r3, #4
 800207e:	6013      	str	r3, [r2, #0]
}
 8002080:	bf00      	nop
 8002082:	370c      	adds	r7, #12
 8002084:	46bd      	mov	sp, r7
 8002086:	f85d 7b04 	ldr.w	r7, [sp], #4
 800208a:	4770      	bx	lr
 800208c:	e000e010 	.word	0xe000e010

08002090 <LL_TIM_EnableCounter>:
{
 8002090:	b480      	push	{r7}
 8002092:	b083      	sub	sp, #12
 8002094:	af00      	add	r7, sp, #0
 8002096:	6078      	str	r0, [r7, #4]
  SET_BIT(TIMx->CR1, TIM_CR1_CEN);
 8002098:	687b      	ldr	r3, [r7, #4]
 800209a:	681b      	ldr	r3, [r3, #0]
 800209c:	f043 0201 	orr.w	r2, r3, #1
 80020a0:	687b      	ldr	r3, [r7, #4]
 80020a2:	601a      	str	r2, [r3, #0]
}
 80020a4:	bf00      	nop
 80020a6:	370c      	adds	r7, #12
 80020a8:	46bd      	mov	sp, r7
 80020aa:	f85d 7b04 	ldr.w	r7, [sp], #4
 80020ae:	4770      	bx	lr

080020b0 <LL_TIM_CC_EnableChannel>:
{
 80020b0:	b480      	push	{r7}
 80020b2:	b083      	sub	sp, #12
 80020b4:	af00      	add	r7, sp, #0
 80020b6:	6078      	str	r0, [r7, #4]
 80020b8:	6039      	str	r1, [r7, #0]
  SET_BIT(TIMx->CCER, Channels);
 80020ba:	687b      	ldr	r3, [r7, #4]
 80020bc:	6a1a      	ldr	r2, [r3, #32]
 80020be:	683b      	ldr	r3, [r7, #0]
 80020c0:	431a      	orrs	r2, r3
 80020c2:	687b      	ldr	r3, [r7, #4]
 80020c4:	621a      	str	r2, [r3, #32]
}
 80020c6:	bf00      	nop
 80020c8:	370c      	adds	r7, #12
 80020ca:	46bd      	mov	sp, r7
 80020cc:	f85d 7b04 	ldr.w	r7, [sp], #4
 80020d0:	4770      	bx	lr

080020d2 <LL_TIM_EnableIT_UPDATE>:
{
 80020d2:	b480      	push	{r7}
 80020d4:	b083      	sub	sp, #12
 80020d6:	af00      	add	r7, sp, #0
 80020d8:	6078      	str	r0, [r7, #4]
  SET_BIT(TIMx->DIER, TIM_DIER_UIE);
 80020da:	687b      	ldr	r3, [r7, #4]
 80020dc:	68db      	ldr	r3, [r3, #12]
 80020de:	f043 0201 	orr.w	r2, r3, #1
 80020e2:	687b      	ldr	r3, [r7, #4]
 80020e4:	60da      	str	r2, [r3, #12]
}
 80020e6:	bf00      	nop
 80020e8:	370c      	adds	r7, #12
 80020ea:	46bd      	mov	sp, r7
 80020ec:	f85d 7b04 	ldr.w	r7, [sp], #4
 80020f0:	4770      	bx	lr
	...

080020f4 <main>:
/**
  * @brief  The application entry point.
  * @retval int
  */
int main(void)
{
 80020f4:	b5b0      	push	{r4, r5, r7, lr}
 80020f6:	b08a      	sub	sp, #40	; 0x28
 80020f8:	af06      	add	r7, sp, #24

  /* MCU Configuration--------------------------------------------------------*/

  /* Reset of all peripherals, Initializes the Flash interface and the Systick. */

  LL_APB2_GRP1_EnableClock(LL_APB2_GRP1_PERIPH_SYSCFG);
 80020fa:	2001      	movs	r0, #1
 80020fc:	f7ff ff72 	bl	8001fe4 <LL_APB2_GRP1_EnableClock>
  LL_APB1_GRP1_EnableClock(LL_APB1_GRP1_PERIPH_PWR);
 8002100:	f04f 5080 	mov.w	r0, #268435456	; 0x10000000
 8002104:	f7ff ff56 	bl	8001fb4 <LL_APB1_GRP1_EnableClock>

  NVIC_SetPriorityGrouping(NVIC_PRIORITYGROUP_4);
 8002108:	2003      	movs	r0, #3
 800210a:	f7ff fe83 	bl	8001e14 <NVIC_SetPriorityGrouping>
  /* USER CODE BEGIN Init */

  /* USER CODE END Init */

  /* Configure the system clock */
  SystemClock_Config();
 800210e:	f000 f873 	bl	80021f8 <SystemClock_Config>
  /* USER CODE BEGIN SysInit */

  /* USER CODE END SysInit */

  /* Initialize all configured peripherals */
  MX_GPIO_Init();
 8002112:	f7ff fe77 	bl	8001e04 <MX_GPIO_Init>
  MX_DMA_Init();
 8002116:	f7ff fe35 	bl	8001d84 <MX_DMA_Init>
  MX_USART2_UART_Init();
 800211a:	f001 f969 	bl	80033f0 <MX_USART2_UART_Init>
  MX_TIM2_Init();
 800211e:	f000 fda3 	bl	8002c68 <MX_TIM2_Init>

  USART2_RegisterCallback(proccesDmaData);
 8002122:	482c      	ldr	r0, [pc, #176]	; (80021d4 <main+0xe0>)
 8002124:	f001 f952 	bl	80033cc <USART2_RegisterCallback>
  LL_TIM_CC_EnableChannel(TIM2, LL_TIM_CHANNEL_CH1);
 8002128:	2101      	movs	r1, #1
 800212a:	f04f 4080 	mov.w	r0, #1073741824	; 0x40000000
 800212e:	f7ff ffbf 	bl	80020b0 <LL_TIM_CC_EnableChannel>
  LL_TIM_EnableIT_UPDATE(TIM2);
 8002132:	f04f 4080 	mov.w	r0, #1073741824	; 0x40000000
 8002136:	f7ff ffcc 	bl	80020d2 <LL_TIM_EnableIT_UPDATE>
  LL_TIM_EnableCounter(TIM2);
 800213a:	f04f 4080 	mov.w	r0, #1073741824	; 0x40000000
 800213e:	f7ff ffa7 	bl	8002090 <LL_TIM_EnableCounter>

  /* Infinite loop */
  /* USER CODE BEGIN WHILE */
  while (1)
  {
	  uint8_t occupied_memory = DMA_USART2_BUFFER_SIZE - LL_DMA_GetDataLength(DMA1, LL_DMA_CHANNEL_6);
 8002142:	2106      	movs	r1, #6
 8002144:	4824      	ldr	r0, [pc, #144]	; (80021d8 <main+0xe4>)
 8002146:	f7ff fe89 	bl	8001e5c <LL_DMA_GetDataLength>
 800214a:	4603      	mov	r3, r0
 800214c:	b2db      	uxtb	r3, r3
 800214e:	425b      	negs	r3, r3
 8002150:	73fb      	strb	r3, [r7, #15]
	  float load = occupied_memory / (float) DMA_USART2_BUFFER_SIZE * 100;
 8002152:	7bfb      	ldrb	r3, [r7, #15]
 8002154:	ee07 3a90 	vmov	s15, r3
 8002158:	eeb8 7ae7 	vcvt.f32.s32	s14, s15
 800215c:	eddf 6a1f 	vldr	s13, [pc, #124]	; 80021dc <main+0xe8>
 8002160:	eec7 7a26 	vdiv.f32	s15, s14, s13
 8002164:	ed9f 7a1e 	vldr	s14, [pc, #120]	; 80021e0 <main+0xec>
 8002168:	ee67 7a87 	vmul.f32	s15, s15, s14
 800216c:	edc7 7a02 	vstr	s15, [r7, #8]
	  char mode_string[STRING_SIZE];

	  if (mode) strcpy(mode_string, "manual");
 8002170:	4b1c      	ldr	r3, [pc, #112]	; (80021e4 <main+0xf0>)
 8002172:	781b      	ldrb	r3, [r3, #0]
 8002174:	2b00      	cmp	r3, #0
 8002176:	d00a      	beq.n	800218e <main+0x9a>
 8002178:	463b      	mov	r3, r7
 800217a:	4a1b      	ldr	r2, [pc, #108]	; (80021e8 <main+0xf4>)
 800217c:	e892 0003 	ldmia.w	r2, {r0, r1}
 8002180:	6018      	str	r0, [r3, #0]
 8002182:	3304      	adds	r3, #4
 8002184:	8019      	strh	r1, [r3, #0]
 8002186:	3302      	adds	r3, #2
 8002188:	0c0a      	lsrs	r2, r1, #16
 800218a:	701a      	strb	r2, [r3, #0]
 800218c:	e006      	b.n	800219c <main+0xa8>
	  else strcpy(mode_string, "auto");
 800218e:	463b      	mov	r3, r7
 8002190:	4a16      	ldr	r2, [pc, #88]	; (80021ec <main+0xf8>)
 8002192:	e892 0003 	ldmia.w	r2, {r0, r1}
 8002196:	6018      	str	r0, [r3, #0]
 8002198:	3304      	adds	r3, #4
 800219a:	7019      	strb	r1, [r3, #0]

	  snprintf(tx_data, sizeof(tx_data), "Buffer capacity: %d bytes, occupied memory: %d bytes, load: %.2f %%\n\rMode: %s\n\r\n\r",
 800219c:	7bfd      	ldrb	r5, [r7, #15]
 800219e:	68b8      	ldr	r0, [r7, #8]
 80021a0:	f7fe f9d2 	bl	8000548 <__aeabi_f2d>
 80021a4:	4603      	mov	r3, r0
 80021a6:	460c      	mov	r4, r1
 80021a8:	463a      	mov	r2, r7
 80021aa:	9204      	str	r2, [sp, #16]
 80021ac:	e9cd 3402 	strd	r3, r4, [sp, #8]
 80021b0:	9500      	str	r5, [sp, #0]
 80021b2:	f44f 7380 	mov.w	r3, #256	; 0x100
 80021b6:	4a0e      	ldr	r2, [pc, #56]	; (80021f0 <main+0xfc>)
 80021b8:	2180      	movs	r1, #128	; 0x80
 80021ba:	480e      	ldr	r0, [pc, #56]	; (80021f4 <main+0x100>)
 80021bc:	f001 ff2e 	bl	800401c <sniprintf>
			  DMA_USART2_BUFFER_SIZE, occupied_memory, load, mode_string);
	  USART2_PutBuffer(tx_data, sizeof(tx_data));
 80021c0:	2180      	movs	r1, #128	; 0x80
 80021c2:	480c      	ldr	r0, [pc, #48]	; (80021f4 <main+0x100>)
 80021c4:	f001 f9fa 	bl	80035bc <USART2_PutBuffer>

	  LL_mDelay(2000);
 80021c8:	f44f 60fa 	mov.w	r0, #2000	; 0x7d0
 80021cc:	f7ff fd08 	bl	8001be0 <LL_mDelay>
  {
 80021d0:	e7b7      	b.n	8002142 <main+0x4e>
 80021d2:	bf00      	nop
 80021d4:	08002265 	.word	0x08002265
 80021d8:	40020000 	.word	0x40020000
 80021dc:	43800000 	.word	0x43800000
 80021e0:	42c80000 	.word	0x42c80000
 80021e4:	200001f4 	.word	0x200001f4
 80021e8:	080061e0 	.word	0x080061e0
 80021ec:	080061e8 	.word	0x080061e8
 80021f0:	080061f0 	.word	0x080061f0
 80021f4:	20000220 	.word	0x20000220

080021f8 <SystemClock_Config>:
/**
  * @brief System Clock Configuration
  * @retval None
  */
void SystemClock_Config(void)
{
 80021f8:	b580      	push	{r7, lr}
 80021fa:	af00      	add	r7, sp, #0
  LL_FLASH_SetLatency(LL_FLASH_LATENCY_0);
 80021fc:	2000      	movs	r0, #0
 80021fe:	f7ff ff09 	bl	8002014 <LL_FLASH_SetLatency>

  if(LL_FLASH_GetLatency() != LL_FLASH_LATENCY_0)
 8002202:	f7ff ff1b 	bl	800203c <LL_FLASH_GetLatency>
 8002206:	4603      	mov	r3, r0
 8002208:	2b00      	cmp	r3, #0
 800220a:	d001      	beq.n	8002210 <SystemClock_Config+0x18>
  {
  Error_Handler();
 800220c:	f000 f986 	bl	800251c <Error_Handler>
  }
  LL_RCC_HSI_Enable();
 8002210:	f7ff fe3a 	bl	8001e88 <LL_RCC_HSI_Enable>

   /* Wait till HSI is ready */
  while(LL_RCC_HSI_IsReady() != 1)
 8002214:	bf00      	nop
 8002216:	f7ff fe47 	bl	8001ea8 <LL_RCC_HSI_IsReady>
 800221a:	4603      	mov	r3, r0
 800221c:	2b01      	cmp	r3, #1
 800221e:	d1fa      	bne.n	8002216 <SystemClock_Config+0x1e>
  {

  }
  LL_RCC_HSI_SetCalibTrimming(16);
 8002220:	2010      	movs	r0, #16
 8002222:	f7ff fe53 	bl	8001ecc <LL_RCC_HSI_SetCalibTrimming>
  LL_RCC_SetAHBPrescaler(LL_RCC_SYSCLK_DIV_1);
 8002226:	2000      	movs	r0, #0
 8002228:	f7ff fe88 	bl	8001f3c <LL_RCC_SetAHBPrescaler>
  LL_RCC_SetAPB1Prescaler(LL_RCC_APB1_DIV_1);
 800222c:	2000      	movs	r0, #0
 800222e:	f7ff fe99 	bl	8001f64 <LL_RCC_SetAPB1Prescaler>
  LL_RCC_SetAPB2Prescaler(LL_RCC_APB1_DIV_1);
 8002232:	2000      	movs	r0, #0
 8002234:	f7ff feaa 	bl	8001f8c <LL_RCC_SetAPB2Prescaler>
  LL_RCC_SetSysClkSource(LL_RCC_SYS_CLKSOURCE_HSI);
 8002238:	2000      	movs	r0, #0
 800223a:	f7ff fe5d 	bl	8001ef8 <LL_RCC_SetSysClkSource>

   /* Wait till System clock is ready */
  while(LL_RCC_GetSysClkSource() != LL_RCC_SYS_CLKSOURCE_STATUS_HSI)
 800223e:	bf00      	nop
 8002240:	f7ff fe6e 	bl	8001f20 <LL_RCC_GetSysClkSource>
 8002244:	4603      	mov	r3, r0
 8002246:	2b00      	cmp	r3, #0
 8002248:	d1fa      	bne.n	8002240 <SystemClock_Config+0x48>
  {

  }
  LL_Init1msTick(8000000);
 800224a:	4805      	ldr	r0, [pc, #20]	; (8002260 <SystemClock_Config+0x68>)
 800224c:	f7ff fcba 	bl	8001bc4 <LL_Init1msTick>
  LL_SYSTICK_SetClkSource(LL_SYSTICK_CLKSOURCE_HCLK);
 8002250:	2004      	movs	r0, #4
 8002252:	f7ff ff01 	bl	8002058 <LL_SYSTICK_SetClkSource>
  LL_SetSystemCoreClock(8000000);
 8002256:	4802      	ldr	r0, [pc, #8]	; (8002260 <SystemClock_Config+0x68>)
 8002258:	f7ff fce6 	bl	8001c28 <LL_SetSystemCoreClock>
}
 800225c:	bf00      	nop
 800225e:	bd80      	pop	{r7, pc}
 8002260:	007a1200 	.word	0x007a1200

08002264 <proccesDmaData>:

void proccesDmaData(uint8_t* sign, uint16_t len)
{
 8002264:	b580      	push	{r7, lr}
 8002266:	b086      	sub	sp, #24
 8002268:	af00      	add	r7, sp, #0
 800226a:	6078      	str	r0, [r7, #4]
 800226c:	460b      	mov	r3, r1
 800226e:	807b      	strh	r3, [r7, #2]
	static char string[STRING_SIZE], pwm_string[3];
	static uint8_t it = 0, it2 = 0, pwm_value;

	for (uint8_t i = 0; i < len; i++) {
 8002270:	2300      	movs	r3, #0
 8002272:	75fb      	strb	r3, [r7, #23]
 8002274:	e113      	b.n	800249e <proccesDmaData+0x23a>
		if (*(sign+i) == '$') {
 8002276:	7dfb      	ldrb	r3, [r7, #23]
 8002278:	687a      	ldr	r2, [r7, #4]
 800227a:	4413      	add	r3, r2
 800227c:	781b      	ldrb	r3, [r3, #0]
 800227e:	2b24      	cmp	r3, #36	; 0x24
 8002280:	d102      	bne.n	8002288 <proccesDmaData+0x24>
			start = 1;
 8002282:	4b8c      	ldr	r3, [pc, #560]	; (80024b4 <proccesDmaData+0x250>)
 8002284:	2201      	movs	r2, #1
 8002286:	701a      	strb	r2, [r3, #0]
		}

		if (start) {
 8002288:	4b8a      	ldr	r3, [pc, #552]	; (80024b4 <proccesDmaData+0x250>)
 800228a:	781b      	ldrb	r3, [r3, #0]
 800228c:	2b00      	cmp	r3, #0
 800228e:	f000 80f3 	beq.w	8002478 <proccesDmaData+0x214>
			string[it++] = *(sign+i);
 8002292:	7dfb      	ldrb	r3, [r7, #23]
 8002294:	687a      	ldr	r2, [r7, #4]
 8002296:	441a      	add	r2, r3
 8002298:	4b87      	ldr	r3, [pc, #540]	; (80024b8 <proccesDmaData+0x254>)
 800229a:	781b      	ldrb	r3, [r3, #0]
 800229c:	1c59      	adds	r1, r3, #1
 800229e:	b2c8      	uxtb	r0, r1
 80022a0:	4985      	ldr	r1, [pc, #532]	; (80024b8 <proccesDmaData+0x254>)
 80022a2:	7008      	strb	r0, [r1, #0]
 80022a4:	4619      	mov	r1, r3
 80022a6:	7812      	ldrb	r2, [r2, #0]
 80022a8:	4b84      	ldr	r3, [pc, #528]	; (80024bc <proccesDmaData+0x258>)
 80022aa:	545a      	strb	r2, [r3, r1]

			if (strstr(string, "$auto$")) {
 80022ac:	4984      	ldr	r1, [pc, #528]	; (80024c0 <proccesDmaData+0x25c>)
 80022ae:	4883      	ldr	r0, [pc, #524]	; (80024bc <proccesDmaData+0x258>)
 80022b0:	f001 ff14 	bl	80040dc <strstr>
 80022b4:	4603      	mov	r3, r0
 80022b6:	2b00      	cmp	r3, #0
 80022b8:	d015      	beq.n	80022e6 <proccesDmaData+0x82>
				mode = 0; start = 0; it = 0;
 80022ba:	4b82      	ldr	r3, [pc, #520]	; (80024c4 <proccesDmaData+0x260>)
 80022bc:	2200      	movs	r2, #0
 80022be:	701a      	strb	r2, [r3, #0]
 80022c0:	4b7c      	ldr	r3, [pc, #496]	; (80024b4 <proccesDmaData+0x250>)
 80022c2:	2200      	movs	r2, #0
 80022c4:	701a      	strb	r2, [r3, #0]
 80022c6:	4b7c      	ldr	r3, [pc, #496]	; (80024b8 <proccesDmaData+0x254>)
 80022c8:	2200      	movs	r2, #0
 80022ca:	701a      	strb	r2, [r3, #0]
				for(uint8_t i = 0; i < STRING_SIZE; i++) string[i] = 0;
 80022cc:	2300      	movs	r3, #0
 80022ce:	75bb      	strb	r3, [r7, #22]
 80022d0:	e006      	b.n	80022e0 <proccesDmaData+0x7c>
 80022d2:	7dbb      	ldrb	r3, [r7, #22]
 80022d4:	4a79      	ldr	r2, [pc, #484]	; (80024bc <proccesDmaData+0x258>)
 80022d6:	2100      	movs	r1, #0
 80022d8:	54d1      	strb	r1, [r2, r3]
 80022da:	7dbb      	ldrb	r3, [r7, #22]
 80022dc:	3301      	adds	r3, #1
 80022de:	75bb      	strb	r3, [r7, #22]
 80022e0:	7dbb      	ldrb	r3, [r7, #22]
 80022e2:	2b07      	cmp	r3, #7
 80022e4:	d9f5      	bls.n	80022d2 <proccesDmaData+0x6e>
			}

			if (strstr(string, "$manual$")) {
 80022e6:	4978      	ldr	r1, [pc, #480]	; (80024c8 <proccesDmaData+0x264>)
 80022e8:	4874      	ldr	r0, [pc, #464]	; (80024bc <proccesDmaData+0x258>)
 80022ea:	f001 fef7 	bl	80040dc <strstr>
 80022ee:	4603      	mov	r3, r0
 80022f0:	2b00      	cmp	r3, #0
 80022f2:	d015      	beq.n	8002320 <proccesDmaData+0xbc>
				mode = 1; start = 0; it = 0;
 80022f4:	4b73      	ldr	r3, [pc, #460]	; (80024c4 <proccesDmaData+0x260>)
 80022f6:	2201      	movs	r2, #1
 80022f8:	701a      	strb	r2, [r3, #0]
 80022fa:	4b6e      	ldr	r3, [pc, #440]	; (80024b4 <proccesDmaData+0x250>)
 80022fc:	2200      	movs	r2, #0
 80022fe:	701a      	strb	r2, [r3, #0]
 8002300:	4b6d      	ldr	r3, [pc, #436]	; (80024b8 <proccesDmaData+0x254>)
 8002302:	2200      	movs	r2, #0
 8002304:	701a      	strb	r2, [r3, #0]
				for(uint8_t i = 0; i < STRING_SIZE; i++) string[i] = 0;
 8002306:	2300      	movs	r3, #0
 8002308:	757b      	strb	r3, [r7, #21]
 800230a:	e006      	b.n	800231a <proccesDmaData+0xb6>
 800230c:	7d7b      	ldrb	r3, [r7, #21]
 800230e:	4a6b      	ldr	r2, [pc, #428]	; (80024bc <proccesDmaData+0x258>)
 8002310:	2100      	movs	r1, #0
 8002312:	54d1      	strb	r1, [r2, r3]
 8002314:	7d7b      	ldrb	r3, [r7, #21]
 8002316:	3301      	adds	r3, #1
 8002318:	757b      	strb	r3, [r7, #21]
 800231a:	7d7b      	ldrb	r3, [r7, #21]
 800231c:	2b07      	cmp	r3, #7
 800231e:	d9f5      	bls.n	800230c <proccesDmaData+0xa8>
			}

			if (it >= STRING_SIZE) for(uint8_t i = 0; i < STRING_SIZE; i++) string[i] = 0;
 8002320:	4b65      	ldr	r3, [pc, #404]	; (80024b8 <proccesDmaData+0x254>)
 8002322:	781b      	ldrb	r3, [r3, #0]
 8002324:	2b07      	cmp	r3, #7
 8002326:	d90c      	bls.n	8002342 <proccesDmaData+0xde>
 8002328:	2300      	movs	r3, #0
 800232a:	753b      	strb	r3, [r7, #20]
 800232c:	e006      	b.n	800233c <proccesDmaData+0xd8>
 800232e:	7d3b      	ldrb	r3, [r7, #20]
 8002330:	4a62      	ldr	r2, [pc, #392]	; (80024bc <proccesDmaData+0x258>)
 8002332:	2100      	movs	r1, #0
 8002334:	54d1      	strb	r1, [r2, r3]
 8002336:	7d3b      	ldrb	r3, [r7, #20]
 8002338:	3301      	adds	r3, #1
 800233a:	753b      	strb	r3, [r7, #20]
 800233c:	7d3b      	ldrb	r3, [r7, #20]
 800233e:	2b07      	cmp	r3, #7
 8002340:	d9f5      	bls.n	800232e <proccesDmaData+0xca>

			if (mode) {
 8002342:	4b60      	ldr	r3, [pc, #384]	; (80024c4 <proccesDmaData+0x260>)
 8002344:	781b      	ldrb	r3, [r3, #0]
 8002346:	2b00      	cmp	r3, #0
 8002348:	f000 80a6 	beq.w	8002498 <proccesDmaData+0x234>
				if (get_pwm_value) {
 800234c:	4b5f      	ldr	r3, [pc, #380]	; (80024cc <proccesDmaData+0x268>)
 800234e:	781b      	ldrb	r3, [r3, #0]
 8002350:	2b00      	cmp	r3, #0
 8002352:	f000 8086 	beq.w	8002462 <proccesDmaData+0x1fe>
					if (it2 >= 3) {
 8002356:	4b5e      	ldr	r3, [pc, #376]	; (80024d0 <proccesDmaData+0x26c>)
 8002358:	781b      	ldrb	r3, [r3, #0]
 800235a:	2b02      	cmp	r3, #2
 800235c:	d90c      	bls.n	8002378 <proccesDmaData+0x114>
						for(uint8_t i = 0; i < 3; i++) pwm_string[i] = 0;
 800235e:	2300      	movs	r3, #0
 8002360:	74fb      	strb	r3, [r7, #19]
 8002362:	e006      	b.n	8002372 <proccesDmaData+0x10e>
 8002364:	7cfb      	ldrb	r3, [r7, #19]
 8002366:	4a5b      	ldr	r2, [pc, #364]	; (80024d4 <proccesDmaData+0x270>)
 8002368:	2100      	movs	r1, #0
 800236a:	54d1      	strb	r1, [r2, r3]
 800236c:	7cfb      	ldrb	r3, [r7, #19]
 800236e:	3301      	adds	r3, #1
 8002370:	74fb      	strb	r3, [r7, #19]
 8002372:	7cfb      	ldrb	r3, [r7, #19]
 8002374:	2b02      	cmp	r3, #2
 8002376:	d9f5      	bls.n	8002364 <proccesDmaData+0x100>
					}

					if (it2 == 2 && *(sign+i) != '$') {
 8002378:	4b55      	ldr	r3, [pc, #340]	; (80024d0 <proccesDmaData+0x26c>)
 800237a:	781b      	ldrb	r3, [r3, #0]
 800237c:	2b02      	cmp	r3, #2
 800237e:	d128      	bne.n	80023d2 <proccesDmaData+0x16e>
 8002380:	7dfb      	ldrb	r3, [r7, #23]
 8002382:	687a      	ldr	r2, [r7, #4]
 8002384:	4413      	add	r3, r2
 8002386:	781b      	ldrb	r3, [r3, #0]
 8002388:	2b24      	cmp	r3, #36	; 0x24
 800238a:	d022      	beq.n	80023d2 <proccesDmaData+0x16e>
						start = 0; get_pwm_value = 0; it2 = 0;
 800238c:	4b49      	ldr	r3, [pc, #292]	; (80024b4 <proccesDmaData+0x250>)
 800238e:	2200      	movs	r2, #0
 8002390:	701a      	strb	r2, [r3, #0]
 8002392:	4b4e      	ldr	r3, [pc, #312]	; (80024cc <proccesDmaData+0x268>)
 8002394:	2200      	movs	r2, #0
 8002396:	701a      	strb	r2, [r3, #0]
 8002398:	4b4d      	ldr	r3, [pc, #308]	; (80024d0 <proccesDmaData+0x26c>)
 800239a:	2200      	movs	r2, #0
 800239c:	701a      	strb	r2, [r3, #0]
						for(uint8_t i = 0; i < STRING_SIZE; i++) string[i] = 0;
 800239e:	2300      	movs	r3, #0
 80023a0:	74bb      	strb	r3, [r7, #18]
 80023a2:	e006      	b.n	80023b2 <proccesDmaData+0x14e>
 80023a4:	7cbb      	ldrb	r3, [r7, #18]
 80023a6:	4a45      	ldr	r2, [pc, #276]	; (80024bc <proccesDmaData+0x258>)
 80023a8:	2100      	movs	r1, #0
 80023aa:	54d1      	strb	r1, [r2, r3]
 80023ac:	7cbb      	ldrb	r3, [r7, #18]
 80023ae:	3301      	adds	r3, #1
 80023b0:	74bb      	strb	r3, [r7, #18]
 80023b2:	7cbb      	ldrb	r3, [r7, #18]
 80023b4:	2b07      	cmp	r3, #7
 80023b6:	d9f5      	bls.n	80023a4 <proccesDmaData+0x140>
						for(uint8_t i = 0; i < 3; i++) pwm_string[i] = 0;
 80023b8:	2300      	movs	r3, #0
 80023ba:	747b      	strb	r3, [r7, #17]
 80023bc:	e006      	b.n	80023cc <proccesDmaData+0x168>
 80023be:	7c7b      	ldrb	r3, [r7, #17]
 80023c0:	4a44      	ldr	r2, [pc, #272]	; (80024d4 <proccesDmaData+0x270>)
 80023c2:	2100      	movs	r1, #0
 80023c4:	54d1      	strb	r1, [r2, r3]
 80023c6:	7c7b      	ldrb	r3, [r7, #17]
 80023c8:	3301      	adds	r3, #1
 80023ca:	747b      	strb	r3, [r7, #17]
 80023cc:	7c7b      	ldrb	r3, [r7, #17]
 80023ce:	2b02      	cmp	r3, #2
 80023d0:	d9f5      	bls.n	80023be <proccesDmaData+0x15a>
					}

					if (it2 == 2 && *(sign+i) == '$') {
 80023d2:	4b3f      	ldr	r3, [pc, #252]	; (80024d0 <proccesDmaData+0x26c>)
 80023d4:	781b      	ldrb	r3, [r3, #0]
 80023d6:	2b02      	cmp	r3, #2
 80023d8:	d130      	bne.n	800243c <proccesDmaData+0x1d8>
 80023da:	7dfb      	ldrb	r3, [r7, #23]
 80023dc:	687a      	ldr	r2, [r7, #4]
 80023de:	4413      	add	r3, r2
 80023e0:	781b      	ldrb	r3, [r3, #0]
 80023e2:	2b24      	cmp	r3, #36	; 0x24
 80023e4:	d12a      	bne.n	800243c <proccesDmaData+0x1d8>
						sscanf(pwm_string, "%d", &pwm_value);
 80023e6:	4a3c      	ldr	r2, [pc, #240]	; (80024d8 <proccesDmaData+0x274>)
 80023e8:	493c      	ldr	r1, [pc, #240]	; (80024dc <proccesDmaData+0x278>)
 80023ea:	483a      	ldr	r0, [pc, #232]	; (80024d4 <proccesDmaData+0x270>)
 80023ec:	f001 fe4a 	bl	8004084 <siscanf>
						start = 0; get_pwm_value = 0; it2 = 0; it = 0;
 80023f0:	4b30      	ldr	r3, [pc, #192]	; (80024b4 <proccesDmaData+0x250>)
 80023f2:	2200      	movs	r2, #0
 80023f4:	701a      	strb	r2, [r3, #0]
 80023f6:	4b35      	ldr	r3, [pc, #212]	; (80024cc <proccesDmaData+0x268>)
 80023f8:	2200      	movs	r2, #0
 80023fa:	701a      	strb	r2, [r3, #0]
 80023fc:	4b34      	ldr	r3, [pc, #208]	; (80024d0 <proccesDmaData+0x26c>)
 80023fe:	2200      	movs	r2, #0
 8002400:	701a      	strb	r2, [r3, #0]
 8002402:	4b2d      	ldr	r3, [pc, #180]	; (80024b8 <proccesDmaData+0x254>)
 8002404:	2200      	movs	r2, #0
 8002406:	701a      	strb	r2, [r3, #0]
						for(uint8_t i = 0; i < STRING_SIZE; i++) string[i] = 0;
 8002408:	2300      	movs	r3, #0
 800240a:	743b      	strb	r3, [r7, #16]
 800240c:	e006      	b.n	800241c <proccesDmaData+0x1b8>
 800240e:	7c3b      	ldrb	r3, [r7, #16]
 8002410:	4a2a      	ldr	r2, [pc, #168]	; (80024bc <proccesDmaData+0x258>)
 8002412:	2100      	movs	r1, #0
 8002414:	54d1      	strb	r1, [r2, r3]
 8002416:	7c3b      	ldrb	r3, [r7, #16]
 8002418:	3301      	adds	r3, #1
 800241a:	743b      	strb	r3, [r7, #16]
 800241c:	7c3b      	ldrb	r3, [r7, #16]
 800241e:	2b07      	cmp	r3, #7
 8002420:	d9f5      	bls.n	800240e <proccesDmaData+0x1aa>
						for(uint8_t i = 0; i < 3; i++) pwm_string[i] = 0;
 8002422:	2300      	movs	r3, #0
 8002424:	73fb      	strb	r3, [r7, #15]
 8002426:	e006      	b.n	8002436 <proccesDmaData+0x1d2>
 8002428:	7bfb      	ldrb	r3, [r7, #15]
 800242a:	4a2a      	ldr	r2, [pc, #168]	; (80024d4 <proccesDmaData+0x270>)
 800242c:	2100      	movs	r1, #0
 800242e:	54d1      	strb	r1, [r2, r3]
 8002430:	7bfb      	ldrb	r3, [r7, #15]
 8002432:	3301      	adds	r3, #1
 8002434:	73fb      	strb	r3, [r7, #15]
 8002436:	7bfb      	ldrb	r3, [r7, #15]
 8002438:	2b02      	cmp	r3, #2
 800243a:	d9f5      	bls.n	8002428 <proccesDmaData+0x1c4>
					}

					if (*(sign+i) >= 0 && *(sign+i) <= 9) pwm_string[it2++] = *(sign+i);
 800243c:	7dfb      	ldrb	r3, [r7, #23]
 800243e:	687a      	ldr	r2, [r7, #4]
 8002440:	4413      	add	r3, r2
 8002442:	781b      	ldrb	r3, [r3, #0]
 8002444:	2b09      	cmp	r3, #9
 8002446:	d80c      	bhi.n	8002462 <proccesDmaData+0x1fe>
 8002448:	7dfb      	ldrb	r3, [r7, #23]
 800244a:	687a      	ldr	r2, [r7, #4]
 800244c:	441a      	add	r2, r3
 800244e:	4b20      	ldr	r3, [pc, #128]	; (80024d0 <proccesDmaData+0x26c>)
 8002450:	781b      	ldrb	r3, [r3, #0]
 8002452:	1c59      	adds	r1, r3, #1
 8002454:	b2c8      	uxtb	r0, r1
 8002456:	491e      	ldr	r1, [pc, #120]	; (80024d0 <proccesDmaData+0x26c>)
 8002458:	7008      	strb	r0, [r1, #0]
 800245a:	4619      	mov	r1, r3
 800245c:	7812      	ldrb	r2, [r2, #0]
 800245e:	4b1d      	ldr	r3, [pc, #116]	; (80024d4 <proccesDmaData+0x270>)
 8002460:	545a      	strb	r2, [r3, r1]
				}

				if (strstr(string, "$PWM")) get_pwm_value = 1;
 8002462:	491f      	ldr	r1, [pc, #124]	; (80024e0 <proccesDmaData+0x27c>)
 8002464:	4815      	ldr	r0, [pc, #84]	; (80024bc <proccesDmaData+0x258>)
 8002466:	f001 fe39 	bl	80040dc <strstr>
 800246a:	4603      	mov	r3, r0
 800246c:	2b00      	cmp	r3, #0
 800246e:	d013      	beq.n	8002498 <proccesDmaData+0x234>
 8002470:	4b16      	ldr	r3, [pc, #88]	; (80024cc <proccesDmaData+0x268>)
 8002472:	2201      	movs	r2, #1
 8002474:	701a      	strb	r2, [r3, #0]
 8002476:	e00f      	b.n	8002498 <proccesDmaData+0x234>

			}
		}

		else {
			for (uint8_t i = 0; i < STRING_SIZE; i++) string[i] = 0;
 8002478:	2300      	movs	r3, #0
 800247a:	73bb      	strb	r3, [r7, #14]
 800247c:	e006      	b.n	800248c <proccesDmaData+0x228>
 800247e:	7bbb      	ldrb	r3, [r7, #14]
 8002480:	4a0e      	ldr	r2, [pc, #56]	; (80024bc <proccesDmaData+0x258>)
 8002482:	2100      	movs	r1, #0
 8002484:	54d1      	strb	r1, [r2, r3]
 8002486:	7bbb      	ldrb	r3, [r7, #14]
 8002488:	3301      	adds	r3, #1
 800248a:	73bb      	strb	r3, [r7, #14]
 800248c:	7bbb      	ldrb	r3, [r7, #14]
 800248e:	2b07      	cmp	r3, #7
 8002490:	d9f5      	bls.n	800247e <proccesDmaData+0x21a>
			it = 0;
 8002492:	4b09      	ldr	r3, [pc, #36]	; (80024b8 <proccesDmaData+0x254>)
 8002494:	2200      	movs	r2, #0
 8002496:	701a      	strb	r2, [r3, #0]
	for (uint8_t i = 0; i < len; i++) {
 8002498:	7dfb      	ldrb	r3, [r7, #23]
 800249a:	3301      	adds	r3, #1
 800249c:	75fb      	strb	r3, [r7, #23]
 800249e:	7dfb      	ldrb	r3, [r7, #23]
 80024a0:	b29b      	uxth	r3, r3
 80024a2:	887a      	ldrh	r2, [r7, #2]
 80024a4:	429a      	cmp	r2, r3
 80024a6:	f63f aee6 	bhi.w	8002276 <proccesDmaData+0x12>
		}
	}

}
 80024aa:	bf00      	nop
 80024ac:	3718      	adds	r7, #24
 80024ae:	46bd      	mov	sp, r7
 80024b0:	bd80      	pop	{r7, pc}
 80024b2:	bf00      	nop
 80024b4:	200001f5 	.word	0x200001f5
 80024b8:	200001f7 	.word	0x200001f7
 80024bc:	200001f8 	.word	0x200001f8
 80024c0:	08006244 	.word	0x08006244
 80024c4:	200001f4 	.word	0x200001f4
 80024c8:	0800624c 	.word	0x0800624c
 80024cc:	200001f6 	.word	0x200001f6
 80024d0:	20000200 	.word	0x20000200
 80024d4:	20000204 	.word	0x20000204
 80024d8:	20000207 	.word	0x20000207
 80024dc:	08006258 	.word	0x08006258
 80024e0:	0800625c 	.word	0x0800625c

080024e4 <setDutyCycle>:

void setDutyCycle(uint8_t D)
{
 80024e4:	b480      	push	{r7}
 80024e6:	b085      	sub	sp, #20
 80024e8:	af00      	add	r7, sp, #0
 80024ea:	4603      	mov	r3, r0
 80024ec:	71fb      	strb	r3, [r7, #7]
	uint8_t pulse_length = ((TIM2->ARR) * D) / 100;
 80024ee:	f04f 4380 	mov.w	r3, #1073741824	; 0x40000000
 80024f2:	6adb      	ldr	r3, [r3, #44]	; 0x2c
 80024f4:	79fa      	ldrb	r2, [r7, #7]
 80024f6:	fb02 f303 	mul.w	r3, r2, r3
 80024fa:	4a07      	ldr	r2, [pc, #28]	; (8002518 <setDutyCycle+0x34>)
 80024fc:	fba2 2303 	umull	r2, r3, r2, r3
 8002500:	095b      	lsrs	r3, r3, #5
 8002502:	73fb      	strb	r3, [r7, #15]
	TIM2->CCR1 = pulse_length;
 8002504:	f04f 4280 	mov.w	r2, #1073741824	; 0x40000000
 8002508:	7bfb      	ldrb	r3, [r7, #15]
 800250a:	6353      	str	r3, [r2, #52]	; 0x34
}
 800250c:	bf00      	nop
 800250e:	3714      	adds	r7, #20
 8002510:	46bd      	mov	sp, r7
 8002512:	f85d 7b04 	ldr.w	r7, [sp], #4
 8002516:	4770      	bx	lr
 8002518:	51eb851f 	.word	0x51eb851f

0800251c <Error_Handler>:
/**
  * @brief  This function is executed in case of error occurrence.
  * @retval None
  */
void Error_Handler(void)
{
 800251c:	b480      	push	{r7}
 800251e:	af00      	add	r7, sp, #0
  /* USER CODE BEGIN Error_Handler_Debug */
  /* User can add his own implementation to report the HAL error return state */

  /* USER CODE END Error_Handler_Debug */
}
 8002520:	bf00      	nop
 8002522:	46bd      	mov	sp, r7
 8002524:	f85d 7b04 	ldr.w	r7, [sp], #4
 8002528:	4770      	bx	lr
	...

0800252c <LL_DMA_DisableChannel>:
{
 800252c:	b480      	push	{r7}
 800252e:	b083      	sub	sp, #12
 8002530:	af00      	add	r7, sp, #0
 8002532:	6078      	str	r0, [r7, #4]
 8002534:	6039      	str	r1, [r7, #0]
  CLEAR_BIT(((DMA_Channel_TypeDef *)((uint32_t)((uint32_t)DMAx + CHANNEL_OFFSET_TAB[Channel - 1U])))->CCR, DMA_CCR_EN);
 8002536:	683b      	ldr	r3, [r7, #0]
 8002538:	3b01      	subs	r3, #1
 800253a:	4a0b      	ldr	r2, [pc, #44]	; (8002568 <LL_DMA_DisableChannel+0x3c>)
 800253c:	5cd3      	ldrb	r3, [r2, r3]
 800253e:	461a      	mov	r2, r3
 8002540:	687b      	ldr	r3, [r7, #4]
 8002542:	4413      	add	r3, r2
 8002544:	681b      	ldr	r3, [r3, #0]
 8002546:	683a      	ldr	r2, [r7, #0]
 8002548:	3a01      	subs	r2, #1
 800254a:	4907      	ldr	r1, [pc, #28]	; (8002568 <LL_DMA_DisableChannel+0x3c>)
 800254c:	5c8a      	ldrb	r2, [r1, r2]
 800254e:	4611      	mov	r1, r2
 8002550:	687a      	ldr	r2, [r7, #4]
 8002552:	440a      	add	r2, r1
 8002554:	f023 0301 	bic.w	r3, r3, #1
 8002558:	6013      	str	r3, [r2, #0]
}
 800255a:	bf00      	nop
 800255c:	370c      	adds	r7, #12
 800255e:	46bd      	mov	sp, r7
 8002560:	f85d 7b04 	ldr.w	r7, [sp], #4
 8002564:	4770      	bx	lr
 8002566:	bf00      	nop
 8002568:	08006278 	.word	0x08006278

0800256c <LL_DMA_IsActiveFlag_TC6>:
  * @rmtoll ISR          TCIF6         LL_DMA_IsActiveFlag_TC6
  * @param  DMAx DMAx Instance
  * @retval State of bit (1 or 0).
  */
__STATIC_INLINE uint32_t LL_DMA_IsActiveFlag_TC6(DMA_TypeDef *DMAx)
{
 800256c:	b480      	push	{r7}
 800256e:	b083      	sub	sp, #12
 8002570:	af00      	add	r7, sp, #0
 8002572:	6078      	str	r0, [r7, #4]
  return (READ_BIT(DMAx->ISR, DMA_ISR_TCIF6) == (DMA_ISR_TCIF6));
 8002574:	687b      	ldr	r3, [r7, #4]
 8002576:	681b      	ldr	r3, [r3, #0]
 8002578:	f403 1300 	and.w	r3, r3, #2097152	; 0x200000
 800257c:	f5b3 1f00 	cmp.w	r3, #2097152	; 0x200000
 8002580:	bf0c      	ite	eq
 8002582:	2301      	moveq	r3, #1
 8002584:	2300      	movne	r3, #0
 8002586:	b2db      	uxtb	r3, r3
}
 8002588:	4618      	mov	r0, r3
 800258a:	370c      	adds	r7, #12
 800258c:	46bd      	mov	sp, r7
 800258e:	f85d 7b04 	ldr.w	r7, [sp], #4
 8002592:	4770      	bx	lr

08002594 <LL_DMA_IsActiveFlag_TC7>:
  * @rmtoll ISR          TCIF7         LL_DMA_IsActiveFlag_TC7
  * @param  DMAx DMAx Instance
  * @retval State of bit (1 or 0).
  */
__STATIC_INLINE uint32_t LL_DMA_IsActiveFlag_TC7(DMA_TypeDef *DMAx)
{
 8002594:	b480      	push	{r7}
 8002596:	b083      	sub	sp, #12
 8002598:	af00      	add	r7, sp, #0
 800259a:	6078      	str	r0, [r7, #4]
  return (READ_BIT(DMAx->ISR, DMA_ISR_TCIF7) == (DMA_ISR_TCIF7));
 800259c:	687b      	ldr	r3, [r7, #4]
 800259e:	681b      	ldr	r3, [r3, #0]
 80025a0:	f003 7300 	and.w	r3, r3, #33554432	; 0x2000000
 80025a4:	f1b3 7f00 	cmp.w	r3, #33554432	; 0x2000000
 80025a8:	bf0c      	ite	eq
 80025aa:	2301      	moveq	r3, #1
 80025ac:	2300      	movne	r3, #0
 80025ae:	b2db      	uxtb	r3, r3
}
 80025b0:	4618      	mov	r0, r3
 80025b2:	370c      	adds	r7, #12
 80025b4:	46bd      	mov	sp, r7
 80025b6:	f85d 7b04 	ldr.w	r7, [sp], #4
 80025ba:	4770      	bx	lr

080025bc <LL_DMA_IsActiveFlag_HT6>:
  * @rmtoll ISR          HTIF6         LL_DMA_IsActiveFlag_HT6
  * @param  DMAx DMAx Instance
  * @retval State of bit (1 or 0).
  */
__STATIC_INLINE uint32_t LL_DMA_IsActiveFlag_HT6(DMA_TypeDef *DMAx)
{
 80025bc:	b480      	push	{r7}
 80025be:	b083      	sub	sp, #12
 80025c0:	af00      	add	r7, sp, #0
 80025c2:	6078      	str	r0, [r7, #4]
  return (READ_BIT(DMAx->ISR, DMA_ISR_HTIF6) == (DMA_ISR_HTIF6));
 80025c4:	687b      	ldr	r3, [r7, #4]
 80025c6:	681b      	ldr	r3, [r3, #0]
 80025c8:	f403 0380 	and.w	r3, r3, #4194304	; 0x400000
 80025cc:	f5b3 0f80 	cmp.w	r3, #4194304	; 0x400000
 80025d0:	bf0c      	ite	eq
 80025d2:	2301      	moveq	r3, #1
 80025d4:	2300      	movne	r3, #0
 80025d6:	b2db      	uxtb	r3, r3
}
 80025d8:	4618      	mov	r0, r3
 80025da:	370c      	adds	r7, #12
 80025dc:	46bd      	mov	sp, r7
 80025de:	f85d 7b04 	ldr.w	r7, [sp], #4
 80025e2:	4770      	bx	lr

080025e4 <LL_DMA_ClearFlag_TC6>:
  * @rmtoll IFCR         CTCIF6        LL_DMA_ClearFlag_TC6
  * @param  DMAx DMAx Instance
  * @retval None
  */
__STATIC_INLINE void LL_DMA_ClearFlag_TC6(DMA_TypeDef *DMAx)
{
 80025e4:	b480      	push	{r7}
 80025e6:	b083      	sub	sp, #12
 80025e8:	af00      	add	r7, sp, #0
 80025ea:	6078      	str	r0, [r7, #4]
  WRITE_REG(DMAx->IFCR, DMA_IFCR_CTCIF6);
 80025ec:	687b      	ldr	r3, [r7, #4]
 80025ee:	f44f 1200 	mov.w	r2, #2097152	; 0x200000
 80025f2:	605a      	str	r2, [r3, #4]
}
 80025f4:	bf00      	nop
 80025f6:	370c      	adds	r7, #12
 80025f8:	46bd      	mov	sp, r7
 80025fa:	f85d 7b04 	ldr.w	r7, [sp], #4
 80025fe:	4770      	bx	lr

08002600 <LL_DMA_ClearFlag_TC7>:
  * @rmtoll IFCR         CTCIF7        LL_DMA_ClearFlag_TC7
  * @param  DMAx DMAx Instance
  * @retval None
  */
__STATIC_INLINE void LL_DMA_ClearFlag_TC7(DMA_TypeDef *DMAx)
{
 8002600:	b480      	push	{r7}
 8002602:	b083      	sub	sp, #12
 8002604:	af00      	add	r7, sp, #0
 8002606:	6078      	str	r0, [r7, #4]
  WRITE_REG(DMAx->IFCR, DMA_IFCR_CTCIF7);
 8002608:	687b      	ldr	r3, [r7, #4]
 800260a:	f04f 7200 	mov.w	r2, #33554432	; 0x2000000
 800260e:	605a      	str	r2, [r3, #4]
}
 8002610:	bf00      	nop
 8002612:	370c      	adds	r7, #12
 8002614:	46bd      	mov	sp, r7
 8002616:	f85d 7b04 	ldr.w	r7, [sp], #4
 800261a:	4770      	bx	lr

0800261c <LL_DMA_ClearFlag_HT6>:
  * @rmtoll IFCR         CHTIF6        LL_DMA_ClearFlag_HT6
  * @param  DMAx DMAx Instance
  * @retval None
  */
__STATIC_INLINE void LL_DMA_ClearFlag_HT6(DMA_TypeDef *DMAx)
{
 800261c:	b480      	push	{r7}
 800261e:	b083      	sub	sp, #12
 8002620:	af00      	add	r7, sp, #0
 8002622:	6078      	str	r0, [r7, #4]
  WRITE_REG(DMAx->IFCR, DMA_IFCR_CHTIF6);
 8002624:	687b      	ldr	r3, [r7, #4]
 8002626:	f44f 0280 	mov.w	r2, #4194304	; 0x400000
 800262a:	605a      	str	r2, [r3, #4]
}
 800262c:	bf00      	nop
 800262e:	370c      	adds	r7, #12
 8002630:	46bd      	mov	sp, r7
 8002632:	f85d 7b04 	ldr.w	r7, [sp], #4
 8002636:	4770      	bx	lr

08002638 <LL_TIM_ClearFlag_UPDATE>:
{
 8002638:	b480      	push	{r7}
 800263a:	b083      	sub	sp, #12
 800263c:	af00      	add	r7, sp, #0
 800263e:	6078      	str	r0, [r7, #4]
  WRITE_REG(TIMx->SR, ~(TIM_SR_UIF));
 8002640:	687b      	ldr	r3, [r7, #4]
 8002642:	f06f 0201 	mvn.w	r2, #1
 8002646:	611a      	str	r2, [r3, #16]
}
 8002648:	bf00      	nop
 800264a:	370c      	adds	r7, #12
 800264c:	46bd      	mov	sp, r7
 800264e:	f85d 7b04 	ldr.w	r7, [sp], #4
 8002652:	4770      	bx	lr

08002654 <LL_TIM_IsActiveFlag_UPDATE>:
{
 8002654:	b480      	push	{r7}
 8002656:	b083      	sub	sp, #12
 8002658:	af00      	add	r7, sp, #0
 800265a:	6078      	str	r0, [r7, #4]
  return (READ_BIT(TIMx->SR, TIM_SR_UIF) == (TIM_SR_UIF));
 800265c:	687b      	ldr	r3, [r7, #4]
 800265e:	691b      	ldr	r3, [r3, #16]
 8002660:	f003 0301 	and.w	r3, r3, #1
 8002664:	2b01      	cmp	r3, #1
 8002666:	bf0c      	ite	eq
 8002668:	2301      	moveq	r3, #1
 800266a:	2300      	movne	r3, #0
 800266c:	b2db      	uxtb	r3, r3
}
 800266e:	4618      	mov	r0, r3
 8002670:	370c      	adds	r7, #12
 8002672:	46bd      	mov	sp, r7
 8002674:	f85d 7b04 	ldr.w	r7, [sp], #4
 8002678:	4770      	bx	lr

0800267a <LL_USART_IsActiveFlag_IDLE>:
  * @rmtoll ISR          IDLE          LL_USART_IsActiveFlag_IDLE
  * @param  USARTx USART Instance
  * @retval State of bit (1 or 0).
  */
__STATIC_INLINE uint32_t LL_USART_IsActiveFlag_IDLE(USART_TypeDef *USARTx)
{
 800267a:	b480      	push	{r7}
 800267c:	b083      	sub	sp, #12
 800267e:	af00      	add	r7, sp, #0
 8002680:	6078      	str	r0, [r7, #4]
  return (READ_BIT(USARTx->ISR, USART_ISR_IDLE) == (USART_ISR_IDLE));
 8002682:	687b      	ldr	r3, [r7, #4]
 8002684:	69db      	ldr	r3, [r3, #28]
 8002686:	f003 0310 	and.w	r3, r3, #16
 800268a:	2b10      	cmp	r3, #16
 800268c:	bf0c      	ite	eq
 800268e:	2301      	moveq	r3, #1
 8002690:	2300      	movne	r3, #0
 8002692:	b2db      	uxtb	r3, r3
}
 8002694:	4618      	mov	r0, r3
 8002696:	370c      	adds	r7, #12
 8002698:	46bd      	mov	sp, r7
 800269a:	f85d 7b04 	ldr.w	r7, [sp], #4
 800269e:	4770      	bx	lr

080026a0 <LL_USART_IsActiveFlag_TC>:
  * @rmtoll ISR          TC            LL_USART_IsActiveFlag_TC
  * @param  USARTx USART Instance
  * @retval State of bit (1 or 0).
  */
__STATIC_INLINE uint32_t LL_USART_IsActiveFlag_TC(USART_TypeDef *USARTx)
{
 80026a0:	b480      	push	{r7}
 80026a2:	b083      	sub	sp, #12
 80026a4:	af00      	add	r7, sp, #0
 80026a6:	6078      	str	r0, [r7, #4]
  return (READ_BIT(USARTx->ISR, USART_ISR_TC) == (USART_ISR_TC));
 80026a8:	687b      	ldr	r3, [r7, #4]
 80026aa:	69db      	ldr	r3, [r3, #28]
 80026ac:	f003 0340 	and.w	r3, r3, #64	; 0x40
 80026b0:	2b40      	cmp	r3, #64	; 0x40
 80026b2:	bf0c      	ite	eq
 80026b4:	2301      	moveq	r3, #1
 80026b6:	2300      	movne	r3, #0
 80026b8:	b2db      	uxtb	r3, r3
}
 80026ba:	4618      	mov	r0, r3
 80026bc:	370c      	adds	r7, #12
 80026be:	46bd      	mov	sp, r7
 80026c0:	f85d 7b04 	ldr.w	r7, [sp], #4
 80026c4:	4770      	bx	lr

080026c6 <LL_USART_ClearFlag_IDLE>:
  * @rmtoll ICR          IDLECF        LL_USART_ClearFlag_IDLE
  * @param  USARTx USART Instance
  * @retval None
  */
__STATIC_INLINE void LL_USART_ClearFlag_IDLE(USART_TypeDef *USARTx)
{
 80026c6:	b480      	push	{r7}
 80026c8:	b083      	sub	sp, #12
 80026ca:	af00      	add	r7, sp, #0
 80026cc:	6078      	str	r0, [r7, #4]
  WRITE_REG(USARTx->ICR, USART_ICR_IDLECF);
 80026ce:	687b      	ldr	r3, [r7, #4]
 80026d0:	2210      	movs	r2, #16
 80026d2:	621a      	str	r2, [r3, #32]
}
 80026d4:	bf00      	nop
 80026d6:	370c      	adds	r7, #12
 80026d8:	46bd      	mov	sp, r7
 80026da:	f85d 7b04 	ldr.w	r7, [sp], #4
 80026de:	4770      	bx	lr

080026e0 <NMI_Handler>:
/******************************************************************************/
/**
  * @brief This function handles Non maskable interrupt.
  */
void NMI_Handler(void)
{
 80026e0:	b480      	push	{r7}
 80026e2:	af00      	add	r7, sp, #0

  /* USER CODE END NonMaskableInt_IRQn 0 */
  /* USER CODE BEGIN NonMaskableInt_IRQn 1 */

  /* USER CODE END NonMaskableInt_IRQn 1 */
}
 80026e4:	bf00      	nop
 80026e6:	46bd      	mov	sp, r7
 80026e8:	f85d 7b04 	ldr.w	r7, [sp], #4
 80026ec:	4770      	bx	lr

080026ee <HardFault_Handler>:

/**
  * @brief This function handles Hard fault interrupt.
  */
void HardFault_Handler(void)
{
 80026ee:	b480      	push	{r7}
 80026f0:	af00      	add	r7, sp, #0
  /* USER CODE BEGIN HardFault_IRQn 0 */

  /* USER CODE END HardFault_IRQn 0 */
  while (1)
 80026f2:	e7fe      	b.n	80026f2 <HardFault_Handler+0x4>

080026f4 <MemManage_Handler>:

/**
  * @brief This function handles Memory management fault.
  */
void MemManage_Handler(void)
{
 80026f4:	b480      	push	{r7}
 80026f6:	af00      	add	r7, sp, #0
  /* USER CODE BEGIN MemoryManagement_IRQn 0 */

  /* USER CODE END MemoryManagement_IRQn 0 */
  while (1)
 80026f8:	e7fe      	b.n	80026f8 <MemManage_Handler+0x4>

080026fa <BusFault_Handler>:

/**
  * @brief This function handles Pre-fetch fault, memory access fault.
  */
void BusFault_Handler(void)
{
 80026fa:	b480      	push	{r7}
 80026fc:	af00      	add	r7, sp, #0
  /* USER CODE BEGIN BusFault_IRQn 0 */

  /* USER CODE END BusFault_IRQn 0 */
  while (1)
 80026fe:	e7fe      	b.n	80026fe <BusFault_Handler+0x4>

08002700 <UsageFault_Handler>:

/**
  * @brief This function handles Undefined instruction or illegal state.
  */
void UsageFault_Handler(void)
{
 8002700:	b480      	push	{r7}
 8002702:	af00      	add	r7, sp, #0
  /* USER CODE BEGIN UsageFault_IRQn 0 */

  /* USER CODE END UsageFault_IRQn 0 */
  while (1)
 8002704:	e7fe      	b.n	8002704 <UsageFault_Handler+0x4>

08002706 <SVC_Handler>:

/**
  * @brief This function handles System service call via SWI instruction.
  */
void SVC_Handler(void)
{
 8002706:	b480      	push	{r7}
 8002708:	af00      	add	r7, sp, #0

  /* USER CODE END SVCall_IRQn 0 */
  /* USER CODE BEGIN SVCall_IRQn 1 */

  /* USER CODE END SVCall_IRQn 1 */
}
 800270a:	bf00      	nop
 800270c:	46bd      	mov	sp, r7
 800270e:	f85d 7b04 	ldr.w	r7, [sp], #4
 8002712:	4770      	bx	lr

08002714 <DebugMon_Handler>:

/**
  * @brief This function handles Debug monitor.
  */
void DebugMon_Handler(void)
{
 8002714:	b480      	push	{r7}
 8002716:	af00      	add	r7, sp, #0

  /* USER CODE END DebugMonitor_IRQn 0 */
  /* USER CODE BEGIN DebugMonitor_IRQn 1 */

  /* USER CODE END DebugMonitor_IRQn 1 */
}
 8002718:	bf00      	nop
 800271a:	46bd      	mov	sp, r7
 800271c:	f85d 7b04 	ldr.w	r7, [sp], #4
 8002720:	4770      	bx	lr

08002722 <PendSV_Handler>:

/**
  * @brief This function handles Pendable request for system service.
  */
void PendSV_Handler(void)
{
 8002722:	b480      	push	{r7}
 8002724:	af00      	add	r7, sp, #0

  /* USER CODE END PendSV_IRQn 0 */
  /* USER CODE BEGIN PendSV_IRQn 1 */

  /* USER CODE END PendSV_IRQn 1 */
}
 8002726:	bf00      	nop
 8002728:	46bd      	mov	sp, r7
 800272a:	f85d 7b04 	ldr.w	r7, [sp], #4
 800272e:	4770      	bx	lr

08002730 <SysTick_Handler>:

/**
  * @brief This function handles System tick timer.
  */
void SysTick_Handler(void)
{
 8002730:	b480      	push	{r7}
 8002732:	af00      	add	r7, sp, #0
  /* USER CODE END SysTick_IRQn 0 */

  /* USER CODE BEGIN SysTick_IRQn 1 */

  /* USER CODE END SysTick_IRQn 1 */
}
 8002734:	bf00      	nop
 8002736:	46bd      	mov	sp, r7
 8002738:	f85d 7b04 	ldr.w	r7, [sp], #4
 800273c:	4770      	bx	lr
	...

08002740 <DMA1_Channel6_IRQHandler>:

/**
  * @brief This function handles DMA1 channel6 global interrupt.
  */
void DMA1_Channel6_IRQHandler(void)
{
 8002740:	b580      	push	{r7, lr}
 8002742:	af00      	add	r7, sp, #0
	if(LL_DMA_IsActiveFlag_TC6(DMA1) == SET)
 8002744:	480c      	ldr	r0, [pc, #48]	; (8002778 <DMA1_Channel6_IRQHandler+0x38>)
 8002746:	f7ff ff11 	bl	800256c <LL_DMA_IsActiveFlag_TC6>
 800274a:	4603      	mov	r3, r0
 800274c:	2b01      	cmp	r3, #1
 800274e:	d105      	bne.n	800275c <DMA1_Channel6_IRQHandler+0x1c>
	{
		USART2_CheckDmaReception();
 8002750:	f000 ff54 	bl	80035fc <USART2_CheckDmaReception>
		LL_DMA_ClearFlag_TC6(DMA1);
 8002754:	4808      	ldr	r0, [pc, #32]	; (8002778 <DMA1_Channel6_IRQHandler+0x38>)
 8002756:	f7ff ff45 	bl	80025e4 <LL_DMA_ClearFlag_TC6>
	else if(LL_DMA_IsActiveFlag_HT6(DMA1) == SET)
	{
		USART2_CheckDmaReception();
		LL_DMA_ClearFlag_HT6(DMA1);
	}
}
 800275a:	e00a      	b.n	8002772 <DMA1_Channel6_IRQHandler+0x32>
	else if(LL_DMA_IsActiveFlag_HT6(DMA1) == SET)
 800275c:	4806      	ldr	r0, [pc, #24]	; (8002778 <DMA1_Channel6_IRQHandler+0x38>)
 800275e:	f7ff ff2d 	bl	80025bc <LL_DMA_IsActiveFlag_HT6>
 8002762:	4603      	mov	r3, r0
 8002764:	2b01      	cmp	r3, #1
 8002766:	d104      	bne.n	8002772 <DMA1_Channel6_IRQHandler+0x32>
		USART2_CheckDmaReception();
 8002768:	f000 ff48 	bl	80035fc <USART2_CheckDmaReception>
		LL_DMA_ClearFlag_HT6(DMA1);
 800276c:	4802      	ldr	r0, [pc, #8]	; (8002778 <DMA1_Channel6_IRQHandler+0x38>)
 800276e:	f7ff ff55 	bl	800261c <LL_DMA_ClearFlag_HT6>
}
 8002772:	bf00      	nop
 8002774:	bd80      	pop	{r7, pc}
 8002776:	bf00      	nop
 8002778:	40020000 	.word	0x40020000

0800277c <DMA1_Channel7_IRQHandler>:

/**
  * @brief This function handles DMA1 channel7 global interrupt.
  */
void DMA1_Channel7_IRQHandler(void)
{
 800277c:	b580      	push	{r7, lr}
 800277e:	af00      	add	r7, sp, #0
	if(LL_DMA_IsActiveFlag_TC7(DMA1) == SET)
 8002780:	480a      	ldr	r0, [pc, #40]	; (80027ac <DMA1_Channel7_IRQHandler+0x30>)
 8002782:	f7ff ff07 	bl	8002594 <LL_DMA_IsActiveFlag_TC7>
 8002786:	4603      	mov	r3, r0
 8002788:	2b01      	cmp	r3, #1
 800278a:	d10d      	bne.n	80027a8 <DMA1_Channel7_IRQHandler+0x2c>
	{
		LL_DMA_ClearFlag_TC7(DMA1);
 800278c:	4807      	ldr	r0, [pc, #28]	; (80027ac <DMA1_Channel7_IRQHandler+0x30>)
 800278e:	f7ff ff37 	bl	8002600 <LL_DMA_ClearFlag_TC7>

		while(LL_USART_IsActiveFlag_TC(USART2) == RESET);
 8002792:	bf00      	nop
 8002794:	4806      	ldr	r0, [pc, #24]	; (80027b0 <DMA1_Channel7_IRQHandler+0x34>)
 8002796:	f7ff ff83 	bl	80026a0 <LL_USART_IsActiveFlag_TC>
 800279a:	4603      	mov	r3, r0
 800279c:	2b00      	cmp	r3, #0
 800279e:	d0f9      	beq.n	8002794 <DMA1_Channel7_IRQHandler+0x18>
		LL_DMA_DisableChannel(DMA1, LL_DMA_CHANNEL_7);
 80027a0:	2107      	movs	r1, #7
 80027a2:	4802      	ldr	r0, [pc, #8]	; (80027ac <DMA1_Channel7_IRQHandler+0x30>)
 80027a4:	f7ff fec2 	bl	800252c <LL_DMA_DisableChannel>
	}
}
 80027a8:	bf00      	nop
 80027aa:	bd80      	pop	{r7, pc}
 80027ac:	40020000 	.word	0x40020000
 80027b0:	40004400 	.word	0x40004400

080027b4 <TIM2_IRQHandler>:

/**
  * @brief This function handles TIM2 global interrupt.
  */
void TIM2_IRQHandler(void)
{
 80027b4:	b580      	push	{r7, lr}
 80027b6:	af00      	add	r7, sp, #0
	if (LL_TIM_IsActiveFlag_UPDATE(TIM2)){
 80027b8:	f04f 4080 	mov.w	r0, #1073741824	; 0x40000000
 80027bc:	f7ff ff4a 	bl	8002654 <LL_TIM_IsActiveFlag_UPDATE>
 80027c0:	4603      	mov	r3, r0
 80027c2:	2b00      	cmp	r3, #0
 80027c4:	d024      	beq.n	8002810 <TIM2_IRQHandler+0x5c>
		if (count_up) {
 80027c6:	4b15      	ldr	r3, [pc, #84]	; (800281c <TIM2_IRQHandler+0x68>)
 80027c8:	781b      	ldrb	r3, [r3, #0]
 80027ca:	2b00      	cmp	r3, #0
 80027cc:	d010      	beq.n	80027f0 <TIM2_IRQHandler+0x3c>
			setDutyCycle(value++);
 80027ce:	4b14      	ldr	r3, [pc, #80]	; (8002820 <TIM2_IRQHandler+0x6c>)
 80027d0:	781b      	ldrb	r3, [r3, #0]
 80027d2:	1c5a      	adds	r2, r3, #1
 80027d4:	b2d1      	uxtb	r1, r2
 80027d6:	4a12      	ldr	r2, [pc, #72]	; (8002820 <TIM2_IRQHandler+0x6c>)
 80027d8:	7011      	strb	r1, [r2, #0]
 80027da:	4618      	mov	r0, r3
 80027dc:	f7ff fe82 	bl	80024e4 <setDutyCycle>
			if (value >= MAX_VALUE) count_up = 0;
 80027e0:	4b0f      	ldr	r3, [pc, #60]	; (8002820 <TIM2_IRQHandler+0x6c>)
 80027e2:	781b      	ldrb	r3, [r3, #0]
 80027e4:	2b63      	cmp	r3, #99	; 0x63
 80027e6:	d913      	bls.n	8002810 <TIM2_IRQHandler+0x5c>
 80027e8:	4b0c      	ldr	r3, [pc, #48]	; (800281c <TIM2_IRQHandler+0x68>)
 80027ea:	2200      	movs	r2, #0
 80027ec:	701a      	strb	r2, [r3, #0]
 80027ee:	e00f      	b.n	8002810 <TIM2_IRQHandler+0x5c>
		}

		else {
			setDutyCycle(value--);
 80027f0:	4b0b      	ldr	r3, [pc, #44]	; (8002820 <TIM2_IRQHandler+0x6c>)
 80027f2:	781b      	ldrb	r3, [r3, #0]
 80027f4:	1e5a      	subs	r2, r3, #1
 80027f6:	b2d1      	uxtb	r1, r2
 80027f8:	4a09      	ldr	r2, [pc, #36]	; (8002820 <TIM2_IRQHandler+0x6c>)
 80027fa:	7011      	strb	r1, [r2, #0]
 80027fc:	4618      	mov	r0, r3
 80027fe:	f7ff fe71 	bl	80024e4 <setDutyCycle>
			if (value <= MIN_VALUE) count_up = 1;
 8002802:	4b07      	ldr	r3, [pc, #28]	; (8002820 <TIM2_IRQHandler+0x6c>)
 8002804:	781b      	ldrb	r3, [r3, #0]
 8002806:	2b00      	cmp	r3, #0
 8002808:	d102      	bne.n	8002810 <TIM2_IRQHandler+0x5c>
 800280a:	4b04      	ldr	r3, [pc, #16]	; (800281c <TIM2_IRQHandler+0x68>)
 800280c:	2201      	movs	r2, #1
 800280e:	701a      	strb	r2, [r3, #0]
		}
	}
	LL_TIM_ClearFlag_UPDATE(TIM2);
 8002810:	f04f 4080 	mov.w	r0, #1073741824	; 0x40000000
 8002814:	f7ff ff10 	bl	8002638 <LL_TIM_ClearFlag_UPDATE>

}
 8002818:	bf00      	nop
 800281a:	bd80      	pop	{r7, pc}
 800281c:	20000000 	.word	0x20000000
 8002820:	20000208 	.word	0x20000208

08002824 <USART2_IRQHandler>:

/**
  * @brief This function handles USART2 global interrupt / USART2 wake-up interrupt through EXT line 26.
  */
void USART2_IRQHandler(void)
{
 8002824:	b580      	push	{r7, lr}
 8002826:	af00      	add	r7, sp, #0
	if(LL_USART_IsActiveFlag_IDLE(USART2))
 8002828:	4806      	ldr	r0, [pc, #24]	; (8002844 <USART2_IRQHandler+0x20>)
 800282a:	f7ff ff26 	bl	800267a <LL_USART_IsActiveFlag_IDLE>
 800282e:	4603      	mov	r3, r0
 8002830:	2b00      	cmp	r3, #0
 8002832:	d004      	beq.n	800283e <USART2_IRQHandler+0x1a>
	{
		USART2_CheckDmaReception();
 8002834:	f000 fee2 	bl	80035fc <USART2_CheckDmaReception>
		LL_USART_ClearFlag_IDLE(USART2);
 8002838:	4802      	ldr	r0, [pc, #8]	; (8002844 <USART2_IRQHandler+0x20>)
 800283a:	f7ff ff44 	bl	80026c6 <LL_USART_ClearFlag_IDLE>
	}
}
 800283e:	bf00      	nop
 8002840:	bd80      	pop	{r7, pc}
 8002842:	bf00      	nop
 8002844:	40004400 	.word	0x40004400

08002848 <_sbrk>:
/**
 _sbrk
 Increase program data space. Malloc and related functions depend on this
**/
caddr_t _sbrk(int incr)
{
 8002848:	b580      	push	{r7, lr}
 800284a:	b084      	sub	sp, #16
 800284c:	af00      	add	r7, sp, #0
 800284e:	6078      	str	r0, [r7, #4]
	extern char end asm("end");
	static char *heap_end;
	char *prev_heap_end;

	if (heap_end == 0)
 8002850:	4b11      	ldr	r3, [pc, #68]	; (8002898 <_sbrk+0x50>)
 8002852:	681b      	ldr	r3, [r3, #0]
 8002854:	2b00      	cmp	r3, #0
 8002856:	d102      	bne.n	800285e <_sbrk+0x16>
		heap_end = &end;
 8002858:	4b0f      	ldr	r3, [pc, #60]	; (8002898 <_sbrk+0x50>)
 800285a:	4a10      	ldr	r2, [pc, #64]	; (800289c <_sbrk+0x54>)
 800285c:	601a      	str	r2, [r3, #0]

	prev_heap_end = heap_end;
 800285e:	4b0e      	ldr	r3, [pc, #56]	; (8002898 <_sbrk+0x50>)
 8002860:	681b      	ldr	r3, [r3, #0]
 8002862:	60fb      	str	r3, [r7, #12]
	if (heap_end + incr > stack_ptr)
 8002864:	4b0c      	ldr	r3, [pc, #48]	; (8002898 <_sbrk+0x50>)
 8002866:	681a      	ldr	r2, [r3, #0]
 8002868:	687b      	ldr	r3, [r7, #4]
 800286a:	4413      	add	r3, r2
 800286c:	466a      	mov	r2, sp
 800286e:	4293      	cmp	r3, r2
 8002870:	d907      	bls.n	8002882 <_sbrk+0x3a>
	{
		errno = ENOMEM;
 8002872:	f000 ff45 	bl	8003700 <__errno>
 8002876:	4602      	mov	r2, r0
 8002878:	230c      	movs	r3, #12
 800287a:	6013      	str	r3, [r2, #0]
		return (caddr_t) -1;
 800287c:	f04f 33ff 	mov.w	r3, #4294967295
 8002880:	e006      	b.n	8002890 <_sbrk+0x48>
	}

	heap_end += incr;
 8002882:	4b05      	ldr	r3, [pc, #20]	; (8002898 <_sbrk+0x50>)
 8002884:	681a      	ldr	r2, [r3, #0]
 8002886:	687b      	ldr	r3, [r7, #4]
 8002888:	4413      	add	r3, r2
 800288a:	4a03      	ldr	r2, [pc, #12]	; (8002898 <_sbrk+0x50>)
 800288c:	6013      	str	r3, [r2, #0]

	return (caddr_t) prev_heap_end;
 800288e:	68fb      	ldr	r3, [r7, #12]
}
 8002890:	4618      	mov	r0, r3
 8002892:	3710      	adds	r7, #16
 8002894:	46bd      	mov	sp, r7
 8002896:	bd80      	pop	{r7, pc}
 8002898:	2000020c 	.word	0x2000020c
 800289c:	200003a8 	.word	0x200003a8

080028a0 <SystemInit>:
  *         Initialize the FPU setting, vector table location and the PLL configuration is reset.
  * @param  None
  * @retval None
  */
void SystemInit(void)
{
 80028a0:	b480      	push	{r7}
 80028a2:	af00      	add	r7, sp, #0
  /* FPU settings ------------------------------------------------------------*/
  #if (__FPU_PRESENT == 1) && (__FPU_USED == 1)
    SCB->CPACR |= ((3UL << 10*2)|(3UL << 11*2));  /* set CP10 and CP11 Full Access */
 80028a4:	4b1f      	ldr	r3, [pc, #124]	; (8002924 <SystemInit+0x84>)
 80028a6:	f8d3 3088 	ldr.w	r3, [r3, #136]	; 0x88
 80028aa:	4a1e      	ldr	r2, [pc, #120]	; (8002924 <SystemInit+0x84>)
 80028ac:	f443 0370 	orr.w	r3, r3, #15728640	; 0xf00000
 80028b0:	f8c2 3088 	str.w	r3, [r2, #136]	; 0x88
  #endif

  /* Reset the RCC clock configuration to the default reset state ------------*/
  /* Set HSION bit */
  RCC->CR |= 0x00000001U;
 80028b4:	4b1c      	ldr	r3, [pc, #112]	; (8002928 <SystemInit+0x88>)
 80028b6:	681b      	ldr	r3, [r3, #0]
 80028b8:	4a1b      	ldr	r2, [pc, #108]	; (8002928 <SystemInit+0x88>)
 80028ba:	f043 0301 	orr.w	r3, r3, #1
 80028be:	6013      	str	r3, [r2, #0]

  /* Reset CFGR register */
  RCC->CFGR &= 0xF87FC00CU;
 80028c0:	4b19      	ldr	r3, [pc, #100]	; (8002928 <SystemInit+0x88>)
 80028c2:	685a      	ldr	r2, [r3, #4]
 80028c4:	4918      	ldr	r1, [pc, #96]	; (8002928 <SystemInit+0x88>)
 80028c6:	4b19      	ldr	r3, [pc, #100]	; (800292c <SystemInit+0x8c>)
 80028c8:	4013      	ands	r3, r2
 80028ca:	604b      	str	r3, [r1, #4]

  /* Reset HSEON, CSSON and PLLON bits */
  RCC->CR &= 0xFEF6FFFFU;
 80028cc:	4b16      	ldr	r3, [pc, #88]	; (8002928 <SystemInit+0x88>)
 80028ce:	681b      	ldr	r3, [r3, #0]
 80028d0:	4a15      	ldr	r2, [pc, #84]	; (8002928 <SystemInit+0x88>)
 80028d2:	f023 7384 	bic.w	r3, r3, #17301504	; 0x1080000
 80028d6:	f423 3380 	bic.w	r3, r3, #65536	; 0x10000
 80028da:	6013      	str	r3, [r2, #0]

  /* Reset HSEBYP bit */
  RCC->CR &= 0xFFFBFFFFU;
 80028dc:	4b12      	ldr	r3, [pc, #72]	; (8002928 <SystemInit+0x88>)
 80028de:	681b      	ldr	r3, [r3, #0]
 80028e0:	4a11      	ldr	r2, [pc, #68]	; (8002928 <SystemInit+0x88>)
 80028e2:	f423 2380 	bic.w	r3, r3, #262144	; 0x40000
 80028e6:	6013      	str	r3, [r2, #0]

  /* Reset PLLSRC, PLLXTPRE, PLLMUL and USBPRE bits */
  RCC->CFGR &= 0xFF80FFFFU;
 80028e8:	4b0f      	ldr	r3, [pc, #60]	; (8002928 <SystemInit+0x88>)
 80028ea:	685b      	ldr	r3, [r3, #4]
 80028ec:	4a0e      	ldr	r2, [pc, #56]	; (8002928 <SystemInit+0x88>)
 80028ee:	f423 03fe 	bic.w	r3, r3, #8323072	; 0x7f0000
 80028f2:	6053      	str	r3, [r2, #4]

  /* Reset PREDIV1[3:0] bits */
  RCC->CFGR2 &= 0xFFFFFFF0U;
 80028f4:	4b0c      	ldr	r3, [pc, #48]	; (8002928 <SystemInit+0x88>)
 80028f6:	6adb      	ldr	r3, [r3, #44]	; 0x2c
 80028f8:	4a0b      	ldr	r2, [pc, #44]	; (8002928 <SystemInit+0x88>)
 80028fa:	f023 030f 	bic.w	r3, r3, #15
 80028fe:	62d3      	str	r3, [r2, #44]	; 0x2c

  /* Reset USARTSW[1:0], I2CSW and TIMs bits */
  RCC->CFGR3 &= 0xFF00FCCCU;
 8002900:	4b09      	ldr	r3, [pc, #36]	; (8002928 <SystemInit+0x88>)
 8002902:	6b1a      	ldr	r2, [r3, #48]	; 0x30
 8002904:	4908      	ldr	r1, [pc, #32]	; (8002928 <SystemInit+0x88>)
 8002906:	4b0a      	ldr	r3, [pc, #40]	; (8002930 <SystemInit+0x90>)
 8002908:	4013      	ands	r3, r2
 800290a:	630b      	str	r3, [r1, #48]	; 0x30

  /* Disable all interrupts */
  RCC->CIR = 0x00000000U;
 800290c:	4b06      	ldr	r3, [pc, #24]	; (8002928 <SystemInit+0x88>)
 800290e:	2200      	movs	r2, #0
 8002910:	609a      	str	r2, [r3, #8]

#ifdef VECT_TAB_SRAM
  SCB->VTOR = SRAM_BASE | VECT_TAB_OFFSET; /* Vector Table Relocation in Internal SRAM */
#else
  SCB->VTOR = FLASH_BASE | VECT_TAB_OFFSET; /* Vector Table Relocation in Internal FLASH */
 8002912:	4b04      	ldr	r3, [pc, #16]	; (8002924 <SystemInit+0x84>)
 8002914:	f04f 6200 	mov.w	r2, #134217728	; 0x8000000
 8002918:	609a      	str	r2, [r3, #8]
#endif
}
 800291a:	bf00      	nop
 800291c:	46bd      	mov	sp, r7
 800291e:	f85d 7b04 	ldr.w	r7, [sp], #4
 8002922:	4770      	bx	lr
 8002924:	e000ed00 	.word	0xe000ed00
 8002928:	40021000 	.word	0x40021000
 800292c:	f87fc00c 	.word	0xf87fc00c
 8002930:	ff00fccc 	.word	0xff00fccc

08002934 <NVIC_GetPriorityGrouping>:
{
 8002934:	b480      	push	{r7}
 8002936:	af00      	add	r7, sp, #0
  return ((uint32_t)((SCB->AIRCR & SCB_AIRCR_PRIGROUP_Msk) >> SCB_AIRCR_PRIGROUP_Pos));
 8002938:	4b04      	ldr	r3, [pc, #16]	; (800294c <NVIC_GetPriorityGrouping+0x18>)
 800293a:	68db      	ldr	r3, [r3, #12]
 800293c:	0a1b      	lsrs	r3, r3, #8
 800293e:	f003 0307 	and.w	r3, r3, #7
}
 8002942:	4618      	mov	r0, r3
 8002944:	46bd      	mov	sp, r7
 8002946:	f85d 7b04 	ldr.w	r7, [sp], #4
 800294a:	4770      	bx	lr
 800294c:	e000ed00 	.word	0xe000ed00

08002950 <NVIC_EnableIRQ>:
{
 8002950:	b480      	push	{r7}
 8002952:	b083      	sub	sp, #12
 8002954:	af00      	add	r7, sp, #0
 8002956:	4603      	mov	r3, r0
 8002958:	71fb      	strb	r3, [r7, #7]
  NVIC->ISER[(((uint32_t)(int32_t)IRQn) >> 5UL)] = (uint32_t)(1UL << (((uint32_t)(int32_t)IRQn) & 0x1FUL));
 800295a:	79fb      	ldrb	r3, [r7, #7]
 800295c:	f003 021f 	and.w	r2, r3, #31
 8002960:	4907      	ldr	r1, [pc, #28]	; (8002980 <NVIC_EnableIRQ+0x30>)
 8002962:	f997 3007 	ldrsb.w	r3, [r7, #7]
 8002966:	095b      	lsrs	r3, r3, #5
 8002968:	2001      	movs	r0, #1
 800296a:	fa00 f202 	lsl.w	r2, r0, r2
 800296e:	f841 2023 	str.w	r2, [r1, r3, lsl #2]
}
 8002972:	bf00      	nop
 8002974:	370c      	adds	r7, #12
 8002976:	46bd      	mov	sp, r7
 8002978:	f85d 7b04 	ldr.w	r7, [sp], #4
 800297c:	4770      	bx	lr
 800297e:	bf00      	nop
 8002980:	e000e100 	.word	0xe000e100

08002984 <NVIC_SetPriority>:
{
 8002984:	b480      	push	{r7}
 8002986:	b083      	sub	sp, #12
 8002988:	af00      	add	r7, sp, #0
 800298a:	4603      	mov	r3, r0
 800298c:	6039      	str	r1, [r7, #0]
 800298e:	71fb      	strb	r3, [r7, #7]
  if ((int32_t)(IRQn) < 0)
 8002990:	f997 3007 	ldrsb.w	r3, [r7, #7]
 8002994:	2b00      	cmp	r3, #0
 8002996:	da0b      	bge.n	80029b0 <NVIC_SetPriority+0x2c>
    SCB->SHP[(((uint32_t)(int32_t)IRQn) & 0xFUL)-4UL] = (uint8_t)((priority << (8U - __NVIC_PRIO_BITS)) & (uint32_t)0xFFUL);
 8002998:	683b      	ldr	r3, [r7, #0]
 800299a:	b2da      	uxtb	r2, r3
 800299c:	490c      	ldr	r1, [pc, #48]	; (80029d0 <NVIC_SetPriority+0x4c>)
 800299e:	79fb      	ldrb	r3, [r7, #7]
 80029a0:	f003 030f 	and.w	r3, r3, #15
 80029a4:	3b04      	subs	r3, #4
 80029a6:	0112      	lsls	r2, r2, #4
 80029a8:	b2d2      	uxtb	r2, r2
 80029aa:	440b      	add	r3, r1
 80029ac:	761a      	strb	r2, [r3, #24]
}
 80029ae:	e009      	b.n	80029c4 <NVIC_SetPriority+0x40>
    NVIC->IP[((uint32_t)(int32_t)IRQn)]               = (uint8_t)((priority << (8U - __NVIC_PRIO_BITS)) & (uint32_t)0xFFUL);
 80029b0:	683b      	ldr	r3, [r7, #0]
 80029b2:	b2da      	uxtb	r2, r3
 80029b4:	4907      	ldr	r1, [pc, #28]	; (80029d4 <NVIC_SetPriority+0x50>)
 80029b6:	f997 3007 	ldrsb.w	r3, [r7, #7]
 80029ba:	0112      	lsls	r2, r2, #4
 80029bc:	b2d2      	uxtb	r2, r2
 80029be:	440b      	add	r3, r1
 80029c0:	f883 2300 	strb.w	r2, [r3, #768]	; 0x300
}
 80029c4:	bf00      	nop
 80029c6:	370c      	adds	r7, #12
 80029c8:	46bd      	mov	sp, r7
 80029ca:	f85d 7b04 	ldr.w	r7, [sp], #4
 80029ce:	4770      	bx	lr
 80029d0:	e000ed00 	.word	0xe000ed00
 80029d4:	e000e100 	.word	0xe000e100

080029d8 <NVIC_EncodePriority>:
{
 80029d8:	b480      	push	{r7}
 80029da:	b089      	sub	sp, #36	; 0x24
 80029dc:	af00      	add	r7, sp, #0
 80029de:	60f8      	str	r0, [r7, #12]
 80029e0:	60b9      	str	r1, [r7, #8]
 80029e2:	607a      	str	r2, [r7, #4]
  uint32_t PriorityGroupTmp = (PriorityGroup & (uint32_t)0x07UL);   /* only values 0..7 are used          */
 80029e4:	68fb      	ldr	r3, [r7, #12]
 80029e6:	f003 0307 	and.w	r3, r3, #7
 80029ea:	61fb      	str	r3, [r7, #28]
  PreemptPriorityBits = ((7UL - PriorityGroupTmp) > (uint32_t)(__NVIC_PRIO_BITS)) ? (uint32_t)(__NVIC_PRIO_BITS) : (uint32_t)(7UL - PriorityGroupTmp);
 80029ec:	69fb      	ldr	r3, [r7, #28]
 80029ee:	f1c3 0307 	rsb	r3, r3, #7
 80029f2:	2b04      	cmp	r3, #4
 80029f4:	bf28      	it	cs
 80029f6:	2304      	movcs	r3, #4
 80029f8:	61bb      	str	r3, [r7, #24]
  SubPriorityBits     = ((PriorityGroupTmp + (uint32_t)(__NVIC_PRIO_BITS)) < (uint32_t)7UL) ? (uint32_t)0UL : (uint32_t)((PriorityGroupTmp - 7UL) + (uint32_t)(__NVIC_PRIO_BITS));
 80029fa:	69fb      	ldr	r3, [r7, #28]
 80029fc:	3304      	adds	r3, #4
 80029fe:	2b06      	cmp	r3, #6
 8002a00:	d902      	bls.n	8002a08 <NVIC_EncodePriority+0x30>
 8002a02:	69fb      	ldr	r3, [r7, #28]
 8002a04:	3b03      	subs	r3, #3
 8002a06:	e000      	b.n	8002a0a <NVIC_EncodePriority+0x32>
 8002a08:	2300      	movs	r3, #0
 8002a0a:	617b      	str	r3, [r7, #20]
           ((PreemptPriority & (uint32_t)((1UL << (PreemptPriorityBits)) - 1UL)) << SubPriorityBits) |
 8002a0c:	f04f 32ff 	mov.w	r2, #4294967295
 8002a10:	69bb      	ldr	r3, [r7, #24]
 8002a12:	fa02 f303 	lsl.w	r3, r2, r3
 8002a16:	43da      	mvns	r2, r3
 8002a18:	68bb      	ldr	r3, [r7, #8]
 8002a1a:	401a      	ands	r2, r3
 8002a1c:	697b      	ldr	r3, [r7, #20]
 8002a1e:	409a      	lsls	r2, r3
           ((SubPriority     & (uint32_t)((1UL << (SubPriorityBits    )) - 1UL)))
 8002a20:	f04f 31ff 	mov.w	r1, #4294967295
 8002a24:	697b      	ldr	r3, [r7, #20]
 8002a26:	fa01 f303 	lsl.w	r3, r1, r3
 8002a2a:	43d9      	mvns	r1, r3
 8002a2c:	687b      	ldr	r3, [r7, #4]
 8002a2e:	400b      	ands	r3, r1
           ((PreemptPriority & (uint32_t)((1UL << (PreemptPriorityBits)) - 1UL)) << SubPriorityBits) |
 8002a30:	4313      	orrs	r3, r2
}
 8002a32:	4618      	mov	r0, r3
 8002a34:	3724      	adds	r7, #36	; 0x24
 8002a36:	46bd      	mov	sp, r7
 8002a38:	f85d 7b04 	ldr.w	r7, [sp], #4
 8002a3c:	4770      	bx	lr
	...

08002a40 <LL_AHB1_GRP1_EnableClock>:
{
 8002a40:	b480      	push	{r7}
 8002a42:	b085      	sub	sp, #20
 8002a44:	af00      	add	r7, sp, #0
 8002a46:	6078      	str	r0, [r7, #4]
  SET_BIT(RCC->AHBENR, Periphs);
 8002a48:	4b08      	ldr	r3, [pc, #32]	; (8002a6c <LL_AHB1_GRP1_EnableClock+0x2c>)
 8002a4a:	695a      	ldr	r2, [r3, #20]
 8002a4c:	4907      	ldr	r1, [pc, #28]	; (8002a6c <LL_AHB1_GRP1_EnableClock+0x2c>)
 8002a4e:	687b      	ldr	r3, [r7, #4]
 8002a50:	4313      	orrs	r3, r2
 8002a52:	614b      	str	r3, [r1, #20]
  tmpreg = READ_BIT(RCC->AHBENR, Periphs);
 8002a54:	4b05      	ldr	r3, [pc, #20]	; (8002a6c <LL_AHB1_GRP1_EnableClock+0x2c>)
 8002a56:	695a      	ldr	r2, [r3, #20]
 8002a58:	687b      	ldr	r3, [r7, #4]
 8002a5a:	4013      	ands	r3, r2
 8002a5c:	60fb      	str	r3, [r7, #12]
  (void)tmpreg;
 8002a5e:	68fb      	ldr	r3, [r7, #12]
}
 8002a60:	bf00      	nop
 8002a62:	3714      	adds	r7, #20
 8002a64:	46bd      	mov	sp, r7
 8002a66:	f85d 7b04 	ldr.w	r7, [sp], #4
 8002a6a:	4770      	bx	lr
 8002a6c:	40021000 	.word	0x40021000

08002a70 <LL_APB1_GRP1_EnableClock>:
{
 8002a70:	b480      	push	{r7}
 8002a72:	b085      	sub	sp, #20
 8002a74:	af00      	add	r7, sp, #0
 8002a76:	6078      	str	r0, [r7, #4]
  SET_BIT(RCC->APB1ENR, Periphs);
 8002a78:	4b08      	ldr	r3, [pc, #32]	; (8002a9c <LL_APB1_GRP1_EnableClock+0x2c>)
 8002a7a:	69da      	ldr	r2, [r3, #28]
 8002a7c:	4907      	ldr	r1, [pc, #28]	; (8002a9c <LL_APB1_GRP1_EnableClock+0x2c>)
 8002a7e:	687b      	ldr	r3, [r7, #4]
 8002a80:	4313      	orrs	r3, r2
 8002a82:	61cb      	str	r3, [r1, #28]
  tmpreg = READ_BIT(RCC->APB1ENR, Periphs);
 8002a84:	4b05      	ldr	r3, [pc, #20]	; (8002a9c <LL_APB1_GRP1_EnableClock+0x2c>)
 8002a86:	69da      	ldr	r2, [r3, #28]
 8002a88:	687b      	ldr	r3, [r7, #4]
 8002a8a:	4013      	ands	r3, r2
 8002a8c:	60fb      	str	r3, [r7, #12]
  (void)tmpreg;
 8002a8e:	68fb      	ldr	r3, [r7, #12]
}
 8002a90:	bf00      	nop
 8002a92:	3714      	adds	r7, #20
 8002a94:	46bd      	mov	sp, r7
 8002a96:	f85d 7b04 	ldr.w	r7, [sp], #4
 8002a9a:	4770      	bx	lr
 8002a9c:	40021000 	.word	0x40021000

08002aa0 <LL_TIM_DisableARRPreload>:
{
 8002aa0:	b480      	push	{r7}
 8002aa2:	b083      	sub	sp, #12
 8002aa4:	af00      	add	r7, sp, #0
 8002aa6:	6078      	str	r0, [r7, #4]
  CLEAR_BIT(TIMx->CR1, TIM_CR1_ARPE);
 8002aa8:	687b      	ldr	r3, [r7, #4]
 8002aaa:	681b      	ldr	r3, [r3, #0]
 8002aac:	f023 0280 	bic.w	r2, r3, #128	; 0x80
 8002ab0:	687b      	ldr	r3, [r7, #4]
 8002ab2:	601a      	str	r2, [r3, #0]
}
 8002ab4:	bf00      	nop
 8002ab6:	370c      	adds	r7, #12
 8002ab8:	46bd      	mov	sp, r7
 8002aba:	f85d 7b04 	ldr.w	r7, [sp], #4
 8002abe:	4770      	bx	lr

08002ac0 <LL_TIM_OC_DisableFast>:
{
 8002ac0:	b4b0      	push	{r4, r5, r7}
 8002ac2:	b083      	sub	sp, #12
 8002ac4:	af00      	add	r7, sp, #0
 8002ac6:	6078      	str	r0, [r7, #4]
 8002ac8:	6039      	str	r1, [r7, #0]
  register uint8_t iChannel = TIM_GET_CHANNEL_INDEX(Channel);
 8002aca:	683b      	ldr	r3, [r7, #0]
 8002acc:	2b01      	cmp	r3, #1
 8002ace:	d028      	beq.n	8002b22 <LL_TIM_OC_DisableFast+0x62>
 8002ad0:	683b      	ldr	r3, [r7, #0]
 8002ad2:	2b04      	cmp	r3, #4
 8002ad4:	d023      	beq.n	8002b1e <LL_TIM_OC_DisableFast+0x5e>
 8002ad6:	683b      	ldr	r3, [r7, #0]
 8002ad8:	2b10      	cmp	r3, #16
 8002ada:	d01e      	beq.n	8002b1a <LL_TIM_OC_DisableFast+0x5a>
 8002adc:	683b      	ldr	r3, [r7, #0]
 8002ade:	2b40      	cmp	r3, #64	; 0x40
 8002ae0:	d019      	beq.n	8002b16 <LL_TIM_OC_DisableFast+0x56>
 8002ae2:	683b      	ldr	r3, [r7, #0]
 8002ae4:	f5b3 7f80 	cmp.w	r3, #256	; 0x100
 8002ae8:	d013      	beq.n	8002b12 <LL_TIM_OC_DisableFast+0x52>
 8002aea:	683b      	ldr	r3, [r7, #0]
 8002aec:	f5b3 6f80 	cmp.w	r3, #1024	; 0x400
 8002af0:	d00d      	beq.n	8002b0e <LL_TIM_OC_DisableFast+0x4e>
 8002af2:	683b      	ldr	r3, [r7, #0]
 8002af4:	f5b3 5f80 	cmp.w	r3, #4096	; 0x1000
 8002af8:	d007      	beq.n	8002b0a <LL_TIM_OC_DisableFast+0x4a>
 8002afa:	683b      	ldr	r3, [r7, #0]
 8002afc:	f5b3 3f80 	cmp.w	r3, #65536	; 0x10000
 8002b00:	d101      	bne.n	8002b06 <LL_TIM_OC_DisableFast+0x46>
 8002b02:	2307      	movs	r3, #7
 8002b04:	e00e      	b.n	8002b24 <LL_TIM_OC_DisableFast+0x64>
 8002b06:	2308      	movs	r3, #8
 8002b08:	e00c      	b.n	8002b24 <LL_TIM_OC_DisableFast+0x64>
 8002b0a:	2306      	movs	r3, #6
 8002b0c:	e00a      	b.n	8002b24 <LL_TIM_OC_DisableFast+0x64>
 8002b0e:	2305      	movs	r3, #5
 8002b10:	e008      	b.n	8002b24 <LL_TIM_OC_DisableFast+0x64>
 8002b12:	2304      	movs	r3, #4
 8002b14:	e006      	b.n	8002b24 <LL_TIM_OC_DisableFast+0x64>
 8002b16:	2303      	movs	r3, #3
 8002b18:	e004      	b.n	8002b24 <LL_TIM_OC_DisableFast+0x64>
 8002b1a:	2302      	movs	r3, #2
 8002b1c:	e002      	b.n	8002b24 <LL_TIM_OC_DisableFast+0x64>
 8002b1e:	2301      	movs	r3, #1
 8002b20:	e000      	b.n	8002b24 <LL_TIM_OC_DisableFast+0x64>
 8002b22:	2300      	movs	r3, #0
 8002b24:	461d      	mov	r5, r3
  register __IO uint32_t *pReg = (__IO uint32_t *)((uint32_t)((uint32_t)(&TIMx->CCMR1) + OFFSET_TAB_CCMRx[iChannel]));
 8002b26:	687b      	ldr	r3, [r7, #4]
 8002b28:	3318      	adds	r3, #24
 8002b2a:	461a      	mov	r2, r3
 8002b2c:	4629      	mov	r1, r5
 8002b2e:	4b09      	ldr	r3, [pc, #36]	; (8002b54 <LL_TIM_OC_DisableFast+0x94>)
 8002b30:	5c5b      	ldrb	r3, [r3, r1]
 8002b32:	4413      	add	r3, r2
 8002b34:	461c      	mov	r4, r3
  CLEAR_BIT(*pReg, (TIM_CCMR1_OC1FE << SHIFT_TAB_OCxx[iChannel]));
 8002b36:	6822      	ldr	r2, [r4, #0]
 8002b38:	4629      	mov	r1, r5
 8002b3a:	4b07      	ldr	r3, [pc, #28]	; (8002b58 <LL_TIM_OC_DisableFast+0x98>)
 8002b3c:	5c5b      	ldrb	r3, [r3, r1]
 8002b3e:	4619      	mov	r1, r3
 8002b40:	2304      	movs	r3, #4
 8002b42:	408b      	lsls	r3, r1
 8002b44:	43db      	mvns	r3, r3
 8002b46:	4013      	ands	r3, r2
 8002b48:	6023      	str	r3, [r4, #0]
}
 8002b4a:	bf00      	nop
 8002b4c:	370c      	adds	r7, #12
 8002b4e:	46bd      	mov	sp, r7
 8002b50:	bcb0      	pop	{r4, r5, r7}
 8002b52:	4770      	bx	lr
 8002b54:	08006298 	.word	0x08006298
 8002b58:	080062a4 	.word	0x080062a4

08002b5c <LL_TIM_OC_EnablePreload>:
{
 8002b5c:	b4b0      	push	{r4, r5, r7}
 8002b5e:	b083      	sub	sp, #12
 8002b60:	af00      	add	r7, sp, #0
 8002b62:	6078      	str	r0, [r7, #4]
 8002b64:	6039      	str	r1, [r7, #0]
  register uint8_t iChannel = TIM_GET_CHANNEL_INDEX(Channel);
 8002b66:	683b      	ldr	r3, [r7, #0]
 8002b68:	2b01      	cmp	r3, #1
 8002b6a:	d028      	beq.n	8002bbe <LL_TIM_OC_EnablePreload+0x62>
 8002b6c:	683b      	ldr	r3, [r7, #0]
 8002b6e:	2b04      	cmp	r3, #4
 8002b70:	d023      	beq.n	8002bba <LL_TIM_OC_EnablePreload+0x5e>
 8002b72:	683b      	ldr	r3, [r7, #0]
 8002b74:	2b10      	cmp	r3, #16
 8002b76:	d01e      	beq.n	8002bb6 <LL_TIM_OC_EnablePreload+0x5a>
 8002b78:	683b      	ldr	r3, [r7, #0]
 8002b7a:	2b40      	cmp	r3, #64	; 0x40
 8002b7c:	d019      	beq.n	8002bb2 <LL_TIM_OC_EnablePreload+0x56>
 8002b7e:	683b      	ldr	r3, [r7, #0]
 8002b80:	f5b3 7f80 	cmp.w	r3, #256	; 0x100
 8002b84:	d013      	beq.n	8002bae <LL_TIM_OC_EnablePreload+0x52>
 8002b86:	683b      	ldr	r3, [r7, #0]
 8002b88:	f5b3 6f80 	cmp.w	r3, #1024	; 0x400
 8002b8c:	d00d      	beq.n	8002baa <LL_TIM_OC_EnablePreload+0x4e>
 8002b8e:	683b      	ldr	r3, [r7, #0]
 8002b90:	f5b3 5f80 	cmp.w	r3, #4096	; 0x1000
 8002b94:	d007      	beq.n	8002ba6 <LL_TIM_OC_EnablePreload+0x4a>
 8002b96:	683b      	ldr	r3, [r7, #0]
 8002b98:	f5b3 3f80 	cmp.w	r3, #65536	; 0x10000
 8002b9c:	d101      	bne.n	8002ba2 <LL_TIM_OC_EnablePreload+0x46>
 8002b9e:	2307      	movs	r3, #7
 8002ba0:	e00e      	b.n	8002bc0 <LL_TIM_OC_EnablePreload+0x64>
 8002ba2:	2308      	movs	r3, #8
 8002ba4:	e00c      	b.n	8002bc0 <LL_TIM_OC_EnablePreload+0x64>
 8002ba6:	2306      	movs	r3, #6
 8002ba8:	e00a      	b.n	8002bc0 <LL_TIM_OC_EnablePreload+0x64>
 8002baa:	2305      	movs	r3, #5
 8002bac:	e008      	b.n	8002bc0 <LL_TIM_OC_EnablePreload+0x64>
 8002bae:	2304      	movs	r3, #4
 8002bb0:	e006      	b.n	8002bc0 <LL_TIM_OC_EnablePreload+0x64>
 8002bb2:	2303      	movs	r3, #3
 8002bb4:	e004      	b.n	8002bc0 <LL_TIM_OC_EnablePreload+0x64>
 8002bb6:	2302      	movs	r3, #2
 8002bb8:	e002      	b.n	8002bc0 <LL_TIM_OC_EnablePreload+0x64>
 8002bba:	2301      	movs	r3, #1
 8002bbc:	e000      	b.n	8002bc0 <LL_TIM_OC_EnablePreload+0x64>
 8002bbe:	2300      	movs	r3, #0
 8002bc0:	461d      	mov	r5, r3
  register __IO uint32_t *pReg = (__IO uint32_t *)((uint32_t)((uint32_t)(&TIMx->CCMR1) + OFFSET_TAB_CCMRx[iChannel]));
 8002bc2:	687b      	ldr	r3, [r7, #4]
 8002bc4:	3318      	adds	r3, #24
 8002bc6:	461a      	mov	r2, r3
 8002bc8:	4629      	mov	r1, r5
 8002bca:	4b09      	ldr	r3, [pc, #36]	; (8002bf0 <LL_TIM_OC_EnablePreload+0x94>)
 8002bcc:	5c5b      	ldrb	r3, [r3, r1]
 8002bce:	4413      	add	r3, r2
 8002bd0:	461c      	mov	r4, r3
  SET_BIT(*pReg, (TIM_CCMR1_OC1PE << SHIFT_TAB_OCxx[iChannel]));
 8002bd2:	6822      	ldr	r2, [r4, #0]
 8002bd4:	4629      	mov	r1, r5
 8002bd6:	4b07      	ldr	r3, [pc, #28]	; (8002bf4 <LL_TIM_OC_EnablePreload+0x98>)
 8002bd8:	5c5b      	ldrb	r3, [r3, r1]
 8002bda:	4619      	mov	r1, r3
 8002bdc:	2308      	movs	r3, #8
 8002bde:	408b      	lsls	r3, r1
 8002be0:	4313      	orrs	r3, r2
 8002be2:	6023      	str	r3, [r4, #0]
}
 8002be4:	bf00      	nop
 8002be6:	370c      	adds	r7, #12
 8002be8:	46bd      	mov	sp, r7
 8002bea:	bcb0      	pop	{r4, r5, r7}
 8002bec:	4770      	bx	lr
 8002bee:	bf00      	nop
 8002bf0:	08006298 	.word	0x08006298
 8002bf4:	080062a4 	.word	0x080062a4

08002bf8 <LL_TIM_SetClockSource>:
{
 8002bf8:	b480      	push	{r7}
 8002bfa:	b083      	sub	sp, #12
 8002bfc:	af00      	add	r7, sp, #0
 8002bfe:	6078      	str	r0, [r7, #4]
 8002c00:	6039      	str	r1, [r7, #0]
  MODIFY_REG(TIMx->SMCR, TIM_SMCR_SMS | TIM_SMCR_ECE, ClockSource);
 8002c02:	687b      	ldr	r3, [r7, #4]
 8002c04:	689b      	ldr	r3, [r3, #8]
 8002c06:	f423 33a0 	bic.w	r3, r3, #81920	; 0x14000
 8002c0a:	f023 0307 	bic.w	r3, r3, #7
 8002c0e:	683a      	ldr	r2, [r7, #0]
 8002c10:	431a      	orrs	r2, r3
 8002c12:	687b      	ldr	r3, [r7, #4]
 8002c14:	609a      	str	r2, [r3, #8]
}
 8002c16:	bf00      	nop
 8002c18:	370c      	adds	r7, #12
 8002c1a:	46bd      	mov	sp, r7
 8002c1c:	f85d 7b04 	ldr.w	r7, [sp], #4
 8002c20:	4770      	bx	lr

08002c22 <LL_TIM_SetTriggerOutput>:
{
 8002c22:	b480      	push	{r7}
 8002c24:	b083      	sub	sp, #12
 8002c26:	af00      	add	r7, sp, #0
 8002c28:	6078      	str	r0, [r7, #4]
 8002c2a:	6039      	str	r1, [r7, #0]
  MODIFY_REG(TIMx->CR2, TIM_CR2_MMS, TimerSynchronization);
 8002c2c:	687b      	ldr	r3, [r7, #4]
 8002c2e:	685b      	ldr	r3, [r3, #4]
 8002c30:	f023 0270 	bic.w	r2, r3, #112	; 0x70
 8002c34:	683b      	ldr	r3, [r7, #0]
 8002c36:	431a      	orrs	r2, r3
 8002c38:	687b      	ldr	r3, [r7, #4]
 8002c3a:	605a      	str	r2, [r3, #4]
}
 8002c3c:	bf00      	nop
 8002c3e:	370c      	adds	r7, #12
 8002c40:	46bd      	mov	sp, r7
 8002c42:	f85d 7b04 	ldr.w	r7, [sp], #4
 8002c46:	4770      	bx	lr

08002c48 <LL_TIM_DisableMasterSlaveMode>:
{
 8002c48:	b480      	push	{r7}
 8002c4a:	b083      	sub	sp, #12
 8002c4c:	af00      	add	r7, sp, #0
 8002c4e:	6078      	str	r0, [r7, #4]
  CLEAR_BIT(TIMx->SMCR, TIM_SMCR_MSM);
 8002c50:	687b      	ldr	r3, [r7, #4]
 8002c52:	689b      	ldr	r3, [r3, #8]
 8002c54:	f023 0280 	bic.w	r2, r3, #128	; 0x80
 8002c58:	687b      	ldr	r3, [r7, #4]
 8002c5a:	609a      	str	r2, [r3, #8]
}
 8002c5c:	bf00      	nop
 8002c5e:	370c      	adds	r7, #12
 8002c60:	46bd      	mov	sp, r7
 8002c62:	f85d 7b04 	ldr.w	r7, [sp], #4
 8002c66:	4770      	bx	lr

08002c68 <MX_TIM2_Init>:

/* USER CODE END 0 */

/* TIM2 init function */
void MX_TIM2_Init(void)
{
 8002c68:	b580      	push	{r7, lr}
 8002c6a:	b094      	sub	sp, #80	; 0x50
 8002c6c:	af00      	add	r7, sp, #0
  LL_TIM_InitTypeDef TIM_InitStruct = {0};
 8002c6e:	f107 033c 	add.w	r3, r7, #60	; 0x3c
 8002c72:	2200      	movs	r2, #0
 8002c74:	601a      	str	r2, [r3, #0]
 8002c76:	605a      	str	r2, [r3, #4]
 8002c78:	609a      	str	r2, [r3, #8]
 8002c7a:	60da      	str	r2, [r3, #12]
 8002c7c:	611a      	str	r2, [r3, #16]
  LL_TIM_OC_InitTypeDef TIM_OC_InitStruct = {0};
 8002c7e:	f107 031c 	add.w	r3, r7, #28
 8002c82:	2220      	movs	r2, #32
 8002c84:	2100      	movs	r1, #0
 8002c86:	4618      	mov	r0, r3
 8002c88:	f000 fd64 	bl	8003754 <memset>

  LL_GPIO_InitTypeDef GPIO_InitStruct = {0};
 8002c8c:	1d3b      	adds	r3, r7, #4
 8002c8e:	2200      	movs	r2, #0
 8002c90:	601a      	str	r2, [r3, #0]
 8002c92:	605a      	str	r2, [r3, #4]
 8002c94:	609a      	str	r2, [r3, #8]
 8002c96:	60da      	str	r2, [r3, #12]
 8002c98:	611a      	str	r2, [r3, #16]
 8002c9a:	615a      	str	r2, [r3, #20]
  /* Peripheral clock enable */
  LL_APB1_GRP1_EnableClock(LL_APB1_GRP1_PERIPH_TIM2);
 8002c9c:	2001      	movs	r0, #1
 8002c9e:	f7ff fee7 	bl	8002a70 <LL_APB1_GRP1_EnableClock>

  /* TIM2 interrupt Init */
  NVIC_SetPriority(TIM2_IRQn, NVIC_EncodePriority(NVIC_GetPriorityGrouping(),0, 0));
 8002ca2:	f7ff fe47 	bl	8002934 <NVIC_GetPriorityGrouping>
 8002ca6:	4603      	mov	r3, r0
 8002ca8:	2200      	movs	r2, #0
 8002caa:	2100      	movs	r1, #0
 8002cac:	4618      	mov	r0, r3
 8002cae:	f7ff fe93 	bl	80029d8 <NVIC_EncodePriority>
 8002cb2:	4603      	mov	r3, r0
 8002cb4:	4619      	mov	r1, r3
 8002cb6:	201c      	movs	r0, #28
 8002cb8:	f7ff fe64 	bl	8002984 <NVIC_SetPriority>
  NVIC_EnableIRQ(TIM2_IRQn);
 8002cbc:	201c      	movs	r0, #28
 8002cbe:	f7ff fe47 	bl	8002950 <NVIC_EnableIRQ>

  TIM_InitStruct.Prescaler = 7999;
 8002cc2:	f641 733f 	movw	r3, #7999	; 0x1f3f
 8002cc6:	87bb      	strh	r3, [r7, #60]	; 0x3c
  TIM_InitStruct.CounterMode = LL_TIM_COUNTERMODE_UP;
 8002cc8:	2300      	movs	r3, #0
 8002cca:	643b      	str	r3, [r7, #64]	; 0x40
  TIM_InitStruct.Autoreload = 9;
 8002ccc:	2309      	movs	r3, #9
 8002cce:	647b      	str	r3, [r7, #68]	; 0x44
  TIM_InitStruct.ClockDivision = LL_TIM_CLOCKDIVISION_DIV1;
 8002cd0:	2300      	movs	r3, #0
 8002cd2:	64bb      	str	r3, [r7, #72]	; 0x48
  LL_TIM_Init(TIM2, &TIM_InitStruct);
 8002cd4:	f107 033c 	add.w	r3, r7, #60	; 0x3c
 8002cd8:	4619      	mov	r1, r3
 8002cda:	f04f 4080 	mov.w	r0, #1073741824	; 0x40000000
 8002cde:	f7fe fb05 	bl	80012ec <LL_TIM_Init>
  LL_TIM_DisableARRPreload(TIM2);
 8002ce2:	f04f 4080 	mov.w	r0, #1073741824	; 0x40000000
 8002ce6:	f7ff fedb 	bl	8002aa0 <LL_TIM_DisableARRPreload>
  LL_TIM_SetClockSource(TIM2, LL_TIM_CLOCKSOURCE_INTERNAL);
 8002cea:	2100      	movs	r1, #0
 8002cec:	f04f 4080 	mov.w	r0, #1073741824	; 0x40000000
 8002cf0:	f7ff ff82 	bl	8002bf8 <LL_TIM_SetClockSource>
  LL_TIM_OC_EnablePreload(TIM2, LL_TIM_CHANNEL_CH1);
 8002cf4:	2101      	movs	r1, #1
 8002cf6:	f04f 4080 	mov.w	r0, #1073741824	; 0x40000000
 8002cfa:	f7ff ff2f 	bl	8002b5c <LL_TIM_OC_EnablePreload>
  TIM_OC_InitStruct.OCMode = LL_TIM_OCMODE_PWM1;
 8002cfe:	2360      	movs	r3, #96	; 0x60
 8002d00:	61fb      	str	r3, [r7, #28]
  TIM_OC_InitStruct.OCState = LL_TIM_OCSTATE_DISABLE;
 8002d02:	2300      	movs	r3, #0
 8002d04:	623b      	str	r3, [r7, #32]
  TIM_OC_InitStruct.OCNState = LL_TIM_OCSTATE_DISABLE;
 8002d06:	2300      	movs	r3, #0
 8002d08:	627b      	str	r3, [r7, #36]	; 0x24
  TIM_OC_InitStruct.CompareValue = 0;
 8002d0a:	2300      	movs	r3, #0
 8002d0c:	62bb      	str	r3, [r7, #40]	; 0x28
  TIM_OC_InitStruct.OCPolarity = LL_TIM_OCPOLARITY_HIGH;
 8002d0e:	2300      	movs	r3, #0
 8002d10:	62fb      	str	r3, [r7, #44]	; 0x2c
  LL_TIM_OC_Init(TIM2, LL_TIM_CHANNEL_CH1, &TIM_OC_InitStruct);
 8002d12:	f107 031c 	add.w	r3, r7, #28
 8002d16:	461a      	mov	r2, r3
 8002d18:	2101      	movs	r1, #1
 8002d1a:	f04f 4080 	mov.w	r0, #1073741824	; 0x40000000
 8002d1e:	f7fe fb59 	bl	80013d4 <LL_TIM_OC_Init>
  LL_TIM_OC_DisableFast(TIM2, LL_TIM_CHANNEL_CH1);
 8002d22:	2101      	movs	r1, #1
 8002d24:	f04f 4080 	mov.w	r0, #1073741824	; 0x40000000
 8002d28:	f7ff feca 	bl	8002ac0 <LL_TIM_OC_DisableFast>
  LL_TIM_SetTriggerOutput(TIM2, LL_TIM_TRGO_RESET);
 8002d2c:	2100      	movs	r1, #0
 8002d2e:	f04f 4080 	mov.w	r0, #1073741824	; 0x40000000
 8002d32:	f7ff ff76 	bl	8002c22 <LL_TIM_SetTriggerOutput>
  LL_TIM_DisableMasterSlaveMode(TIM2);
 8002d36:	f04f 4080 	mov.w	r0, #1073741824	; 0x40000000
 8002d3a:	f7ff ff85 	bl	8002c48 <LL_TIM_DisableMasterSlaveMode>
  LL_AHB1_GRP1_EnableClock(LL_AHB1_GRP1_PERIPH_GPIOA);
 8002d3e:	f44f 3000 	mov.w	r0, #131072	; 0x20000
 8002d42:	f7ff fe7d 	bl	8002a40 <LL_AHB1_GRP1_EnableClock>
    /**TIM2 GPIO Configuration
    PA5     ------> TIM2_CH1
    */
  GPIO_InitStruct.Pin = LL_GPIO_PIN_5;
 8002d46:	2320      	movs	r3, #32
 8002d48:	607b      	str	r3, [r7, #4]
  GPIO_InitStruct.Mode = LL_GPIO_MODE_ALTERNATE;
 8002d4a:	2302      	movs	r3, #2
 8002d4c:	60bb      	str	r3, [r7, #8]
  GPIO_InitStruct.Speed = LL_GPIO_SPEED_FREQ_LOW;
 8002d4e:	2300      	movs	r3, #0
 8002d50:	60fb      	str	r3, [r7, #12]
  GPIO_InitStruct.OutputType = LL_GPIO_OUTPUT_PUSHPULL;
 8002d52:	2300      	movs	r3, #0
 8002d54:	613b      	str	r3, [r7, #16]
  GPIO_InitStruct.Pull = LL_GPIO_PULL_NO;
 8002d56:	2300      	movs	r3, #0
 8002d58:	617b      	str	r3, [r7, #20]
  GPIO_InitStruct.Alternate = LL_GPIO_AF_1;
 8002d5a:	2301      	movs	r3, #1
 8002d5c:	61bb      	str	r3, [r7, #24]
  LL_GPIO_Init(GPIOA, &GPIO_InitStruct);
 8002d5e:	1d3b      	adds	r3, r7, #4
 8002d60:	4619      	mov	r1, r3
 8002d62:	f04f 4090 	mov.w	r0, #1207959552	; 0x48000000
 8002d66:	f7fe f81a 	bl	8000d9e <LL_GPIO_Init>

}
 8002d6a:	bf00      	nop
 8002d6c:	3750      	adds	r7, #80	; 0x50
 8002d6e:	46bd      	mov	sp, r7
 8002d70:	bd80      	pop	{r7, pc}
	...

08002d74 <NVIC_EnableIRQ>:
{
 8002d74:	b480      	push	{r7}
 8002d76:	b083      	sub	sp, #12
 8002d78:	af00      	add	r7, sp, #0
 8002d7a:	4603      	mov	r3, r0
 8002d7c:	71fb      	strb	r3, [r7, #7]
  NVIC->ISER[(((uint32_t)(int32_t)IRQn) >> 5UL)] = (uint32_t)(1UL << (((uint32_t)(int32_t)IRQn) & 0x1FUL));
 8002d7e:	79fb      	ldrb	r3, [r7, #7]
 8002d80:	f003 021f 	and.w	r2, r3, #31
 8002d84:	4907      	ldr	r1, [pc, #28]	; (8002da4 <NVIC_EnableIRQ+0x30>)
 8002d86:	f997 3007 	ldrsb.w	r3, [r7, #7]
 8002d8a:	095b      	lsrs	r3, r3, #5
 8002d8c:	2001      	movs	r0, #1
 8002d8e:	fa00 f202 	lsl.w	r2, r0, r2
 8002d92:	f841 2023 	str.w	r2, [r1, r3, lsl #2]
}
 8002d96:	bf00      	nop
 8002d98:	370c      	adds	r7, #12
 8002d9a:	46bd      	mov	sp, r7
 8002d9c:	f85d 7b04 	ldr.w	r7, [sp], #4
 8002da0:	4770      	bx	lr
 8002da2:	bf00      	nop
 8002da4:	e000e100 	.word	0xe000e100

08002da8 <NVIC_SetPriority>:
{
 8002da8:	b480      	push	{r7}
 8002daa:	b083      	sub	sp, #12
 8002dac:	af00      	add	r7, sp, #0
 8002dae:	4603      	mov	r3, r0
 8002db0:	6039      	str	r1, [r7, #0]
 8002db2:	71fb      	strb	r3, [r7, #7]
  if ((int32_t)(IRQn) < 0)
 8002db4:	f997 3007 	ldrsb.w	r3, [r7, #7]
 8002db8:	2b00      	cmp	r3, #0
 8002dba:	da0b      	bge.n	8002dd4 <NVIC_SetPriority+0x2c>
    SCB->SHP[(((uint32_t)(int32_t)IRQn) & 0xFUL)-4UL] = (uint8_t)((priority << (8U - __NVIC_PRIO_BITS)) & (uint32_t)0xFFUL);
 8002dbc:	683b      	ldr	r3, [r7, #0]
 8002dbe:	b2da      	uxtb	r2, r3
 8002dc0:	490c      	ldr	r1, [pc, #48]	; (8002df4 <NVIC_SetPriority+0x4c>)
 8002dc2:	79fb      	ldrb	r3, [r7, #7]
 8002dc4:	f003 030f 	and.w	r3, r3, #15
 8002dc8:	3b04      	subs	r3, #4
 8002dca:	0112      	lsls	r2, r2, #4
 8002dcc:	b2d2      	uxtb	r2, r2
 8002dce:	440b      	add	r3, r1
 8002dd0:	761a      	strb	r2, [r3, #24]
}
 8002dd2:	e009      	b.n	8002de8 <NVIC_SetPriority+0x40>
    NVIC->IP[((uint32_t)(int32_t)IRQn)]               = (uint8_t)((priority << (8U - __NVIC_PRIO_BITS)) & (uint32_t)0xFFUL);
 8002dd4:	683b      	ldr	r3, [r7, #0]
 8002dd6:	b2da      	uxtb	r2, r3
 8002dd8:	4907      	ldr	r1, [pc, #28]	; (8002df8 <NVIC_SetPriority+0x50>)
 8002dda:	f997 3007 	ldrsb.w	r3, [r7, #7]
 8002dde:	0112      	lsls	r2, r2, #4
 8002de0:	b2d2      	uxtb	r2, r2
 8002de2:	440b      	add	r3, r1
 8002de4:	f883 2300 	strb.w	r2, [r3, #768]	; 0x300
}
 8002de8:	bf00      	nop
 8002dea:	370c      	adds	r7, #12
 8002dec:	46bd      	mov	sp, r7
 8002dee:	f85d 7b04 	ldr.w	r7, [sp], #4
 8002df2:	4770      	bx	lr
 8002df4:	e000ed00 	.word	0xe000ed00
 8002df8:	e000e100 	.word	0xe000e100

08002dfc <LL_DMA_EnableChannel>:
{
 8002dfc:	b480      	push	{r7}
 8002dfe:	b083      	sub	sp, #12
 8002e00:	af00      	add	r7, sp, #0
 8002e02:	6078      	str	r0, [r7, #4]
 8002e04:	6039      	str	r1, [r7, #0]
  SET_BIT(((DMA_Channel_TypeDef *)((uint32_t)((uint32_t)DMAx + CHANNEL_OFFSET_TAB[Channel - 1U])))->CCR, DMA_CCR_EN);
 8002e06:	683b      	ldr	r3, [r7, #0]
 8002e08:	3b01      	subs	r3, #1
 8002e0a:	4a0b      	ldr	r2, [pc, #44]	; (8002e38 <LL_DMA_EnableChannel+0x3c>)
 8002e0c:	5cd3      	ldrb	r3, [r2, r3]
 8002e0e:	461a      	mov	r2, r3
 8002e10:	687b      	ldr	r3, [r7, #4]
 8002e12:	4413      	add	r3, r2
 8002e14:	681b      	ldr	r3, [r3, #0]
 8002e16:	683a      	ldr	r2, [r7, #0]
 8002e18:	3a01      	subs	r2, #1
 8002e1a:	4907      	ldr	r1, [pc, #28]	; (8002e38 <LL_DMA_EnableChannel+0x3c>)
 8002e1c:	5c8a      	ldrb	r2, [r1, r2]
 8002e1e:	4611      	mov	r1, r2
 8002e20:	687a      	ldr	r2, [r7, #4]
 8002e22:	440a      	add	r2, r1
 8002e24:	f043 0301 	orr.w	r3, r3, #1
 8002e28:	6013      	str	r3, [r2, #0]
}
 8002e2a:	bf00      	nop
 8002e2c:	370c      	adds	r7, #12
 8002e2e:	46bd      	mov	sp, r7
 8002e30:	f85d 7b04 	ldr.w	r7, [sp], #4
 8002e34:	4770      	bx	lr
 8002e36:	bf00      	nop
 8002e38:	080062b0 	.word	0x080062b0

08002e3c <LL_DMA_SetDataTransferDirection>:
{
 8002e3c:	b480      	push	{r7}
 8002e3e:	b085      	sub	sp, #20
 8002e40:	af00      	add	r7, sp, #0
 8002e42:	60f8      	str	r0, [r7, #12]
 8002e44:	60b9      	str	r1, [r7, #8]
 8002e46:	607a      	str	r2, [r7, #4]
  MODIFY_REG(((DMA_Channel_TypeDef *)((uint32_t)((uint32_t)DMAx + CHANNEL_OFFSET_TAB[Channel - 1U])))->CCR,
 8002e48:	68bb      	ldr	r3, [r7, #8]
 8002e4a:	3b01      	subs	r3, #1
 8002e4c:	4a0d      	ldr	r2, [pc, #52]	; (8002e84 <LL_DMA_SetDataTransferDirection+0x48>)
 8002e4e:	5cd3      	ldrb	r3, [r2, r3]
 8002e50:	461a      	mov	r2, r3
 8002e52:	68fb      	ldr	r3, [r7, #12]
 8002e54:	4413      	add	r3, r2
 8002e56:	681b      	ldr	r3, [r3, #0]
 8002e58:	f423 4380 	bic.w	r3, r3, #16384	; 0x4000
 8002e5c:	f023 0310 	bic.w	r3, r3, #16
 8002e60:	68ba      	ldr	r2, [r7, #8]
 8002e62:	3a01      	subs	r2, #1
 8002e64:	4907      	ldr	r1, [pc, #28]	; (8002e84 <LL_DMA_SetDataTransferDirection+0x48>)
 8002e66:	5c8a      	ldrb	r2, [r1, r2]
 8002e68:	4611      	mov	r1, r2
 8002e6a:	68fa      	ldr	r2, [r7, #12]
 8002e6c:	440a      	add	r2, r1
 8002e6e:	4611      	mov	r1, r2
 8002e70:	687a      	ldr	r2, [r7, #4]
 8002e72:	4313      	orrs	r3, r2
 8002e74:	600b      	str	r3, [r1, #0]
}
 8002e76:	bf00      	nop
 8002e78:	3714      	adds	r7, #20
 8002e7a:	46bd      	mov	sp, r7
 8002e7c:	f85d 7b04 	ldr.w	r7, [sp], #4
 8002e80:	4770      	bx	lr
 8002e82:	bf00      	nop
 8002e84:	080062b0 	.word	0x080062b0

08002e88 <LL_DMA_GetDataTransferDirection>:
{
 8002e88:	b480      	push	{r7}
 8002e8a:	b083      	sub	sp, #12
 8002e8c:	af00      	add	r7, sp, #0
 8002e8e:	6078      	str	r0, [r7, #4]
 8002e90:	6039      	str	r1, [r7, #0]
  return (READ_BIT(((DMA_Channel_TypeDef *)((uint32_t)((uint32_t)DMAx + CHANNEL_OFFSET_TAB[Channel - 1U])))->CCR,
 8002e92:	683b      	ldr	r3, [r7, #0]
 8002e94:	3b01      	subs	r3, #1
 8002e96:	4a07      	ldr	r2, [pc, #28]	; (8002eb4 <LL_DMA_GetDataTransferDirection+0x2c>)
 8002e98:	5cd3      	ldrb	r3, [r2, r3]
 8002e9a:	461a      	mov	r2, r3
 8002e9c:	687b      	ldr	r3, [r7, #4]
 8002e9e:	4413      	add	r3, r2
 8002ea0:	681a      	ldr	r2, [r3, #0]
 8002ea2:	f244 0310 	movw	r3, #16400	; 0x4010
 8002ea6:	4013      	ands	r3, r2
}
 8002ea8:	4618      	mov	r0, r3
 8002eaa:	370c      	adds	r7, #12
 8002eac:	46bd      	mov	sp, r7
 8002eae:	f85d 7b04 	ldr.w	r7, [sp], #4
 8002eb2:	4770      	bx	lr
 8002eb4:	080062b0 	.word	0x080062b0

08002eb8 <LL_DMA_SetMode>:
{
 8002eb8:	b480      	push	{r7}
 8002eba:	b085      	sub	sp, #20
 8002ebc:	af00      	add	r7, sp, #0
 8002ebe:	60f8      	str	r0, [r7, #12]
 8002ec0:	60b9      	str	r1, [r7, #8]
 8002ec2:	607a      	str	r2, [r7, #4]
  MODIFY_REG(((DMA_Channel_TypeDef *)((uint32_t)((uint32_t)DMAx + CHANNEL_OFFSET_TAB[Channel - 1U])))->CCR, DMA_CCR_CIRC,
 8002ec4:	68bb      	ldr	r3, [r7, #8]
 8002ec6:	3b01      	subs	r3, #1
 8002ec8:	4a0c      	ldr	r2, [pc, #48]	; (8002efc <LL_DMA_SetMode+0x44>)
 8002eca:	5cd3      	ldrb	r3, [r2, r3]
 8002ecc:	461a      	mov	r2, r3
 8002ece:	68fb      	ldr	r3, [r7, #12]
 8002ed0:	4413      	add	r3, r2
 8002ed2:	681b      	ldr	r3, [r3, #0]
 8002ed4:	f023 0220 	bic.w	r2, r3, #32
 8002ed8:	68bb      	ldr	r3, [r7, #8]
 8002eda:	3b01      	subs	r3, #1
 8002edc:	4907      	ldr	r1, [pc, #28]	; (8002efc <LL_DMA_SetMode+0x44>)
 8002ede:	5ccb      	ldrb	r3, [r1, r3]
 8002ee0:	4619      	mov	r1, r3
 8002ee2:	68fb      	ldr	r3, [r7, #12]
 8002ee4:	440b      	add	r3, r1
 8002ee6:	4619      	mov	r1, r3
 8002ee8:	687b      	ldr	r3, [r7, #4]
 8002eea:	4313      	orrs	r3, r2
 8002eec:	600b      	str	r3, [r1, #0]
}
 8002eee:	bf00      	nop
 8002ef0:	3714      	adds	r7, #20
 8002ef2:	46bd      	mov	sp, r7
 8002ef4:	f85d 7b04 	ldr.w	r7, [sp], #4
 8002ef8:	4770      	bx	lr
 8002efa:	bf00      	nop
 8002efc:	080062b0 	.word	0x080062b0

08002f00 <LL_DMA_SetPeriphIncMode>:
{
 8002f00:	b480      	push	{r7}
 8002f02:	b085      	sub	sp, #20
 8002f04:	af00      	add	r7, sp, #0
 8002f06:	60f8      	str	r0, [r7, #12]
 8002f08:	60b9      	str	r1, [r7, #8]
 8002f0a:	607a      	str	r2, [r7, #4]
  MODIFY_REG(((DMA_Channel_TypeDef *)((uint32_t)((uint32_t)DMAx + CHANNEL_OFFSET_TAB[Channel - 1U])))->CCR, DMA_CCR_PINC,
 8002f0c:	68bb      	ldr	r3, [r7, #8]
 8002f0e:	3b01      	subs	r3, #1
 8002f10:	4a0c      	ldr	r2, [pc, #48]	; (8002f44 <LL_DMA_SetPeriphIncMode+0x44>)
 8002f12:	5cd3      	ldrb	r3, [r2, r3]
 8002f14:	461a      	mov	r2, r3
 8002f16:	68fb      	ldr	r3, [r7, #12]
 8002f18:	4413      	add	r3, r2
 8002f1a:	681b      	ldr	r3, [r3, #0]
 8002f1c:	f023 0240 	bic.w	r2, r3, #64	; 0x40
 8002f20:	68bb      	ldr	r3, [r7, #8]
 8002f22:	3b01      	subs	r3, #1
 8002f24:	4907      	ldr	r1, [pc, #28]	; (8002f44 <LL_DMA_SetPeriphIncMode+0x44>)
 8002f26:	5ccb      	ldrb	r3, [r1, r3]
 8002f28:	4619      	mov	r1, r3
 8002f2a:	68fb      	ldr	r3, [r7, #12]
 8002f2c:	440b      	add	r3, r1
 8002f2e:	4619      	mov	r1, r3
 8002f30:	687b      	ldr	r3, [r7, #4]
 8002f32:	4313      	orrs	r3, r2
 8002f34:	600b      	str	r3, [r1, #0]
}
 8002f36:	bf00      	nop
 8002f38:	3714      	adds	r7, #20
 8002f3a:	46bd      	mov	sp, r7
 8002f3c:	f85d 7b04 	ldr.w	r7, [sp], #4
 8002f40:	4770      	bx	lr
 8002f42:	bf00      	nop
 8002f44:	080062b0 	.word	0x080062b0

08002f48 <LL_DMA_SetMemoryIncMode>:
{
 8002f48:	b480      	push	{r7}
 8002f4a:	b085      	sub	sp, #20
 8002f4c:	af00      	add	r7, sp, #0
 8002f4e:	60f8      	str	r0, [r7, #12]
 8002f50:	60b9      	str	r1, [r7, #8]
 8002f52:	607a      	str	r2, [r7, #4]
  MODIFY_REG(((DMA_Channel_TypeDef *)((uint32_t)((uint32_t)DMAx + CHANNEL_OFFSET_TAB[Channel - 1U])))->CCR, DMA_CCR_MINC,
 8002f54:	68bb      	ldr	r3, [r7, #8]
 8002f56:	3b01      	subs	r3, #1
 8002f58:	4a0c      	ldr	r2, [pc, #48]	; (8002f8c <LL_DMA_SetMemoryIncMode+0x44>)
 8002f5a:	5cd3      	ldrb	r3, [r2, r3]
 8002f5c:	461a      	mov	r2, r3
 8002f5e:	68fb      	ldr	r3, [r7, #12]
 8002f60:	4413      	add	r3, r2
 8002f62:	681b      	ldr	r3, [r3, #0]
 8002f64:	f023 0280 	bic.w	r2, r3, #128	; 0x80
 8002f68:	68bb      	ldr	r3, [r7, #8]
 8002f6a:	3b01      	subs	r3, #1
 8002f6c:	4907      	ldr	r1, [pc, #28]	; (8002f8c <LL_DMA_SetMemoryIncMode+0x44>)
 8002f6e:	5ccb      	ldrb	r3, [r1, r3]
 8002f70:	4619      	mov	r1, r3
 8002f72:	68fb      	ldr	r3, [r7, #12]
 8002f74:	440b      	add	r3, r1
 8002f76:	4619      	mov	r1, r3
 8002f78:	687b      	ldr	r3, [r7, #4]
 8002f7a:	4313      	orrs	r3, r2
 8002f7c:	600b      	str	r3, [r1, #0]
}
 8002f7e:	bf00      	nop
 8002f80:	3714      	adds	r7, #20
 8002f82:	46bd      	mov	sp, r7
 8002f84:	f85d 7b04 	ldr.w	r7, [sp], #4
 8002f88:	4770      	bx	lr
 8002f8a:	bf00      	nop
 8002f8c:	080062b0 	.word	0x080062b0

08002f90 <LL_DMA_SetPeriphSize>:
{
 8002f90:	b480      	push	{r7}
 8002f92:	b085      	sub	sp, #20
 8002f94:	af00      	add	r7, sp, #0
 8002f96:	60f8      	str	r0, [r7, #12]
 8002f98:	60b9      	str	r1, [r7, #8]
 8002f9a:	607a      	str	r2, [r7, #4]
  MODIFY_REG(((DMA_Channel_TypeDef *)((uint32_t)((uint32_t)DMAx + CHANNEL_OFFSET_TAB[Channel - 1U])))->CCR, DMA_CCR_PSIZE,
 8002f9c:	68bb      	ldr	r3, [r7, #8]
 8002f9e:	3b01      	subs	r3, #1
 8002fa0:	4a0c      	ldr	r2, [pc, #48]	; (8002fd4 <LL_DMA_SetPeriphSize+0x44>)
 8002fa2:	5cd3      	ldrb	r3, [r2, r3]
 8002fa4:	461a      	mov	r2, r3
 8002fa6:	68fb      	ldr	r3, [r7, #12]
 8002fa8:	4413      	add	r3, r2
 8002faa:	681b      	ldr	r3, [r3, #0]
 8002fac:	f423 7240 	bic.w	r2, r3, #768	; 0x300
 8002fb0:	68bb      	ldr	r3, [r7, #8]
 8002fb2:	3b01      	subs	r3, #1
 8002fb4:	4907      	ldr	r1, [pc, #28]	; (8002fd4 <LL_DMA_SetPeriphSize+0x44>)
 8002fb6:	5ccb      	ldrb	r3, [r1, r3]
 8002fb8:	4619      	mov	r1, r3
 8002fba:	68fb      	ldr	r3, [r7, #12]
 8002fbc:	440b      	add	r3, r1
 8002fbe:	4619      	mov	r1, r3
 8002fc0:	687b      	ldr	r3, [r7, #4]
 8002fc2:	4313      	orrs	r3, r2
 8002fc4:	600b      	str	r3, [r1, #0]
}
 8002fc6:	bf00      	nop
 8002fc8:	3714      	adds	r7, #20
 8002fca:	46bd      	mov	sp, r7
 8002fcc:	f85d 7b04 	ldr.w	r7, [sp], #4
 8002fd0:	4770      	bx	lr
 8002fd2:	bf00      	nop
 8002fd4:	080062b0 	.word	0x080062b0

08002fd8 <LL_DMA_SetMemorySize>:
{
 8002fd8:	b480      	push	{r7}
 8002fda:	b085      	sub	sp, #20
 8002fdc:	af00      	add	r7, sp, #0
 8002fde:	60f8      	str	r0, [r7, #12]
 8002fe0:	60b9      	str	r1, [r7, #8]
 8002fe2:	607a      	str	r2, [r7, #4]
  MODIFY_REG(((DMA_Channel_TypeDef *)((uint32_t)((uint32_t)DMAx + CHANNEL_OFFSET_TAB[Channel - 1U])))->CCR, DMA_CCR_MSIZE,
 8002fe4:	68bb      	ldr	r3, [r7, #8]
 8002fe6:	3b01      	subs	r3, #1
 8002fe8:	4a0c      	ldr	r2, [pc, #48]	; (800301c <LL_DMA_SetMemorySize+0x44>)
 8002fea:	5cd3      	ldrb	r3, [r2, r3]
 8002fec:	461a      	mov	r2, r3
 8002fee:	68fb      	ldr	r3, [r7, #12]
 8002ff0:	4413      	add	r3, r2
 8002ff2:	681b      	ldr	r3, [r3, #0]
 8002ff4:	f423 6240 	bic.w	r2, r3, #3072	; 0xc00
 8002ff8:	68bb      	ldr	r3, [r7, #8]
 8002ffa:	3b01      	subs	r3, #1
 8002ffc:	4907      	ldr	r1, [pc, #28]	; (800301c <LL_DMA_SetMemorySize+0x44>)
 8002ffe:	5ccb      	ldrb	r3, [r1, r3]
 8003000:	4619      	mov	r1, r3
 8003002:	68fb      	ldr	r3, [r7, #12]
 8003004:	440b      	add	r3, r1
 8003006:	4619      	mov	r1, r3
 8003008:	687b      	ldr	r3, [r7, #4]
 800300a:	4313      	orrs	r3, r2
 800300c:	600b      	str	r3, [r1, #0]
}
 800300e:	bf00      	nop
 8003010:	3714      	adds	r7, #20
 8003012:	46bd      	mov	sp, r7
 8003014:	f85d 7b04 	ldr.w	r7, [sp], #4
 8003018:	4770      	bx	lr
 800301a:	bf00      	nop
 800301c:	080062b0 	.word	0x080062b0

08003020 <LL_DMA_SetChannelPriorityLevel>:
{
 8003020:	b480      	push	{r7}
 8003022:	b085      	sub	sp, #20
 8003024:	af00      	add	r7, sp, #0
 8003026:	60f8      	str	r0, [r7, #12]
 8003028:	60b9      	str	r1, [r7, #8]
 800302a:	607a      	str	r2, [r7, #4]
  MODIFY_REG(((DMA_Channel_TypeDef *)((uint32_t)((uint32_t)DMAx + CHANNEL_OFFSET_TAB[Channel - 1U])))->CCR, DMA_CCR_PL,
 800302c:	68bb      	ldr	r3, [r7, #8]
 800302e:	3b01      	subs	r3, #1
 8003030:	4a0c      	ldr	r2, [pc, #48]	; (8003064 <LL_DMA_SetChannelPriorityLevel+0x44>)
 8003032:	5cd3      	ldrb	r3, [r2, r3]
 8003034:	461a      	mov	r2, r3
 8003036:	68fb      	ldr	r3, [r7, #12]
 8003038:	4413      	add	r3, r2
 800303a:	681b      	ldr	r3, [r3, #0]
 800303c:	f423 5240 	bic.w	r2, r3, #12288	; 0x3000
 8003040:	68bb      	ldr	r3, [r7, #8]
 8003042:	3b01      	subs	r3, #1
 8003044:	4907      	ldr	r1, [pc, #28]	; (8003064 <LL_DMA_SetChannelPriorityLevel+0x44>)
 8003046:	5ccb      	ldrb	r3, [r1, r3]
 8003048:	4619      	mov	r1, r3
 800304a:	68fb      	ldr	r3, [r7, #12]
 800304c:	440b      	add	r3, r1
 800304e:	4619      	mov	r1, r3
 8003050:	687b      	ldr	r3, [r7, #4]
 8003052:	4313      	orrs	r3, r2
 8003054:	600b      	str	r3, [r1, #0]
}
 8003056:	bf00      	nop
 8003058:	3714      	adds	r7, #20
 800305a:	46bd      	mov	sp, r7
 800305c:	f85d 7b04 	ldr.w	r7, [sp], #4
 8003060:	4770      	bx	lr
 8003062:	bf00      	nop
 8003064:	080062b0 	.word	0x080062b0

08003068 <LL_DMA_SetDataLength>:
{
 8003068:	b480      	push	{r7}
 800306a:	b085      	sub	sp, #20
 800306c:	af00      	add	r7, sp, #0
 800306e:	60f8      	str	r0, [r7, #12]
 8003070:	60b9      	str	r1, [r7, #8]
 8003072:	607a      	str	r2, [r7, #4]
  MODIFY_REG(((DMA_Channel_TypeDef *)((uint32_t)((uint32_t)DMAx + CHANNEL_OFFSET_TAB[Channel - 1U])))->CNDTR,
 8003074:	68bb      	ldr	r3, [r7, #8]
 8003076:	3b01      	subs	r3, #1
 8003078:	4a0c      	ldr	r2, [pc, #48]	; (80030ac <LL_DMA_SetDataLength+0x44>)
 800307a:	5cd3      	ldrb	r3, [r2, r3]
 800307c:	461a      	mov	r2, r3
 800307e:	68fb      	ldr	r3, [r7, #12]
 8003080:	4413      	add	r3, r2
 8003082:	685b      	ldr	r3, [r3, #4]
 8003084:	0c1b      	lsrs	r3, r3, #16
 8003086:	041b      	lsls	r3, r3, #16
 8003088:	68ba      	ldr	r2, [r7, #8]
 800308a:	3a01      	subs	r2, #1
 800308c:	4907      	ldr	r1, [pc, #28]	; (80030ac <LL_DMA_SetDataLength+0x44>)
 800308e:	5c8a      	ldrb	r2, [r1, r2]
 8003090:	4611      	mov	r1, r2
 8003092:	68fa      	ldr	r2, [r7, #12]
 8003094:	440a      	add	r2, r1
 8003096:	4611      	mov	r1, r2
 8003098:	687a      	ldr	r2, [r7, #4]
 800309a:	4313      	orrs	r3, r2
 800309c:	604b      	str	r3, [r1, #4]
}
 800309e:	bf00      	nop
 80030a0:	3714      	adds	r7, #20
 80030a2:	46bd      	mov	sp, r7
 80030a4:	f85d 7b04 	ldr.w	r7, [sp], #4
 80030a8:	4770      	bx	lr
 80030aa:	bf00      	nop
 80030ac:	080062b0 	.word	0x080062b0

080030b0 <LL_DMA_GetDataLength>:
{
 80030b0:	b480      	push	{r7}
 80030b2:	b083      	sub	sp, #12
 80030b4:	af00      	add	r7, sp, #0
 80030b6:	6078      	str	r0, [r7, #4]
 80030b8:	6039      	str	r1, [r7, #0]
  return (READ_BIT(((DMA_Channel_TypeDef *)((uint32_t)((uint32_t)DMAx + CHANNEL_OFFSET_TAB[Channel - 1U])))->CNDTR,
 80030ba:	683b      	ldr	r3, [r7, #0]
 80030bc:	3b01      	subs	r3, #1
 80030be:	4a06      	ldr	r2, [pc, #24]	; (80030d8 <LL_DMA_GetDataLength+0x28>)
 80030c0:	5cd3      	ldrb	r3, [r2, r3]
 80030c2:	461a      	mov	r2, r3
 80030c4:	687b      	ldr	r3, [r7, #4]
 80030c6:	4413      	add	r3, r2
 80030c8:	685b      	ldr	r3, [r3, #4]
 80030ca:	b29b      	uxth	r3, r3
}
 80030cc:	4618      	mov	r0, r3
 80030ce:	370c      	adds	r7, #12
 80030d0:	46bd      	mov	sp, r7
 80030d2:	f85d 7b04 	ldr.w	r7, [sp], #4
 80030d6:	4770      	bx	lr
 80030d8:	080062b0 	.word	0x080062b0

080030dc <LL_DMA_ConfigAddresses>:
{
 80030dc:	b480      	push	{r7}
 80030de:	b085      	sub	sp, #20
 80030e0:	af00      	add	r7, sp, #0
 80030e2:	60f8      	str	r0, [r7, #12]
 80030e4:	60b9      	str	r1, [r7, #8]
 80030e6:	607a      	str	r2, [r7, #4]
 80030e8:	603b      	str	r3, [r7, #0]
  if (Direction == LL_DMA_DIRECTION_MEMORY_TO_PERIPH)
 80030ea:	69bb      	ldr	r3, [r7, #24]
 80030ec:	2b10      	cmp	r3, #16
 80030ee:	d114      	bne.n	800311a <LL_DMA_ConfigAddresses+0x3e>
    WRITE_REG(((DMA_Channel_TypeDef *)((uint32_t)((uint32_t)DMAx + CHANNEL_OFFSET_TAB[Channel - 1U])))->CMAR, SrcAddress);
 80030f0:	68bb      	ldr	r3, [r7, #8]
 80030f2:	3b01      	subs	r3, #1
 80030f4:	4a16      	ldr	r2, [pc, #88]	; (8003150 <LL_DMA_ConfigAddresses+0x74>)
 80030f6:	5cd3      	ldrb	r3, [r2, r3]
 80030f8:	461a      	mov	r2, r3
 80030fa:	68fb      	ldr	r3, [r7, #12]
 80030fc:	4413      	add	r3, r2
 80030fe:	461a      	mov	r2, r3
 8003100:	687b      	ldr	r3, [r7, #4]
 8003102:	60d3      	str	r3, [r2, #12]
    WRITE_REG(((DMA_Channel_TypeDef *)((uint32_t)((uint32_t)DMAx + CHANNEL_OFFSET_TAB[Channel - 1U])))->CPAR, DstAddress);
 8003104:	68bb      	ldr	r3, [r7, #8]
 8003106:	3b01      	subs	r3, #1
 8003108:	4a11      	ldr	r2, [pc, #68]	; (8003150 <LL_DMA_ConfigAddresses+0x74>)
 800310a:	5cd3      	ldrb	r3, [r2, r3]
 800310c:	461a      	mov	r2, r3
 800310e:	68fb      	ldr	r3, [r7, #12]
 8003110:	4413      	add	r3, r2
 8003112:	461a      	mov	r2, r3
 8003114:	683b      	ldr	r3, [r7, #0]
 8003116:	6093      	str	r3, [r2, #8]
}
 8003118:	e013      	b.n	8003142 <LL_DMA_ConfigAddresses+0x66>
    WRITE_REG(((DMA_Channel_TypeDef *)((uint32_t)((uint32_t)DMAx + CHANNEL_OFFSET_TAB[Channel - 1U])))->CPAR, SrcAddress);
 800311a:	68bb      	ldr	r3, [r7, #8]
 800311c:	3b01      	subs	r3, #1
 800311e:	4a0c      	ldr	r2, [pc, #48]	; (8003150 <LL_DMA_ConfigAddresses+0x74>)
 8003120:	5cd3      	ldrb	r3, [r2, r3]
 8003122:	461a      	mov	r2, r3
 8003124:	68fb      	ldr	r3, [r7, #12]
 8003126:	4413      	add	r3, r2
 8003128:	461a      	mov	r2, r3
 800312a:	687b      	ldr	r3, [r7, #4]
 800312c:	6093      	str	r3, [r2, #8]
    WRITE_REG(((DMA_Channel_TypeDef *)((uint32_t)((uint32_t)DMAx + CHANNEL_OFFSET_TAB[Channel - 1U])))->CMAR, DstAddress);
 800312e:	68bb      	ldr	r3, [r7, #8]
 8003130:	3b01      	subs	r3, #1
 8003132:	4a07      	ldr	r2, [pc, #28]	; (8003150 <LL_DMA_ConfigAddresses+0x74>)
 8003134:	5cd3      	ldrb	r3, [r2, r3]
 8003136:	461a      	mov	r2, r3
 8003138:	68fb      	ldr	r3, [r7, #12]
 800313a:	4413      	add	r3, r2
 800313c:	461a      	mov	r2, r3
 800313e:	683b      	ldr	r3, [r7, #0]
 8003140:	60d3      	str	r3, [r2, #12]
}
 8003142:	bf00      	nop
 8003144:	3714      	adds	r7, #20
 8003146:	46bd      	mov	sp, r7
 8003148:	f85d 7b04 	ldr.w	r7, [sp], #4
 800314c:	4770      	bx	lr
 800314e:	bf00      	nop
 8003150:	080062b0 	.word	0x080062b0

08003154 <LL_DMA_SetMemoryAddress>:
{
 8003154:	b480      	push	{r7}
 8003156:	b085      	sub	sp, #20
 8003158:	af00      	add	r7, sp, #0
 800315a:	60f8      	str	r0, [r7, #12]
 800315c:	60b9      	str	r1, [r7, #8]
 800315e:	607a      	str	r2, [r7, #4]
  WRITE_REG(((DMA_Channel_TypeDef *)((uint32_t)((uint32_t)DMAx + CHANNEL_OFFSET_TAB[Channel - 1U])))->CMAR, MemoryAddress);
 8003160:	68bb      	ldr	r3, [r7, #8]
 8003162:	3b01      	subs	r3, #1
 8003164:	4a06      	ldr	r2, [pc, #24]	; (8003180 <LL_DMA_SetMemoryAddress+0x2c>)
 8003166:	5cd3      	ldrb	r3, [r2, r3]
 8003168:	461a      	mov	r2, r3
 800316a:	68fb      	ldr	r3, [r7, #12]
 800316c:	4413      	add	r3, r2
 800316e:	461a      	mov	r2, r3
 8003170:	687b      	ldr	r3, [r7, #4]
 8003172:	60d3      	str	r3, [r2, #12]
}
 8003174:	bf00      	nop
 8003176:	3714      	adds	r7, #20
 8003178:	46bd      	mov	sp, r7
 800317a:	f85d 7b04 	ldr.w	r7, [sp], #4
 800317e:	4770      	bx	lr
 8003180:	080062b0 	.word	0x080062b0

08003184 <LL_DMA_SetPeriphAddress>:
{
 8003184:	b480      	push	{r7}
 8003186:	b085      	sub	sp, #20
 8003188:	af00      	add	r7, sp, #0
 800318a:	60f8      	str	r0, [r7, #12]
 800318c:	60b9      	str	r1, [r7, #8]
 800318e:	607a      	str	r2, [r7, #4]
  WRITE_REG(((DMA_Channel_TypeDef *)((uint32_t)((uint32_t)DMAx + CHANNEL_OFFSET_TAB[Channel - 1U])))->CPAR, PeriphAddress);
 8003190:	68bb      	ldr	r3, [r7, #8]
 8003192:	3b01      	subs	r3, #1
 8003194:	4a06      	ldr	r2, [pc, #24]	; (80031b0 <LL_DMA_SetPeriphAddress+0x2c>)
 8003196:	5cd3      	ldrb	r3, [r2, r3]
 8003198:	461a      	mov	r2, r3
 800319a:	68fb      	ldr	r3, [r7, #12]
 800319c:	4413      	add	r3, r2
 800319e:	461a      	mov	r2, r3
 80031a0:	687b      	ldr	r3, [r7, #4]
 80031a2:	6093      	str	r3, [r2, #8]
}
 80031a4:	bf00      	nop
 80031a6:	3714      	adds	r7, #20
 80031a8:	46bd      	mov	sp, r7
 80031aa:	f85d 7b04 	ldr.w	r7, [sp], #4
 80031ae:	4770      	bx	lr
 80031b0:	080062b0 	.word	0x080062b0

080031b4 <LL_DMA_EnableIT_TC>:
  *         @arg @ref LL_DMA_CHANNEL_6
  *         @arg @ref LL_DMA_CHANNEL_7
  * @retval None
  */
__STATIC_INLINE void LL_DMA_EnableIT_TC(DMA_TypeDef *DMAx, uint32_t Channel)
{
 80031b4:	b480      	push	{r7}
 80031b6:	b083      	sub	sp, #12
 80031b8:	af00      	add	r7, sp, #0
 80031ba:	6078      	str	r0, [r7, #4]
 80031bc:	6039      	str	r1, [r7, #0]
  SET_BIT(((DMA_Channel_TypeDef *)((uint32_t)((uint32_t)DMAx + CHANNEL_OFFSET_TAB[Channel - 1U])))->CCR, DMA_CCR_TCIE);
 80031be:	683b      	ldr	r3, [r7, #0]
 80031c0:	3b01      	subs	r3, #1
 80031c2:	4a0b      	ldr	r2, [pc, #44]	; (80031f0 <LL_DMA_EnableIT_TC+0x3c>)
 80031c4:	5cd3      	ldrb	r3, [r2, r3]
 80031c6:	461a      	mov	r2, r3
 80031c8:	687b      	ldr	r3, [r7, #4]
 80031ca:	4413      	add	r3, r2
 80031cc:	681b      	ldr	r3, [r3, #0]
 80031ce:	683a      	ldr	r2, [r7, #0]
 80031d0:	3a01      	subs	r2, #1
 80031d2:	4907      	ldr	r1, [pc, #28]	; (80031f0 <LL_DMA_EnableIT_TC+0x3c>)
 80031d4:	5c8a      	ldrb	r2, [r1, r2]
 80031d6:	4611      	mov	r1, r2
 80031d8:	687a      	ldr	r2, [r7, #4]
 80031da:	440a      	add	r2, r1
 80031dc:	f043 0302 	orr.w	r3, r3, #2
 80031e0:	6013      	str	r3, [r2, #0]
}
 80031e2:	bf00      	nop
 80031e4:	370c      	adds	r7, #12
 80031e6:	46bd      	mov	sp, r7
 80031e8:	f85d 7b04 	ldr.w	r7, [sp], #4
 80031ec:	4770      	bx	lr
 80031ee:	bf00      	nop
 80031f0:	080062b0 	.word	0x080062b0

080031f4 <LL_DMA_EnableIT_HT>:
  *         @arg @ref LL_DMA_CHANNEL_6
  *         @arg @ref LL_DMA_CHANNEL_7
  * @retval None
  */
__STATIC_INLINE void LL_DMA_EnableIT_HT(DMA_TypeDef *DMAx, uint32_t Channel)
{
 80031f4:	b480      	push	{r7}
 80031f6:	b083      	sub	sp, #12
 80031f8:	af00      	add	r7, sp, #0
 80031fa:	6078      	str	r0, [r7, #4]
 80031fc:	6039      	str	r1, [r7, #0]
  SET_BIT(((DMA_Channel_TypeDef *)((uint32_t)((uint32_t)DMAx + CHANNEL_OFFSET_TAB[Channel - 1U])))->CCR, DMA_CCR_HTIE);
 80031fe:	683b      	ldr	r3, [r7, #0]
 8003200:	3b01      	subs	r3, #1
 8003202:	4a0b      	ldr	r2, [pc, #44]	; (8003230 <LL_DMA_EnableIT_HT+0x3c>)
 8003204:	5cd3      	ldrb	r3, [r2, r3]
 8003206:	461a      	mov	r2, r3
 8003208:	687b      	ldr	r3, [r7, #4]
 800320a:	4413      	add	r3, r2
 800320c:	681b      	ldr	r3, [r3, #0]
 800320e:	683a      	ldr	r2, [r7, #0]
 8003210:	3a01      	subs	r2, #1
 8003212:	4907      	ldr	r1, [pc, #28]	; (8003230 <LL_DMA_EnableIT_HT+0x3c>)
 8003214:	5c8a      	ldrb	r2, [r1, r2]
 8003216:	4611      	mov	r1, r2
 8003218:	687a      	ldr	r2, [r7, #4]
 800321a:	440a      	add	r2, r1
 800321c:	f043 0304 	orr.w	r3, r3, #4
 8003220:	6013      	str	r3, [r2, #0]
}
 8003222:	bf00      	nop
 8003224:	370c      	adds	r7, #12
 8003226:	46bd      	mov	sp, r7
 8003228:	f85d 7b04 	ldr.w	r7, [sp], #4
 800322c:	4770      	bx	lr
 800322e:	bf00      	nop
 8003230:	080062b0 	.word	0x080062b0

08003234 <LL_DMA_EnableIT_TE>:
  *         @arg @ref LL_DMA_CHANNEL_6
  *         @arg @ref LL_DMA_CHANNEL_7
  * @retval None
  */
__STATIC_INLINE void LL_DMA_EnableIT_TE(DMA_TypeDef *DMAx, uint32_t Channel)
{
 8003234:	b480      	push	{r7}
 8003236:	b083      	sub	sp, #12
 8003238:	af00      	add	r7, sp, #0
 800323a:	6078      	str	r0, [r7, #4]
 800323c:	6039      	str	r1, [r7, #0]
  SET_BIT(((DMA_Channel_TypeDef *)((uint32_t)((uint32_t)DMAx + CHANNEL_OFFSET_TAB[Channel - 1U])))->CCR, DMA_CCR_TEIE);
 800323e:	683b      	ldr	r3, [r7, #0]
 8003240:	3b01      	subs	r3, #1
 8003242:	4a0b      	ldr	r2, [pc, #44]	; (8003270 <LL_DMA_EnableIT_TE+0x3c>)
 8003244:	5cd3      	ldrb	r3, [r2, r3]
 8003246:	461a      	mov	r2, r3
 8003248:	687b      	ldr	r3, [r7, #4]
 800324a:	4413      	add	r3, r2
 800324c:	681b      	ldr	r3, [r3, #0]
 800324e:	683a      	ldr	r2, [r7, #0]
 8003250:	3a01      	subs	r2, #1
 8003252:	4907      	ldr	r1, [pc, #28]	; (8003270 <LL_DMA_EnableIT_TE+0x3c>)
 8003254:	5c8a      	ldrb	r2, [r1, r2]
 8003256:	4611      	mov	r1, r2
 8003258:	687a      	ldr	r2, [r7, #4]
 800325a:	440a      	add	r2, r1
 800325c:	f043 0308 	orr.w	r3, r3, #8
 8003260:	6013      	str	r3, [r2, #0]
}
 8003262:	bf00      	nop
 8003264:	370c      	adds	r7, #12
 8003266:	46bd      	mov	sp, r7
 8003268:	f85d 7b04 	ldr.w	r7, [sp], #4
 800326c:	4770      	bx	lr
 800326e:	bf00      	nop
 8003270:	080062b0 	.word	0x080062b0

08003274 <LL_AHB1_GRP1_EnableClock>:
{
 8003274:	b480      	push	{r7}
 8003276:	b085      	sub	sp, #20
 8003278:	af00      	add	r7, sp, #0
 800327a:	6078      	str	r0, [r7, #4]
  SET_BIT(RCC->AHBENR, Periphs);
 800327c:	4b08      	ldr	r3, [pc, #32]	; (80032a0 <LL_AHB1_GRP1_EnableClock+0x2c>)
 800327e:	695a      	ldr	r2, [r3, #20]
 8003280:	4907      	ldr	r1, [pc, #28]	; (80032a0 <LL_AHB1_GRP1_EnableClock+0x2c>)
 8003282:	687b      	ldr	r3, [r7, #4]
 8003284:	4313      	orrs	r3, r2
 8003286:	614b      	str	r3, [r1, #20]
  tmpreg = READ_BIT(RCC->AHBENR, Periphs);
 8003288:	4b05      	ldr	r3, [pc, #20]	; (80032a0 <LL_AHB1_GRP1_EnableClock+0x2c>)
 800328a:	695a      	ldr	r2, [r3, #20]
 800328c:	687b      	ldr	r3, [r7, #4]
 800328e:	4013      	ands	r3, r2
 8003290:	60fb      	str	r3, [r7, #12]
  (void)tmpreg;
 8003292:	68fb      	ldr	r3, [r7, #12]
}
 8003294:	bf00      	nop
 8003296:	3714      	adds	r7, #20
 8003298:	46bd      	mov	sp, r7
 800329a:	f85d 7b04 	ldr.w	r7, [sp], #4
 800329e:	4770      	bx	lr
 80032a0:	40021000 	.word	0x40021000

080032a4 <LL_APB1_GRP1_EnableClock>:
{
 80032a4:	b480      	push	{r7}
 80032a6:	b085      	sub	sp, #20
 80032a8:	af00      	add	r7, sp, #0
 80032aa:	6078      	str	r0, [r7, #4]
  SET_BIT(RCC->APB1ENR, Periphs);
 80032ac:	4b08      	ldr	r3, [pc, #32]	; (80032d0 <LL_APB1_GRP1_EnableClock+0x2c>)
 80032ae:	69da      	ldr	r2, [r3, #28]
 80032b0:	4907      	ldr	r1, [pc, #28]	; (80032d0 <LL_APB1_GRP1_EnableClock+0x2c>)
 80032b2:	687b      	ldr	r3, [r7, #4]
 80032b4:	4313      	orrs	r3, r2
 80032b6:	61cb      	str	r3, [r1, #28]
  tmpreg = READ_BIT(RCC->APB1ENR, Periphs);
 80032b8:	4b05      	ldr	r3, [pc, #20]	; (80032d0 <LL_APB1_GRP1_EnableClock+0x2c>)
 80032ba:	69da      	ldr	r2, [r3, #28]
 80032bc:	687b      	ldr	r3, [r7, #4]
 80032be:	4013      	ands	r3, r2
 80032c0:	60fb      	str	r3, [r7, #12]
  (void)tmpreg;
 80032c2:	68fb      	ldr	r3, [r7, #12]
}
 80032c4:	bf00      	nop
 80032c6:	3714      	adds	r7, #20
 80032c8:	46bd      	mov	sp, r7
 80032ca:	f85d 7b04 	ldr.w	r7, [sp], #4
 80032ce:	4770      	bx	lr
 80032d0:	40021000 	.word	0x40021000

080032d4 <LL_USART_Enable>:
{
 80032d4:	b480      	push	{r7}
 80032d6:	b083      	sub	sp, #12
 80032d8:	af00      	add	r7, sp, #0
 80032da:	6078      	str	r0, [r7, #4]
  SET_BIT(USARTx->CR1, USART_CR1_UE);
 80032dc:	687b      	ldr	r3, [r7, #4]
 80032de:	681b      	ldr	r3, [r3, #0]
 80032e0:	f043 0201 	orr.w	r2, r3, #1
 80032e4:	687b      	ldr	r3, [r7, #4]
 80032e6:	601a      	str	r2, [r3, #0]
}
 80032e8:	bf00      	nop
 80032ea:	370c      	adds	r7, #12
 80032ec:	46bd      	mov	sp, r7
 80032ee:	f85d 7b04 	ldr.w	r7, [sp], #4
 80032f2:	4770      	bx	lr

080032f4 <LL_USART_ConfigAsyncMode>:
{
 80032f4:	b480      	push	{r7}
 80032f6:	b083      	sub	sp, #12
 80032f8:	af00      	add	r7, sp, #0
 80032fa:	6078      	str	r0, [r7, #4]
  CLEAR_BIT(USARTx->CR2, (USART_CR2_LINEN | USART_CR2_CLKEN));
 80032fc:	687b      	ldr	r3, [r7, #4]
 80032fe:	685b      	ldr	r3, [r3, #4]
 8003300:	f423 4290 	bic.w	r2, r3, #18432	; 0x4800
 8003304:	687b      	ldr	r3, [r7, #4]
 8003306:	605a      	str	r2, [r3, #4]
  CLEAR_BIT(USARTx->CR3, (USART_CR3_SCEN | USART_CR3_IREN | USART_CR3_HDSEL));
 8003308:	687b      	ldr	r3, [r7, #4]
 800330a:	689b      	ldr	r3, [r3, #8]
 800330c:	f023 022a 	bic.w	r2, r3, #42	; 0x2a
 8003310:	687b      	ldr	r3, [r7, #4]
 8003312:	609a      	str	r2, [r3, #8]
}
 8003314:	bf00      	nop
 8003316:	370c      	adds	r7, #12
 8003318:	46bd      	mov	sp, r7
 800331a:	f85d 7b04 	ldr.w	r7, [sp], #4
 800331e:	4770      	bx	lr

08003320 <LL_USART_EnableIT_IDLE>:
  * @rmtoll CR1          IDLEIE        LL_USART_EnableIT_IDLE
  * @param  USARTx USART Instance
  * @retval None
  */
__STATIC_INLINE void LL_USART_EnableIT_IDLE(USART_TypeDef *USARTx)
{
 8003320:	b480      	push	{r7}
 8003322:	b083      	sub	sp, #12
 8003324:	af00      	add	r7, sp, #0
 8003326:	6078      	str	r0, [r7, #4]
  SET_BIT(USARTx->CR1, USART_CR1_IDLEIE);
 8003328:	687b      	ldr	r3, [r7, #4]
 800332a:	681b      	ldr	r3, [r3, #0]
 800332c:	f043 0210 	orr.w	r2, r3, #16
 8003330:	687b      	ldr	r3, [r7, #4]
 8003332:	601a      	str	r2, [r3, #0]
}
 8003334:	bf00      	nop
 8003336:	370c      	adds	r7, #12
 8003338:	46bd      	mov	sp, r7
 800333a:	f85d 7b04 	ldr.w	r7, [sp], #4
 800333e:	4770      	bx	lr

08003340 <LL_USART_DisableIT_CTS>:
  * @rmtoll CR3          CTSIE         LL_USART_DisableIT_CTS
  * @param  USARTx USART Instance
  * @retval None
  */
__STATIC_INLINE void LL_USART_DisableIT_CTS(USART_TypeDef *USARTx)
{
 8003340:	b480      	push	{r7}
 8003342:	b083      	sub	sp, #12
 8003344:	af00      	add	r7, sp, #0
 8003346:	6078      	str	r0, [r7, #4]
  CLEAR_BIT(USARTx->CR3, USART_CR3_CTSIE);
 8003348:	687b      	ldr	r3, [r7, #4]
 800334a:	689b      	ldr	r3, [r3, #8]
 800334c:	f423 6280 	bic.w	r2, r3, #1024	; 0x400
 8003350:	687b      	ldr	r3, [r7, #4]
 8003352:	609a      	str	r2, [r3, #8]
}
 8003354:	bf00      	nop
 8003356:	370c      	adds	r7, #12
 8003358:	46bd      	mov	sp, r7
 800335a:	f85d 7b04 	ldr.w	r7, [sp], #4
 800335e:	4770      	bx	lr

08003360 <LL_USART_EnableDMAReq_RX>:
  * @rmtoll CR3          DMAR          LL_USART_EnableDMAReq_RX
  * @param  USARTx USART Instance
  * @retval None
  */
__STATIC_INLINE void LL_USART_EnableDMAReq_RX(USART_TypeDef *USARTx)
{
 8003360:	b480      	push	{r7}
 8003362:	b083      	sub	sp, #12
 8003364:	af00      	add	r7, sp, #0
 8003366:	6078      	str	r0, [r7, #4]
  SET_BIT(USARTx->CR3, USART_CR3_DMAR);
 8003368:	687b      	ldr	r3, [r7, #4]
 800336a:	689b      	ldr	r3, [r3, #8]
 800336c:	f043 0240 	orr.w	r2, r3, #64	; 0x40
 8003370:	687b      	ldr	r3, [r7, #4]
 8003372:	609a      	str	r2, [r3, #8]
}
 8003374:	bf00      	nop
 8003376:	370c      	adds	r7, #12
 8003378:	46bd      	mov	sp, r7
 800337a:	f85d 7b04 	ldr.w	r7, [sp], #4
 800337e:	4770      	bx	lr

08003380 <LL_USART_EnableDMAReq_TX>:
  * @rmtoll CR3          DMAT          LL_USART_EnableDMAReq_TX
  * @param  USARTx USART Instance
  * @retval None
  */
__STATIC_INLINE void LL_USART_EnableDMAReq_TX(USART_TypeDef *USARTx)
{
 8003380:	b480      	push	{r7}
 8003382:	b083      	sub	sp, #12
 8003384:	af00      	add	r7, sp, #0
 8003386:	6078      	str	r0, [r7, #4]
  SET_BIT(USARTx->CR3, USART_CR3_DMAT);
 8003388:	687b      	ldr	r3, [r7, #4]
 800338a:	689b      	ldr	r3, [r3, #8]
 800338c:	f043 0280 	orr.w	r2, r3, #128	; 0x80
 8003390:	687b      	ldr	r3, [r7, #4]
 8003392:	609a      	str	r2, [r3, #8]
}
 8003394:	bf00      	nop
 8003396:	370c      	adds	r7, #12
 8003398:	46bd      	mov	sp, r7
 800339a:	f85d 7b04 	ldr.w	r7, [sp], #4
 800339e:	4770      	bx	lr

080033a0 <LL_USART_DMA_GetRegAddr>:
  *         @arg @ref LL_USART_DMA_REG_DATA_TRANSMIT
  *         @arg @ref LL_USART_DMA_REG_DATA_RECEIVE
  * @retval Address of data register
  */
__STATIC_INLINE uint32_t LL_USART_DMA_GetRegAddr(USART_TypeDef *USARTx, uint32_t Direction)
{
 80033a0:	b490      	push	{r4, r7}
 80033a2:	b082      	sub	sp, #8
 80033a4:	af00      	add	r7, sp, #0
 80033a6:	6078      	str	r0, [r7, #4]
 80033a8:	6039      	str	r1, [r7, #0]
  register uint32_t data_reg_addr = 0U;
 80033aa:	2400      	movs	r4, #0

  if (Direction == LL_USART_DMA_REG_DATA_TRANSMIT)
 80033ac:	683b      	ldr	r3, [r7, #0]
 80033ae:	2b00      	cmp	r3, #0
 80033b0:	d103      	bne.n	80033ba <LL_USART_DMA_GetRegAddr+0x1a>
  {
    /* return address of TDR register */
    data_reg_addr = (uint32_t) &(USARTx->TDR);
 80033b2:	687b      	ldr	r3, [r7, #4]
 80033b4:	3328      	adds	r3, #40	; 0x28
 80033b6:	461c      	mov	r4, r3
 80033b8:	e002      	b.n	80033c0 <LL_USART_DMA_GetRegAddr+0x20>
  }
  else
  {
    /* return address of RDR register */
    data_reg_addr = (uint32_t) &(USARTx->RDR);
 80033ba:	687b      	ldr	r3, [r7, #4]
 80033bc:	3324      	adds	r3, #36	; 0x24
 80033be:	461c      	mov	r4, r3
  }

  return data_reg_addr;
 80033c0:	4623      	mov	r3, r4
}
 80033c2:	4618      	mov	r0, r3
 80033c4:	3708      	adds	r7, #8
 80033c6:	46bd      	mov	sp, r7
 80033c8:	bc90      	pop	{r4, r7}
 80033ca:	4770      	bx	lr

080033cc <USART2_RegisterCallback>:
/* Declaration and initialization of callback function */
static void (* USART2_ProcessData)(uint8_t* sign, uint16_t len) = 0;

/* Register callback */
void USART2_RegisterCallback(void *callback)
{
 80033cc:	b480      	push	{r7}
 80033ce:	b083      	sub	sp, #12
 80033d0:	af00      	add	r7, sp, #0
 80033d2:	6078      	str	r0, [r7, #4]
	if(callback != 0)
 80033d4:	687b      	ldr	r3, [r7, #4]
 80033d6:	2b00      	cmp	r3, #0
 80033d8:	d002      	beq.n	80033e0 <USART2_RegisterCallback+0x14>
	{
		USART2_ProcessData = callback;
 80033da:	687b      	ldr	r3, [r7, #4]
 80033dc:	4a03      	ldr	r2, [pc, #12]	; (80033ec <USART2_RegisterCallback+0x20>)
 80033de:	6013      	str	r3, [r2, #0]
	}
}
 80033e0:	bf00      	nop
 80033e2:	370c      	adds	r7, #12
 80033e4:	46bd      	mov	sp, r7
 80033e6:	f85d 7b04 	ldr.w	r7, [sp], #4
 80033ea:	4770      	bx	lr
 80033ec:	20000210 	.word	0x20000210

080033f0 <MX_USART2_UART_Init>:

/* USART2 init function */

void MX_USART2_UART_Init(void)
{
 80033f0:	b5b0      	push	{r4, r5, r7, lr}
 80033f2:	b090      	sub	sp, #64	; 0x40
 80033f4:	af02      	add	r7, sp, #8
  LL_USART_InitTypeDef USART_InitStruct = {0};
 80033f6:	f107 031c 	add.w	r3, r7, #28
 80033fa:	2200      	movs	r2, #0
 80033fc:	601a      	str	r2, [r3, #0]
 80033fe:	605a      	str	r2, [r3, #4]
 8003400:	609a      	str	r2, [r3, #8]
 8003402:	60da      	str	r2, [r3, #12]
 8003404:	611a      	str	r2, [r3, #16]
 8003406:	615a      	str	r2, [r3, #20]
 8003408:	619a      	str	r2, [r3, #24]

  LL_GPIO_InitTypeDef GPIO_InitStruct = {0};
 800340a:	1d3b      	adds	r3, r7, #4
 800340c:	2200      	movs	r2, #0
 800340e:	601a      	str	r2, [r3, #0]
 8003410:	605a      	str	r2, [r3, #4]
 8003412:	609a      	str	r2, [r3, #8]
 8003414:	60da      	str	r2, [r3, #12]
 8003416:	611a      	str	r2, [r3, #16]
 8003418:	615a      	str	r2, [r3, #20]
  /* Peripheral clock enable */
  LL_APB1_GRP1_EnableClock(LL_APB1_GRP1_PERIPH_USART2);
 800341a:	f44f 3000 	mov.w	r0, #131072	; 0x20000
 800341e:	f7ff ff41 	bl	80032a4 <LL_APB1_GRP1_EnableClock>

  LL_AHB1_GRP1_EnableClock(LL_AHB1_GRP1_PERIPH_GPIOA);
 8003422:	f44f 3000 	mov.w	r0, #131072	; 0x20000
 8003426:	f7ff ff25 	bl	8003274 <LL_AHB1_GRP1_EnableClock>
  /**USART2 GPIO Configuration
  PA2   ------> USART2_TX
  PA15   ------> USART2_RX
  */
  GPIO_InitStruct.Pin = LL_GPIO_PIN_2|LL_GPIO_PIN_15;
 800342a:	f248 0304 	movw	r3, #32772	; 0x8004
 800342e:	607b      	str	r3, [r7, #4]
  GPIO_InitStruct.Mode = LL_GPIO_MODE_ALTERNATE;
 8003430:	2302      	movs	r3, #2
 8003432:	60bb      	str	r3, [r7, #8]
  GPIO_InitStruct.Speed = LL_GPIO_SPEED_FREQ_HIGH;
 8003434:	2303      	movs	r3, #3
 8003436:	60fb      	str	r3, [r7, #12]
  GPIO_InitStruct.OutputType = LL_GPIO_OUTPUT_PUSHPULL;
 8003438:	2300      	movs	r3, #0
 800343a:	613b      	str	r3, [r7, #16]
  GPIO_InitStruct.Pull = LL_GPIO_PULL_NO;
 800343c:	2300      	movs	r3, #0
 800343e:	617b      	str	r3, [r7, #20]
  GPIO_InitStruct.Alternate = LL_GPIO_AF_7;
 8003440:	2307      	movs	r3, #7
 8003442:	61bb      	str	r3, [r7, #24]
  LL_GPIO_Init(GPIOA, &GPIO_InitStruct);
 8003444:	1d3b      	adds	r3, r7, #4
 8003446:	4619      	mov	r1, r3
 8003448:	f04f 4090 	mov.w	r0, #1207959552	; 0x48000000
 800344c:	f7fd fca7 	bl	8000d9e <LL_GPIO_Init>
   * You can use configuration from example program and modify it.
   * For more information about DMA registers, refer to reference manual.
   */

  /* USART2_RX Init */
  LL_DMA_SetDataTransferDirection(DMA1, LL_DMA_CHANNEL_6, LL_DMA_DIRECTION_PERIPH_TO_MEMORY);
 8003450:	2200      	movs	r2, #0
 8003452:	2106      	movs	r1, #6
 8003454:	4856      	ldr	r0, [pc, #344]	; (80035b0 <MX_USART2_UART_Init+0x1c0>)
 8003456:	f7ff fcf1 	bl	8002e3c <LL_DMA_SetDataTransferDirection>
  LL_DMA_SetChannelPriorityLevel(DMA1, LL_DMA_CHANNEL_6, LL_DMA_PRIORITY_MEDIUM);
 800345a:	f44f 5280 	mov.w	r2, #4096	; 0x1000
 800345e:	2106      	movs	r1, #6
 8003460:	4853      	ldr	r0, [pc, #332]	; (80035b0 <MX_USART2_UART_Init+0x1c0>)
 8003462:	f7ff fddd 	bl	8003020 <LL_DMA_SetChannelPriorityLevel>
  LL_DMA_SetMode(DMA1, LL_DMA_CHANNEL_6, LL_DMA_MODE_CIRCULAR);
 8003466:	2220      	movs	r2, #32
 8003468:	2106      	movs	r1, #6
 800346a:	4851      	ldr	r0, [pc, #324]	; (80035b0 <MX_USART2_UART_Init+0x1c0>)
 800346c:	f7ff fd24 	bl	8002eb8 <LL_DMA_SetMode>
  LL_DMA_SetPeriphIncMode(DMA1, LL_DMA_CHANNEL_6, LL_DMA_PERIPH_NOINCREMENT);
 8003470:	2200      	movs	r2, #0
 8003472:	2106      	movs	r1, #6
 8003474:	484e      	ldr	r0, [pc, #312]	; (80035b0 <MX_USART2_UART_Init+0x1c0>)
 8003476:	f7ff fd43 	bl	8002f00 <LL_DMA_SetPeriphIncMode>
  LL_DMA_SetMemoryIncMode(DMA1, LL_DMA_CHANNEL_6, LL_DMA_MEMORY_INCREMENT);
 800347a:	2280      	movs	r2, #128	; 0x80
 800347c:	2106      	movs	r1, #6
 800347e:	484c      	ldr	r0, [pc, #304]	; (80035b0 <MX_USART2_UART_Init+0x1c0>)
 8003480:	f7ff fd62 	bl	8002f48 <LL_DMA_SetMemoryIncMode>
  LL_DMA_SetPeriphSize(DMA1, LL_DMA_CHANNEL_6, LL_DMA_PDATAALIGN_BYTE);
 8003484:	2200      	movs	r2, #0
 8003486:	2106      	movs	r1, #6
 8003488:	4849      	ldr	r0, [pc, #292]	; (80035b0 <MX_USART2_UART_Init+0x1c0>)
 800348a:	f7ff fd81 	bl	8002f90 <LL_DMA_SetPeriphSize>
  LL_DMA_SetMemorySize(DMA1, LL_DMA_CHANNEL_6, LL_DMA_MDATAALIGN_BYTE);
 800348e:	2200      	movs	r2, #0
 8003490:	2106      	movs	r1, #6
 8003492:	4847      	ldr	r0, [pc, #284]	; (80035b0 <MX_USART2_UART_Init+0x1c0>)
 8003494:	f7ff fda0 	bl	8002fd8 <LL_DMA_SetMemorySize>

  LL_DMA_ConfigAddresses(	DMA1, LL_DMA_CHANNEL_6,
 8003498:	2101      	movs	r1, #1
 800349a:	4846      	ldr	r0, [pc, #280]	; (80035b4 <MX_USART2_UART_Init+0x1c4>)
 800349c:	f7ff ff80 	bl	80033a0 <LL_USART_DMA_GetRegAddr>
 80034a0:	4605      	mov	r5, r0
 80034a2:	4c45      	ldr	r4, [pc, #276]	; (80035b8 <MX_USART2_UART_Init+0x1c8>)
 80034a4:	2106      	movs	r1, #6
 80034a6:	4842      	ldr	r0, [pc, #264]	; (80035b0 <MX_USART2_UART_Init+0x1c0>)
 80034a8:	f7ff fcee 	bl	8002e88 <LL_DMA_GetDataTransferDirection>
 80034ac:	4603      	mov	r3, r0
 80034ae:	9300      	str	r3, [sp, #0]
 80034b0:	4623      	mov	r3, r4
 80034b2:	462a      	mov	r2, r5
 80034b4:	2106      	movs	r1, #6
 80034b6:	483e      	ldr	r0, [pc, #248]	; (80035b0 <MX_USART2_UART_Init+0x1c0>)
 80034b8:	f7ff fe10 	bl	80030dc <LL_DMA_ConfigAddresses>
  						 	LL_USART_DMA_GetRegAddr(USART2, LL_USART_DMA_REG_DATA_RECEIVE),
  							(uint32_t)bufferUSART2dma,
  							LL_DMA_GetDataTransferDirection(DMA1, LL_DMA_CHANNEL_6));

  LL_DMA_SetDataLength(DMA1, LL_DMA_CHANNEL_6, DMA_USART2_BUFFER_SIZE);
 80034bc:	f44f 7280 	mov.w	r2, #256	; 0x100
 80034c0:	2106      	movs	r1, #6
 80034c2:	483b      	ldr	r0, [pc, #236]	; (80035b0 <MX_USART2_UART_Init+0x1c0>)
 80034c4:	f7ff fdd0 	bl	8003068 <LL_DMA_SetDataLength>
  LL_DMA_EnableChannel(DMA1, LL_DMA_CHANNEL_6);
 80034c8:	2106      	movs	r1, #6
 80034ca:	4839      	ldr	r0, [pc, #228]	; (80035b0 <MX_USART2_UART_Init+0x1c0>)
 80034cc:	f7ff fc96 	bl	8002dfc <LL_DMA_EnableChannel>
  LL_USART_EnableDMAReq_RX(USART2);
 80034d0:	4838      	ldr	r0, [pc, #224]	; (80035b4 <MX_USART2_UART_Init+0x1c4>)
 80034d2:	f7ff ff45 	bl	8003360 <LL_USART_EnableDMAReq_RX>

  #if !POLLING
    LL_DMA_EnableIT_TC(DMA1, LL_DMA_CHANNEL_6);
 80034d6:	2106      	movs	r1, #6
 80034d8:	4835      	ldr	r0, [pc, #212]	; (80035b0 <MX_USART2_UART_Init+0x1c0>)
 80034da:	f7ff fe6b 	bl	80031b4 <LL_DMA_EnableIT_TC>
    LL_DMA_EnableIT_HT(DMA1, LL_DMA_CHANNEL_6);
 80034de:	2106      	movs	r1, #6
 80034e0:	4833      	ldr	r0, [pc, #204]	; (80035b0 <MX_USART2_UART_Init+0x1c0>)
 80034e2:	f7ff fe87 	bl	80031f4 <LL_DMA_EnableIT_HT>
  #endif


  /* USART2_TX Init */
  LL_DMA_SetDataTransferDirection(DMA1, LL_DMA_CHANNEL_7, LL_DMA_DIRECTION_MEMORY_TO_PERIPH);
 80034e6:	2210      	movs	r2, #16
 80034e8:	2107      	movs	r1, #7
 80034ea:	4831      	ldr	r0, [pc, #196]	; (80035b0 <MX_USART2_UART_Init+0x1c0>)
 80034ec:	f7ff fca6 	bl	8002e3c <LL_DMA_SetDataTransferDirection>
  LL_DMA_SetChannelPriorityLevel(DMA1, LL_DMA_CHANNEL_7, LL_DMA_PRIORITY_MEDIUM);
 80034f0:	f44f 5280 	mov.w	r2, #4096	; 0x1000
 80034f4:	2107      	movs	r1, #7
 80034f6:	482e      	ldr	r0, [pc, #184]	; (80035b0 <MX_USART2_UART_Init+0x1c0>)
 80034f8:	f7ff fd92 	bl	8003020 <LL_DMA_SetChannelPriorityLevel>
  LL_DMA_SetMode(DMA1, LL_DMA_CHANNEL_7, LL_DMA_MODE_NORMAL);
 80034fc:	2200      	movs	r2, #0
 80034fe:	2107      	movs	r1, #7
 8003500:	482b      	ldr	r0, [pc, #172]	; (80035b0 <MX_USART2_UART_Init+0x1c0>)
 8003502:	f7ff fcd9 	bl	8002eb8 <LL_DMA_SetMode>
  LL_DMA_SetPeriphIncMode(DMA1, LL_DMA_CHANNEL_7, LL_DMA_PERIPH_NOINCREMENT);
 8003506:	2200      	movs	r2, #0
 8003508:	2107      	movs	r1, #7
 800350a:	4829      	ldr	r0, [pc, #164]	; (80035b0 <MX_USART2_UART_Init+0x1c0>)
 800350c:	f7ff fcf8 	bl	8002f00 <LL_DMA_SetPeriphIncMode>
  LL_DMA_SetMemoryIncMode(DMA1, LL_DMA_CHANNEL_7, LL_DMA_MEMORY_INCREMENT);
 8003510:	2280      	movs	r2, #128	; 0x80
 8003512:	2107      	movs	r1, #7
 8003514:	4826      	ldr	r0, [pc, #152]	; (80035b0 <MX_USART2_UART_Init+0x1c0>)
 8003516:	f7ff fd17 	bl	8002f48 <LL_DMA_SetMemoryIncMode>
  LL_DMA_SetPeriphSize(DMA1, LL_DMA_CHANNEL_7, LL_DMA_PDATAALIGN_BYTE);
 800351a:	2200      	movs	r2, #0
 800351c:	2107      	movs	r1, #7
 800351e:	4824      	ldr	r0, [pc, #144]	; (80035b0 <MX_USART2_UART_Init+0x1c0>)
 8003520:	f7ff fd36 	bl	8002f90 <LL_DMA_SetPeriphSize>
  LL_DMA_SetMemorySize(DMA1, LL_DMA_CHANNEL_7, LL_DMA_MDATAALIGN_BYTE);
 8003524:	2200      	movs	r2, #0
 8003526:	2107      	movs	r1, #7
 8003528:	4821      	ldr	r0, [pc, #132]	; (80035b0 <MX_USART2_UART_Init+0x1c0>)
 800352a:	f7ff fd55 	bl	8002fd8 <LL_DMA_SetMemorySize>

  LL_DMA_SetPeriphAddress(DMA1, LL_DMA_CHANNEL_7, LL_USART_DMA_GetRegAddr(USART2, LL_USART_DMA_REG_DATA_TRANSMIT));
 800352e:	2100      	movs	r1, #0
 8003530:	4820      	ldr	r0, [pc, #128]	; (80035b4 <MX_USART2_UART_Init+0x1c4>)
 8003532:	f7ff ff35 	bl	80033a0 <LL_USART_DMA_GetRegAddr>
 8003536:	4603      	mov	r3, r0
 8003538:	461a      	mov	r2, r3
 800353a:	2107      	movs	r1, #7
 800353c:	481c      	ldr	r0, [pc, #112]	; (80035b0 <MX_USART2_UART_Init+0x1c0>)
 800353e:	f7ff fe21 	bl	8003184 <LL_DMA_SetPeriphAddress>
  LL_USART_EnableDMAReq_TX(USART2);
 8003542:	481c      	ldr	r0, [pc, #112]	; (80035b4 <MX_USART2_UART_Init+0x1c4>)
 8003544:	f7ff ff1c 	bl	8003380 <LL_USART_EnableDMAReq_TX>

  LL_DMA_EnableIT_TE(DMA1, LL_DMA_CHANNEL_7);
 8003548:	2107      	movs	r1, #7
 800354a:	4819      	ldr	r0, [pc, #100]	; (80035b0 <MX_USART2_UART_Init+0x1c0>)
 800354c:	f7ff fe72 	bl	8003234 <LL_DMA_EnableIT_TE>


  /* USART2 interrupt Init */
  NVIC_SetPriority(USART2_IRQn, 0);
 8003550:	2100      	movs	r1, #0
 8003552:	2026      	movs	r0, #38	; 0x26
 8003554:	f7ff fc28 	bl	8002da8 <NVIC_SetPriority>
  NVIC_EnableIRQ(USART2_IRQn);
 8003558:	2026      	movs	r0, #38	; 0x26
 800355a:	f7ff fc0b 	bl	8002d74 <NVIC_EnableIRQ>

  USART_InitStruct.BaudRate = 115200;
 800355e:	f44f 33e1 	mov.w	r3, #115200	; 0x1c200
 8003562:	61fb      	str	r3, [r7, #28]
  USART_InitStruct.DataWidth = LL_USART_DATAWIDTH_8B;
 8003564:	2300      	movs	r3, #0
 8003566:	623b      	str	r3, [r7, #32]
  USART_InitStruct.StopBits = LL_USART_STOPBITS_1;
 8003568:	2300      	movs	r3, #0
 800356a:	627b      	str	r3, [r7, #36]	; 0x24
  USART_InitStruct.Parity = LL_USART_PARITY_NONE;
 800356c:	2300      	movs	r3, #0
 800356e:	62bb      	str	r3, [r7, #40]	; 0x28
  USART_InitStruct.TransferDirection = LL_USART_DIRECTION_TX_RX;
 8003570:	230c      	movs	r3, #12
 8003572:	62fb      	str	r3, [r7, #44]	; 0x2c
  USART_InitStruct.HardwareFlowControl = LL_USART_HWCONTROL_NONE;
 8003574:	2300      	movs	r3, #0
 8003576:	633b      	str	r3, [r7, #48]	; 0x30
  USART_InitStruct.OverSampling = LL_USART_OVERSAMPLING_16;
 8003578:	2300      	movs	r3, #0
 800357a:	637b      	str	r3, [r7, #52]	; 0x34
  LL_USART_Init(USART2, &USART_InitStruct);
 800357c:	f107 031c 	add.w	r3, r7, #28
 8003580:	4619      	mov	r1, r3
 8003582:	480c      	ldr	r0, [pc, #48]	; (80035b4 <MX_USART2_UART_Init+0x1c4>)
 8003584:	f7fe fa98 	bl	8001ab8 <LL_USART_Init>
  LL_USART_ConfigAsyncMode(USART2);
 8003588:	480a      	ldr	r0, [pc, #40]	; (80035b4 <MX_USART2_UART_Init+0x1c4>)
 800358a:	f7ff feb3 	bl	80032f4 <LL_USART_ConfigAsyncMode>
  LL_USART_DisableIT_CTS(USART2);
 800358e:	4809      	ldr	r0, [pc, #36]	; (80035b4 <MX_USART2_UART_Init+0x1c4>)
 8003590:	f7ff fed6 	bl	8003340 <LL_USART_DisableIT_CTS>

#if !POLLING
  LL_USART_EnableIT_IDLE(USART2);
 8003594:	4807      	ldr	r0, [pc, #28]	; (80035b4 <MX_USART2_UART_Init+0x1c4>)
 8003596:	f7ff fec3 	bl	8003320 <LL_USART_EnableIT_IDLE>
#endif
  LL_USART_ConfigAsyncMode(USART2);
 800359a:	4806      	ldr	r0, [pc, #24]	; (80035b4 <MX_USART2_UART_Init+0x1c4>)
 800359c:	f7ff feaa 	bl	80032f4 <LL_USART_ConfigAsyncMode>
  LL_USART_Enable(USART2);
 80035a0:	4804      	ldr	r0, [pc, #16]	; (80035b4 <MX_USART2_UART_Init+0x1c4>)
 80035a2:	f7ff fe97 	bl	80032d4 <LL_USART_Enable>

}
 80035a6:	bf00      	nop
 80035a8:	3738      	adds	r7, #56	; 0x38
 80035aa:	46bd      	mov	sp, r7
 80035ac:	bdb0      	pop	{r4, r5, r7, pc}
 80035ae:	bf00      	nop
 80035b0:	40020000 	.word	0x40020000
 80035b4:	40004400 	.word	0x40004400
 80035b8:	200002a0 	.word	0x200002a0

080035bc <USART2_PutBuffer>:

// Send data stored in buffer with DMA
void USART2_PutBuffer(uint8_t *buffer, uint8_t length)
{
 80035bc:	b580      	push	{r7, lr}
 80035be:	b082      	sub	sp, #8
 80035c0:	af00      	add	r7, sp, #0
 80035c2:	6078      	str	r0, [r7, #4]
 80035c4:	460b      	mov	r3, r1
 80035c6:	70fb      	strb	r3, [r7, #3]
	LL_DMA_SetMemoryAddress(DMA1, LL_DMA_CHANNEL_7, (uint32_t)buffer);
 80035c8:	687b      	ldr	r3, [r7, #4]
 80035ca:	461a      	mov	r2, r3
 80035cc:	2107      	movs	r1, #7
 80035ce:	480a      	ldr	r0, [pc, #40]	; (80035f8 <USART2_PutBuffer+0x3c>)
 80035d0:	f7ff fdc0 	bl	8003154 <LL_DMA_SetMemoryAddress>

	LL_DMA_SetDataLength(DMA1, LL_DMA_CHANNEL_7, length);
 80035d4:	78fb      	ldrb	r3, [r7, #3]
 80035d6:	461a      	mov	r2, r3
 80035d8:	2107      	movs	r1, #7
 80035da:	4807      	ldr	r0, [pc, #28]	; (80035f8 <USART2_PutBuffer+0x3c>)
 80035dc:	f7ff fd44 	bl	8003068 <LL_DMA_SetDataLength>

	LL_DMA_EnableIT_TC(DMA1, LL_DMA_CHANNEL_7);
 80035e0:	2107      	movs	r1, #7
 80035e2:	4805      	ldr	r0, [pc, #20]	; (80035f8 <USART2_PutBuffer+0x3c>)
 80035e4:	f7ff fde6 	bl	80031b4 <LL_DMA_EnableIT_TC>

	LL_DMA_EnableChannel(DMA1, LL_DMA_CHANNEL_7);
 80035e8:	2107      	movs	r1, #7
 80035ea:	4803      	ldr	r0, [pc, #12]	; (80035f8 <USART2_PutBuffer+0x3c>)
 80035ec:	f7ff fc06 	bl	8002dfc <LL_DMA_EnableChannel>
}
 80035f0:	bf00      	nop
 80035f2:	3708      	adds	r7, #8
 80035f4:	46bd      	mov	sp, r7
 80035f6:	bd80      	pop	{r7, pc}
 80035f8:	40020000 	.word	0x40020000

080035fc <USART2_CheckDmaReception>:
 *	Forwards data to callback function.
 *	Keeps track of pointer pointing to Rx memory buffer and resets the pointer if overflow is possible in next Rx.
 *	Refer to reference manual - "normal memory mode" and "increment memory mode".
 */
void USART2_CheckDmaReception(void)
{
 80035fc:	b580      	push	{r7, lr}
 80035fe:	b082      	sub	sp, #8
 8003600:	af00      	add	r7, sp, #0
	if(USART2_ProcessData == 0) return;
 8003602:	4b26      	ldr	r3, [pc, #152]	; (800369c <USART2_CheckDmaReception+0xa0>)
 8003604:	681b      	ldr	r3, [r3, #0]
 8003606:	2b00      	cmp	r3, #0
 8003608:	d044      	beq.n	8003694 <USART2_CheckDmaReception+0x98>

	static uint16_t old_pos = 0;

	uint16_t pos = DMA_USART2_BUFFER_SIZE - LL_DMA_GetDataLength(DMA1, LL_DMA_CHANNEL_6);
 800360a:	2106      	movs	r1, #6
 800360c:	4824      	ldr	r0, [pc, #144]	; (80036a0 <USART2_CheckDmaReception+0xa4>)
 800360e:	f7ff fd4f 	bl	80030b0 <LL_DMA_GetDataLength>
 8003612:	4603      	mov	r3, r0
 8003614:	b29b      	uxth	r3, r3
 8003616:	f5c3 7380 	rsb	r3, r3, #256	; 0x100
 800361a:	80fb      	strh	r3, [r7, #6]

	if (pos != old_pos)
 800361c:	4b21      	ldr	r3, [pc, #132]	; (80036a4 <USART2_CheckDmaReception+0xa8>)
 800361e:	881b      	ldrh	r3, [r3, #0]
 8003620:	88fa      	ldrh	r2, [r7, #6]
 8003622:	429a      	cmp	r2, r3
 8003624:	d02a      	beq.n	800367c <USART2_CheckDmaReception+0x80>
	{
		if (pos > old_pos)
 8003626:	4b1f      	ldr	r3, [pc, #124]	; (80036a4 <USART2_CheckDmaReception+0xa8>)
 8003628:	881b      	ldrh	r3, [r3, #0]
 800362a:	88fa      	ldrh	r2, [r7, #6]
 800362c:	429a      	cmp	r2, r3
 800362e:	d90e      	bls.n	800364e <USART2_CheckDmaReception+0x52>
		{
			USART2_ProcessData(&bufferUSART2dma[old_pos], pos - old_pos);
 8003630:	4b1a      	ldr	r3, [pc, #104]	; (800369c <USART2_CheckDmaReception+0xa0>)
 8003632:	681b      	ldr	r3, [r3, #0]
 8003634:	4a1b      	ldr	r2, [pc, #108]	; (80036a4 <USART2_CheckDmaReception+0xa8>)
 8003636:	8812      	ldrh	r2, [r2, #0]
 8003638:	4611      	mov	r1, r2
 800363a:	4a1b      	ldr	r2, [pc, #108]	; (80036a8 <USART2_CheckDmaReception+0xac>)
 800363c:	1888      	adds	r0, r1, r2
 800363e:	4a19      	ldr	r2, [pc, #100]	; (80036a4 <USART2_CheckDmaReception+0xa8>)
 8003640:	8812      	ldrh	r2, [r2, #0]
 8003642:	88f9      	ldrh	r1, [r7, #6]
 8003644:	1a8a      	subs	r2, r1, r2
 8003646:	b292      	uxth	r2, r2
 8003648:	4611      	mov	r1, r2
 800364a:	4798      	blx	r3
 800364c:	e016      	b.n	800367c <USART2_CheckDmaReception+0x80>
		}
		else
		{
			USART2_ProcessData(&bufferUSART2dma[old_pos], DMA_USART2_BUFFER_SIZE - old_pos);
 800364e:	4b13      	ldr	r3, [pc, #76]	; (800369c <USART2_CheckDmaReception+0xa0>)
 8003650:	681b      	ldr	r3, [r3, #0]
 8003652:	4a14      	ldr	r2, [pc, #80]	; (80036a4 <USART2_CheckDmaReception+0xa8>)
 8003654:	8812      	ldrh	r2, [r2, #0]
 8003656:	4611      	mov	r1, r2
 8003658:	4a13      	ldr	r2, [pc, #76]	; (80036a8 <USART2_CheckDmaReception+0xac>)
 800365a:	1888      	adds	r0, r1, r2
 800365c:	4a11      	ldr	r2, [pc, #68]	; (80036a4 <USART2_CheckDmaReception+0xa8>)
 800365e:	8812      	ldrh	r2, [r2, #0]
 8003660:	f5c2 7280 	rsb	r2, r2, #256	; 0x100
 8003664:	b292      	uxth	r2, r2
 8003666:	4611      	mov	r1, r2
 8003668:	4798      	blx	r3

			if (pos > 0)
 800366a:	88fb      	ldrh	r3, [r7, #6]
 800366c:	2b00      	cmp	r3, #0
 800366e:	d005      	beq.n	800367c <USART2_CheckDmaReception+0x80>
			{
				USART2_ProcessData(&bufferUSART2dma[0], pos);
 8003670:	4b0a      	ldr	r3, [pc, #40]	; (800369c <USART2_CheckDmaReception+0xa0>)
 8003672:	681b      	ldr	r3, [r3, #0]
 8003674:	88fa      	ldrh	r2, [r7, #6]
 8003676:	4611      	mov	r1, r2
 8003678:	480b      	ldr	r0, [pc, #44]	; (80036a8 <USART2_CheckDmaReception+0xac>)
 800367a:	4798      	blx	r3
			}
		}
	}

	old_pos = pos;
 800367c:	4a09      	ldr	r2, [pc, #36]	; (80036a4 <USART2_CheckDmaReception+0xa8>)
 800367e:	88fb      	ldrh	r3, [r7, #6]
 8003680:	8013      	strh	r3, [r2, #0]

	if (old_pos == DMA_USART2_BUFFER_SIZE)
 8003682:	4b08      	ldr	r3, [pc, #32]	; (80036a4 <USART2_CheckDmaReception+0xa8>)
 8003684:	881b      	ldrh	r3, [r3, #0]
 8003686:	f5b3 7f80 	cmp.w	r3, #256	; 0x100
 800368a:	d104      	bne.n	8003696 <USART2_CheckDmaReception+0x9a>
	{
		old_pos = 0;
 800368c:	4b05      	ldr	r3, [pc, #20]	; (80036a4 <USART2_CheckDmaReception+0xa8>)
 800368e:	2200      	movs	r2, #0
 8003690:	801a      	strh	r2, [r3, #0]
 8003692:	e000      	b.n	8003696 <USART2_CheckDmaReception+0x9a>
	if(USART2_ProcessData == 0) return;
 8003694:	bf00      	nop
	}
}
 8003696:	3708      	adds	r7, #8
 8003698:	46bd      	mov	sp, r7
 800369a:	bd80      	pop	{r7, pc}
 800369c:	20000210 	.word	0x20000210
 80036a0:	40020000 	.word	0x40020000
 80036a4:	20000214 	.word	0x20000214
 80036a8:	200002a0 	.word	0x200002a0

080036ac <Reset_Handler>:

    .section	.text.Reset_Handler
	.weak	Reset_Handler
	.type	Reset_Handler, %function
Reset_Handler:
  ldr   sp, =_estack    /* Atollic update: set stack pointer */
 80036ac:	f8df d034 	ldr.w	sp, [pc, #52]	; 80036e4 <LoopForever+0x2>

/* Copy the data segment initializers from flash to SRAM */
  movs	r1, #0
 80036b0:	2100      	movs	r1, #0
  b	LoopCopyDataInit
 80036b2:	e003      	b.n	80036bc <LoopCopyDataInit>

080036b4 <CopyDataInit>:

CopyDataInit:
	ldr	r3, =_sidata
 80036b4:	4b0c      	ldr	r3, [pc, #48]	; (80036e8 <LoopForever+0x6>)
	ldr	r3, [r3, r1]
 80036b6:	585b      	ldr	r3, [r3, r1]
	str	r3, [r0, r1]
 80036b8:	5043      	str	r3, [r0, r1]
	adds	r1, r1, #4
 80036ba:	3104      	adds	r1, #4

080036bc <LoopCopyDataInit>:

LoopCopyDataInit:
	ldr	r0, =_sdata
 80036bc:	480b      	ldr	r0, [pc, #44]	; (80036ec <LoopForever+0xa>)
	ldr	r3, =_edata
 80036be:	4b0c      	ldr	r3, [pc, #48]	; (80036f0 <LoopForever+0xe>)
	adds	r2, r0, r1
 80036c0:	1842      	adds	r2, r0, r1
	cmp	r2, r3
 80036c2:	429a      	cmp	r2, r3
	bcc	CopyDataInit
 80036c4:	d3f6      	bcc.n	80036b4 <CopyDataInit>
	ldr	r2, =_sbss
 80036c6:	4a0b      	ldr	r2, [pc, #44]	; (80036f4 <LoopForever+0x12>)
	b	LoopFillZerobss
 80036c8:	e002      	b.n	80036d0 <LoopFillZerobss>

080036ca <FillZerobss>:
/* Zero fill the bss segment. */
FillZerobss:
	movs	r3, #0
 80036ca:	2300      	movs	r3, #0
	str	r3, [r2], #4
 80036cc:	f842 3b04 	str.w	r3, [r2], #4

080036d0 <LoopFillZerobss>:

LoopFillZerobss:
	ldr	r3, = _ebss
 80036d0:	4b09      	ldr	r3, [pc, #36]	; (80036f8 <LoopForever+0x16>)
	cmp	r2, r3
 80036d2:	429a      	cmp	r2, r3
	bcc	FillZerobss
 80036d4:	d3f9      	bcc.n	80036ca <FillZerobss>

/* Call the clock system intitialization function.*/
    bl  SystemInit
 80036d6:	f7ff f8e3 	bl	80028a0 <SystemInit>
/* Call static constructors */
    bl __libc_init_array
 80036da:	f000 f817 	bl	800370c <__libc_init_array>
/* Call the application's entry point.*/
	bl	main
 80036de:	f7fe fd09 	bl	80020f4 <main>

080036e2 <LoopForever>:

LoopForever:
    b LoopForever
 80036e2:	e7fe      	b.n	80036e2 <LoopForever>
  ldr   sp, =_estack    /* Atollic update: set stack pointer */
 80036e4:	20003000 	.word	0x20003000
	ldr	r3, =_sidata
 80036e8:	08006594 	.word	0x08006594
	ldr	r0, =_sdata
 80036ec:	20000000 	.word	0x20000000
	ldr	r3, =_edata
 80036f0:	200001d8 	.word	0x200001d8
	ldr	r2, =_sbss
 80036f4:	200001d8 	.word	0x200001d8
	ldr	r3, = _ebss
 80036f8:	200003a4 	.word	0x200003a4

080036fc <ADC1_2_IRQHandler>:
 * @retval : None
*/
    .section	.text.Default_Handler,"ax",%progbits
Default_Handler:
Infinite_Loop:
	b	Infinite_Loop
 80036fc:	e7fe      	b.n	80036fc <ADC1_2_IRQHandler>
	...

08003700 <__errno>:
 8003700:	4b01      	ldr	r3, [pc, #4]	; (8003708 <__errno+0x8>)
 8003702:	6818      	ldr	r0, [r3, #0]
 8003704:	4770      	bx	lr
 8003706:	bf00      	nop
 8003708:	20000008 	.word	0x20000008

0800370c <__libc_init_array>:
 800370c:	b570      	push	{r4, r5, r6, lr}
 800370e:	4e0d      	ldr	r6, [pc, #52]	; (8003744 <__libc_init_array+0x38>)
 8003710:	4c0d      	ldr	r4, [pc, #52]	; (8003748 <__libc_init_array+0x3c>)
 8003712:	1ba4      	subs	r4, r4, r6
 8003714:	10a4      	asrs	r4, r4, #2
 8003716:	2500      	movs	r5, #0
 8003718:	42a5      	cmp	r5, r4
 800371a:	d109      	bne.n	8003730 <__libc_init_array+0x24>
 800371c:	4e0b      	ldr	r6, [pc, #44]	; (800374c <__libc_init_array+0x40>)
 800371e:	4c0c      	ldr	r4, [pc, #48]	; (8003750 <__libc_init_array+0x44>)
 8003720:	f002 fd50 	bl	80061c4 <_init>
 8003724:	1ba4      	subs	r4, r4, r6
 8003726:	10a4      	asrs	r4, r4, #2
 8003728:	2500      	movs	r5, #0
 800372a:	42a5      	cmp	r5, r4
 800372c:	d105      	bne.n	800373a <__libc_init_array+0x2e>
 800372e:	bd70      	pop	{r4, r5, r6, pc}
 8003730:	f856 3025 	ldr.w	r3, [r6, r5, lsl #2]
 8003734:	4798      	blx	r3
 8003736:	3501      	adds	r5, #1
 8003738:	e7ee      	b.n	8003718 <__libc_init_array+0xc>
 800373a:	f856 3025 	ldr.w	r3, [r6, r5, lsl #2]
 800373e:	4798      	blx	r3
 8003740:	3501      	adds	r5, #1
 8003742:	e7f2      	b.n	800372a <__libc_init_array+0x1e>
 8003744:	0800658c 	.word	0x0800658c
 8003748:	0800658c 	.word	0x0800658c
 800374c:	0800658c 	.word	0x0800658c
 8003750:	08006590 	.word	0x08006590

08003754 <memset>:
 8003754:	4402      	add	r2, r0
 8003756:	4603      	mov	r3, r0
 8003758:	4293      	cmp	r3, r2
 800375a:	d100      	bne.n	800375e <memset+0xa>
 800375c:	4770      	bx	lr
 800375e:	f803 1b01 	strb.w	r1, [r3], #1
 8003762:	e7f9      	b.n	8003758 <memset+0x4>

08003764 <__cvt>:
 8003764:	e92d 47ff 	stmdb	sp!, {r0, r1, r2, r3, r4, r5, r6, r7, r8, r9, sl, lr}
 8003768:	ec55 4b10 	vmov	r4, r5, d0
 800376c:	9f0d      	ldr	r7, [sp, #52]	; 0x34
 800376e:	f8dd a030 	ldr.w	sl, [sp, #48]	; 0x30
 8003772:	2d00      	cmp	r5, #0
 8003774:	460e      	mov	r6, r1
 8003776:	4691      	mov	r9, r2
 8003778:	4619      	mov	r1, r3
 800377a:	bfb8      	it	lt
 800377c:	4622      	movlt	r2, r4
 800377e:	462b      	mov	r3, r5
 8003780:	f027 0720 	bic.w	r7, r7, #32
 8003784:	bfbb      	ittet	lt
 8003786:	f105 4300 	addlt.w	r3, r5, #2147483648	; 0x80000000
 800378a:	461d      	movlt	r5, r3
 800378c:	2300      	movge	r3, #0
 800378e:	232d      	movlt	r3, #45	; 0x2d
 8003790:	bfb8      	it	lt
 8003792:	4614      	movlt	r4, r2
 8003794:	2f46      	cmp	r7, #70	; 0x46
 8003796:	700b      	strb	r3, [r1, #0]
 8003798:	d004      	beq.n	80037a4 <__cvt+0x40>
 800379a:	2f45      	cmp	r7, #69	; 0x45
 800379c:	d100      	bne.n	80037a0 <__cvt+0x3c>
 800379e:	3601      	adds	r6, #1
 80037a0:	2102      	movs	r1, #2
 80037a2:	e000      	b.n	80037a6 <__cvt+0x42>
 80037a4:	2103      	movs	r1, #3
 80037a6:	ab03      	add	r3, sp, #12
 80037a8:	9301      	str	r3, [sp, #4]
 80037aa:	ab02      	add	r3, sp, #8
 80037ac:	9300      	str	r3, [sp, #0]
 80037ae:	4632      	mov	r2, r6
 80037b0:	4653      	mov	r3, sl
 80037b2:	ec45 4b10 	vmov	d0, r4, r5
 80037b6:	f000 fd37 	bl	8004228 <_dtoa_r>
 80037ba:	2f47      	cmp	r7, #71	; 0x47
 80037bc:	4680      	mov	r8, r0
 80037be:	d102      	bne.n	80037c6 <__cvt+0x62>
 80037c0:	f019 0f01 	tst.w	r9, #1
 80037c4:	d026      	beq.n	8003814 <__cvt+0xb0>
 80037c6:	2f46      	cmp	r7, #70	; 0x46
 80037c8:	eb08 0906 	add.w	r9, r8, r6
 80037cc:	d111      	bne.n	80037f2 <__cvt+0x8e>
 80037ce:	f898 3000 	ldrb.w	r3, [r8]
 80037d2:	2b30      	cmp	r3, #48	; 0x30
 80037d4:	d10a      	bne.n	80037ec <__cvt+0x88>
 80037d6:	2200      	movs	r2, #0
 80037d8:	2300      	movs	r3, #0
 80037da:	4620      	mov	r0, r4
 80037dc:	4629      	mov	r1, r5
 80037de:	f7fd f973 	bl	8000ac8 <__aeabi_dcmpeq>
 80037e2:	b918      	cbnz	r0, 80037ec <__cvt+0x88>
 80037e4:	f1c6 0601 	rsb	r6, r6, #1
 80037e8:	f8ca 6000 	str.w	r6, [sl]
 80037ec:	f8da 3000 	ldr.w	r3, [sl]
 80037f0:	4499      	add	r9, r3
 80037f2:	2200      	movs	r2, #0
 80037f4:	2300      	movs	r3, #0
 80037f6:	4620      	mov	r0, r4
 80037f8:	4629      	mov	r1, r5
 80037fa:	f7fd f965 	bl	8000ac8 <__aeabi_dcmpeq>
 80037fe:	b938      	cbnz	r0, 8003810 <__cvt+0xac>
 8003800:	2230      	movs	r2, #48	; 0x30
 8003802:	9b03      	ldr	r3, [sp, #12]
 8003804:	454b      	cmp	r3, r9
 8003806:	d205      	bcs.n	8003814 <__cvt+0xb0>
 8003808:	1c59      	adds	r1, r3, #1
 800380a:	9103      	str	r1, [sp, #12]
 800380c:	701a      	strb	r2, [r3, #0]
 800380e:	e7f8      	b.n	8003802 <__cvt+0x9e>
 8003810:	f8cd 900c 	str.w	r9, [sp, #12]
 8003814:	9b03      	ldr	r3, [sp, #12]
 8003816:	9a0e      	ldr	r2, [sp, #56]	; 0x38
 8003818:	eba3 0308 	sub.w	r3, r3, r8
 800381c:	4640      	mov	r0, r8
 800381e:	6013      	str	r3, [r2, #0]
 8003820:	b004      	add	sp, #16
 8003822:	e8bd 87f0 	ldmia.w	sp!, {r4, r5, r6, r7, r8, r9, sl, pc}

08003826 <__exponent>:
 8003826:	b5f7      	push	{r0, r1, r2, r4, r5, r6, r7, lr}
 8003828:	2900      	cmp	r1, #0
 800382a:	4604      	mov	r4, r0
 800382c:	bfba      	itte	lt
 800382e:	4249      	neglt	r1, r1
 8003830:	232d      	movlt	r3, #45	; 0x2d
 8003832:	232b      	movge	r3, #43	; 0x2b
 8003834:	2909      	cmp	r1, #9
 8003836:	f804 2b02 	strb.w	r2, [r4], #2
 800383a:	7043      	strb	r3, [r0, #1]
 800383c:	dd20      	ble.n	8003880 <__exponent+0x5a>
 800383e:	f10d 0307 	add.w	r3, sp, #7
 8003842:	461f      	mov	r7, r3
 8003844:	260a      	movs	r6, #10
 8003846:	fb91 f5f6 	sdiv	r5, r1, r6
 800384a:	fb06 1115 	mls	r1, r6, r5, r1
 800384e:	3130      	adds	r1, #48	; 0x30
 8003850:	2d09      	cmp	r5, #9
 8003852:	f803 1c01 	strb.w	r1, [r3, #-1]
 8003856:	f103 32ff 	add.w	r2, r3, #4294967295
 800385a:	4629      	mov	r1, r5
 800385c:	dc09      	bgt.n	8003872 <__exponent+0x4c>
 800385e:	3130      	adds	r1, #48	; 0x30
 8003860:	3b02      	subs	r3, #2
 8003862:	f802 1c01 	strb.w	r1, [r2, #-1]
 8003866:	42bb      	cmp	r3, r7
 8003868:	4622      	mov	r2, r4
 800386a:	d304      	bcc.n	8003876 <__exponent+0x50>
 800386c:	1a10      	subs	r0, r2, r0
 800386e:	b003      	add	sp, #12
 8003870:	bdf0      	pop	{r4, r5, r6, r7, pc}
 8003872:	4613      	mov	r3, r2
 8003874:	e7e7      	b.n	8003846 <__exponent+0x20>
 8003876:	f813 2b01 	ldrb.w	r2, [r3], #1
 800387a:	f804 2b01 	strb.w	r2, [r4], #1
 800387e:	e7f2      	b.n	8003866 <__exponent+0x40>
 8003880:	2330      	movs	r3, #48	; 0x30
 8003882:	4419      	add	r1, r3
 8003884:	7083      	strb	r3, [r0, #2]
 8003886:	1d02      	adds	r2, r0, #4
 8003888:	70c1      	strb	r1, [r0, #3]
 800388a:	e7ef      	b.n	800386c <__exponent+0x46>

0800388c <_printf_float>:
 800388c:	e92d 4ff0 	stmdb	sp!, {r4, r5, r6, r7, r8, r9, sl, fp, lr}
 8003890:	b08d      	sub	sp, #52	; 0x34
 8003892:	460c      	mov	r4, r1
 8003894:	f8dd 8058 	ldr.w	r8, [sp, #88]	; 0x58
 8003898:	4616      	mov	r6, r2
 800389a:	461f      	mov	r7, r3
 800389c:	4605      	mov	r5, r0
 800389e:	f001 fa7b 	bl	8004d98 <_localeconv_r>
 80038a2:	6803      	ldr	r3, [r0, #0]
 80038a4:	9304      	str	r3, [sp, #16]
 80038a6:	4618      	mov	r0, r3
 80038a8:	f7fc fc92 	bl	80001d0 <strlen>
 80038ac:	2300      	movs	r3, #0
 80038ae:	930a      	str	r3, [sp, #40]	; 0x28
 80038b0:	f8d8 3000 	ldr.w	r3, [r8]
 80038b4:	9005      	str	r0, [sp, #20]
 80038b6:	3307      	adds	r3, #7
 80038b8:	f023 0307 	bic.w	r3, r3, #7
 80038bc:	f103 0208 	add.w	r2, r3, #8
 80038c0:	f894 a018 	ldrb.w	sl, [r4, #24]
 80038c4:	f8d4 b000 	ldr.w	fp, [r4]
 80038c8:	f8c8 2000 	str.w	r2, [r8]
 80038cc:	e9d3 2300 	ldrd	r2, r3, [r3]
 80038d0:	e9c4 2312 	strd	r2, r3, [r4, #72]	; 0x48
 80038d4:	e9d4 8912 	ldrd	r8, r9, [r4, #72]	; 0x48
 80038d8:	f029 4300 	bic.w	r3, r9, #2147483648	; 0x80000000
 80038dc:	9307      	str	r3, [sp, #28]
 80038de:	f8cd 8018 	str.w	r8, [sp, #24]
 80038e2:	f04f 32ff 	mov.w	r2, #4294967295
 80038e6:	4ba7      	ldr	r3, [pc, #668]	; (8003b84 <_printf_float+0x2f8>)
 80038e8:	e9dd 0106 	ldrd	r0, r1, [sp, #24]
 80038ec:	f7fd f91e 	bl	8000b2c <__aeabi_dcmpun>
 80038f0:	bb70      	cbnz	r0, 8003950 <_printf_float+0xc4>
 80038f2:	f04f 32ff 	mov.w	r2, #4294967295
 80038f6:	4ba3      	ldr	r3, [pc, #652]	; (8003b84 <_printf_float+0x2f8>)
 80038f8:	e9dd 0106 	ldrd	r0, r1, [sp, #24]
 80038fc:	f7fd f8f8 	bl	8000af0 <__aeabi_dcmple>
 8003900:	bb30      	cbnz	r0, 8003950 <_printf_float+0xc4>
 8003902:	2200      	movs	r2, #0
 8003904:	2300      	movs	r3, #0
 8003906:	4640      	mov	r0, r8
 8003908:	4649      	mov	r1, r9
 800390a:	f7fd f8e7 	bl	8000adc <__aeabi_dcmplt>
 800390e:	b110      	cbz	r0, 8003916 <_printf_float+0x8a>
 8003910:	232d      	movs	r3, #45	; 0x2d
 8003912:	f884 3043 	strb.w	r3, [r4, #67]	; 0x43
 8003916:	4a9c      	ldr	r2, [pc, #624]	; (8003b88 <_printf_float+0x2fc>)
 8003918:	4b9c      	ldr	r3, [pc, #624]	; (8003b8c <_printf_float+0x300>)
 800391a:	f1ba 0f47 	cmp.w	sl, #71	; 0x47
 800391e:	bf8c      	ite	hi
 8003920:	4690      	movhi	r8, r2
 8003922:	4698      	movls	r8, r3
 8003924:	2303      	movs	r3, #3
 8003926:	f02b 0204 	bic.w	r2, fp, #4
 800392a:	6123      	str	r3, [r4, #16]
 800392c:	6022      	str	r2, [r4, #0]
 800392e:	f04f 0900 	mov.w	r9, #0
 8003932:	9700      	str	r7, [sp, #0]
 8003934:	4633      	mov	r3, r6
 8003936:	aa0b      	add	r2, sp, #44	; 0x2c
 8003938:	4621      	mov	r1, r4
 800393a:	4628      	mov	r0, r5
 800393c:	f000 f9e6 	bl	8003d0c <_printf_common>
 8003940:	3001      	adds	r0, #1
 8003942:	f040 808d 	bne.w	8003a60 <_printf_float+0x1d4>
 8003946:	f04f 30ff 	mov.w	r0, #4294967295
 800394a:	b00d      	add	sp, #52	; 0x34
 800394c:	e8bd 8ff0 	ldmia.w	sp!, {r4, r5, r6, r7, r8, r9, sl, fp, pc}
 8003950:	4642      	mov	r2, r8
 8003952:	464b      	mov	r3, r9
 8003954:	4640      	mov	r0, r8
 8003956:	4649      	mov	r1, r9
 8003958:	f7fd f8e8 	bl	8000b2c <__aeabi_dcmpun>
 800395c:	b110      	cbz	r0, 8003964 <_printf_float+0xd8>
 800395e:	4a8c      	ldr	r2, [pc, #560]	; (8003b90 <_printf_float+0x304>)
 8003960:	4b8c      	ldr	r3, [pc, #560]	; (8003b94 <_printf_float+0x308>)
 8003962:	e7da      	b.n	800391a <_printf_float+0x8e>
 8003964:	6861      	ldr	r1, [r4, #4]
 8003966:	1c4b      	adds	r3, r1, #1
 8003968:	f44b 6280 	orr.w	r2, fp, #1024	; 0x400
 800396c:	a80a      	add	r0, sp, #40	; 0x28
 800396e:	d13e      	bne.n	80039ee <_printf_float+0x162>
 8003970:	2306      	movs	r3, #6
 8003972:	6063      	str	r3, [r4, #4]
 8003974:	2300      	movs	r3, #0
 8003976:	e9cd 0302 	strd	r0, r3, [sp, #8]
 800397a:	ab09      	add	r3, sp, #36	; 0x24
 800397c:	9300      	str	r3, [sp, #0]
 800397e:	ec49 8b10 	vmov	d0, r8, r9
 8003982:	f10d 0323 	add.w	r3, sp, #35	; 0x23
 8003986:	6022      	str	r2, [r4, #0]
 8003988:	f8cd a004 	str.w	sl, [sp, #4]
 800398c:	6861      	ldr	r1, [r4, #4]
 800398e:	4628      	mov	r0, r5
 8003990:	f7ff fee8 	bl	8003764 <__cvt>
 8003994:	f00a 03df 	and.w	r3, sl, #223	; 0xdf
 8003998:	2b47      	cmp	r3, #71	; 0x47
 800399a:	4680      	mov	r8, r0
 800399c:	d109      	bne.n	80039b2 <_printf_float+0x126>
 800399e:	9b09      	ldr	r3, [sp, #36]	; 0x24
 80039a0:	1cd8      	adds	r0, r3, #3
 80039a2:	db02      	blt.n	80039aa <_printf_float+0x11e>
 80039a4:	6862      	ldr	r2, [r4, #4]
 80039a6:	4293      	cmp	r3, r2
 80039a8:	dd47      	ble.n	8003a3a <_printf_float+0x1ae>
 80039aa:	f1aa 0a02 	sub.w	sl, sl, #2
 80039ae:	fa5f fa8a 	uxtb.w	sl, sl
 80039b2:	f1ba 0f65 	cmp.w	sl, #101	; 0x65
 80039b6:	9909      	ldr	r1, [sp, #36]	; 0x24
 80039b8:	d824      	bhi.n	8003a04 <_printf_float+0x178>
 80039ba:	3901      	subs	r1, #1
 80039bc:	4652      	mov	r2, sl
 80039be:	f104 0050 	add.w	r0, r4, #80	; 0x50
 80039c2:	9109      	str	r1, [sp, #36]	; 0x24
 80039c4:	f7ff ff2f 	bl	8003826 <__exponent>
 80039c8:	9a0a      	ldr	r2, [sp, #40]	; 0x28
 80039ca:	1813      	adds	r3, r2, r0
 80039cc:	2a01      	cmp	r2, #1
 80039ce:	4681      	mov	r9, r0
 80039d0:	6123      	str	r3, [r4, #16]
 80039d2:	dc02      	bgt.n	80039da <_printf_float+0x14e>
 80039d4:	6822      	ldr	r2, [r4, #0]
 80039d6:	07d1      	lsls	r1, r2, #31
 80039d8:	d501      	bpl.n	80039de <_printf_float+0x152>
 80039da:	3301      	adds	r3, #1
 80039dc:	6123      	str	r3, [r4, #16]
 80039de:	f89d 3023 	ldrb.w	r3, [sp, #35]	; 0x23
 80039e2:	2b00      	cmp	r3, #0
 80039e4:	d0a5      	beq.n	8003932 <_printf_float+0xa6>
 80039e6:	232d      	movs	r3, #45	; 0x2d
 80039e8:	f884 3043 	strb.w	r3, [r4, #67]	; 0x43
 80039ec:	e7a1      	b.n	8003932 <_printf_float+0xa6>
 80039ee:	f1ba 0f67 	cmp.w	sl, #103	; 0x67
 80039f2:	f000 8177 	beq.w	8003ce4 <_printf_float+0x458>
 80039f6:	f1ba 0f47 	cmp.w	sl, #71	; 0x47
 80039fa:	d1bb      	bne.n	8003974 <_printf_float+0xe8>
 80039fc:	2900      	cmp	r1, #0
 80039fe:	d1b9      	bne.n	8003974 <_printf_float+0xe8>
 8003a00:	2301      	movs	r3, #1
 8003a02:	e7b6      	b.n	8003972 <_printf_float+0xe6>
 8003a04:	f1ba 0f66 	cmp.w	sl, #102	; 0x66
 8003a08:	d119      	bne.n	8003a3e <_printf_float+0x1b2>
 8003a0a:	2900      	cmp	r1, #0
 8003a0c:	6863      	ldr	r3, [r4, #4]
 8003a0e:	dd0c      	ble.n	8003a2a <_printf_float+0x19e>
 8003a10:	6121      	str	r1, [r4, #16]
 8003a12:	b913      	cbnz	r3, 8003a1a <_printf_float+0x18e>
 8003a14:	6822      	ldr	r2, [r4, #0]
 8003a16:	07d2      	lsls	r2, r2, #31
 8003a18:	d502      	bpl.n	8003a20 <_printf_float+0x194>
 8003a1a:	3301      	adds	r3, #1
 8003a1c:	440b      	add	r3, r1
 8003a1e:	6123      	str	r3, [r4, #16]
 8003a20:	9b09      	ldr	r3, [sp, #36]	; 0x24
 8003a22:	65a3      	str	r3, [r4, #88]	; 0x58
 8003a24:	f04f 0900 	mov.w	r9, #0
 8003a28:	e7d9      	b.n	80039de <_printf_float+0x152>
 8003a2a:	b913      	cbnz	r3, 8003a32 <_printf_float+0x1a6>
 8003a2c:	6822      	ldr	r2, [r4, #0]
 8003a2e:	07d0      	lsls	r0, r2, #31
 8003a30:	d501      	bpl.n	8003a36 <_printf_float+0x1aa>
 8003a32:	3302      	adds	r3, #2
 8003a34:	e7f3      	b.n	8003a1e <_printf_float+0x192>
 8003a36:	2301      	movs	r3, #1
 8003a38:	e7f1      	b.n	8003a1e <_printf_float+0x192>
 8003a3a:	f04f 0a67 	mov.w	sl, #103	; 0x67
 8003a3e:	e9dd 3209 	ldrd	r3, r2, [sp, #36]	; 0x24
 8003a42:	4293      	cmp	r3, r2
 8003a44:	db05      	blt.n	8003a52 <_printf_float+0x1c6>
 8003a46:	6822      	ldr	r2, [r4, #0]
 8003a48:	6123      	str	r3, [r4, #16]
 8003a4a:	07d1      	lsls	r1, r2, #31
 8003a4c:	d5e8      	bpl.n	8003a20 <_printf_float+0x194>
 8003a4e:	3301      	adds	r3, #1
 8003a50:	e7e5      	b.n	8003a1e <_printf_float+0x192>
 8003a52:	2b00      	cmp	r3, #0
 8003a54:	bfd4      	ite	le
 8003a56:	f1c3 0302 	rsble	r3, r3, #2
 8003a5a:	2301      	movgt	r3, #1
 8003a5c:	4413      	add	r3, r2
 8003a5e:	e7de      	b.n	8003a1e <_printf_float+0x192>
 8003a60:	6823      	ldr	r3, [r4, #0]
 8003a62:	055a      	lsls	r2, r3, #21
 8003a64:	d407      	bmi.n	8003a76 <_printf_float+0x1ea>
 8003a66:	6923      	ldr	r3, [r4, #16]
 8003a68:	4642      	mov	r2, r8
 8003a6a:	4631      	mov	r1, r6
 8003a6c:	4628      	mov	r0, r5
 8003a6e:	47b8      	blx	r7
 8003a70:	3001      	adds	r0, #1
 8003a72:	d12b      	bne.n	8003acc <_printf_float+0x240>
 8003a74:	e767      	b.n	8003946 <_printf_float+0xba>
 8003a76:	f1ba 0f65 	cmp.w	sl, #101	; 0x65
 8003a7a:	f240 80dc 	bls.w	8003c36 <_printf_float+0x3aa>
 8003a7e:	2200      	movs	r2, #0
 8003a80:	2300      	movs	r3, #0
 8003a82:	e9d4 0112 	ldrd	r0, r1, [r4, #72]	; 0x48
 8003a86:	f7fd f81f 	bl	8000ac8 <__aeabi_dcmpeq>
 8003a8a:	2800      	cmp	r0, #0
 8003a8c:	d033      	beq.n	8003af6 <_printf_float+0x26a>
 8003a8e:	2301      	movs	r3, #1
 8003a90:	4a41      	ldr	r2, [pc, #260]	; (8003b98 <_printf_float+0x30c>)
 8003a92:	4631      	mov	r1, r6
 8003a94:	4628      	mov	r0, r5
 8003a96:	47b8      	blx	r7
 8003a98:	3001      	adds	r0, #1
 8003a9a:	f43f af54 	beq.w	8003946 <_printf_float+0xba>
 8003a9e:	e9dd 2309 	ldrd	r2, r3, [sp, #36]	; 0x24
 8003aa2:	429a      	cmp	r2, r3
 8003aa4:	db02      	blt.n	8003aac <_printf_float+0x220>
 8003aa6:	6823      	ldr	r3, [r4, #0]
 8003aa8:	07d8      	lsls	r0, r3, #31
 8003aaa:	d50f      	bpl.n	8003acc <_printf_float+0x240>
 8003aac:	e9dd 2304 	ldrd	r2, r3, [sp, #16]
 8003ab0:	4631      	mov	r1, r6
 8003ab2:	4628      	mov	r0, r5
 8003ab4:	47b8      	blx	r7
 8003ab6:	3001      	adds	r0, #1
 8003ab8:	f43f af45 	beq.w	8003946 <_printf_float+0xba>
 8003abc:	f04f 0800 	mov.w	r8, #0
 8003ac0:	f104 091a 	add.w	r9, r4, #26
 8003ac4:	9b0a      	ldr	r3, [sp, #40]	; 0x28
 8003ac6:	3b01      	subs	r3, #1
 8003ac8:	4543      	cmp	r3, r8
 8003aca:	dc09      	bgt.n	8003ae0 <_printf_float+0x254>
 8003acc:	6823      	ldr	r3, [r4, #0]
 8003ace:	079b      	lsls	r3, r3, #30
 8003ad0:	f100 8103 	bmi.w	8003cda <_printf_float+0x44e>
 8003ad4:	68e0      	ldr	r0, [r4, #12]
 8003ad6:	9b0b      	ldr	r3, [sp, #44]	; 0x2c
 8003ad8:	4298      	cmp	r0, r3
 8003ada:	bfb8      	it	lt
 8003adc:	4618      	movlt	r0, r3
 8003ade:	e734      	b.n	800394a <_printf_float+0xbe>
 8003ae0:	2301      	movs	r3, #1
 8003ae2:	464a      	mov	r2, r9
 8003ae4:	4631      	mov	r1, r6
 8003ae6:	4628      	mov	r0, r5
 8003ae8:	47b8      	blx	r7
 8003aea:	3001      	adds	r0, #1
 8003aec:	f43f af2b 	beq.w	8003946 <_printf_float+0xba>
 8003af0:	f108 0801 	add.w	r8, r8, #1
 8003af4:	e7e6      	b.n	8003ac4 <_printf_float+0x238>
 8003af6:	9b09      	ldr	r3, [sp, #36]	; 0x24
 8003af8:	2b00      	cmp	r3, #0
 8003afa:	dc2b      	bgt.n	8003b54 <_printf_float+0x2c8>
 8003afc:	2301      	movs	r3, #1
 8003afe:	4a26      	ldr	r2, [pc, #152]	; (8003b98 <_printf_float+0x30c>)
 8003b00:	4631      	mov	r1, r6
 8003b02:	4628      	mov	r0, r5
 8003b04:	47b8      	blx	r7
 8003b06:	3001      	adds	r0, #1
 8003b08:	f43f af1d 	beq.w	8003946 <_printf_float+0xba>
 8003b0c:	9b09      	ldr	r3, [sp, #36]	; 0x24
 8003b0e:	b923      	cbnz	r3, 8003b1a <_printf_float+0x28e>
 8003b10:	9b0a      	ldr	r3, [sp, #40]	; 0x28
 8003b12:	b913      	cbnz	r3, 8003b1a <_printf_float+0x28e>
 8003b14:	6823      	ldr	r3, [r4, #0]
 8003b16:	07d9      	lsls	r1, r3, #31
 8003b18:	d5d8      	bpl.n	8003acc <_printf_float+0x240>
 8003b1a:	e9dd 2304 	ldrd	r2, r3, [sp, #16]
 8003b1e:	4631      	mov	r1, r6
 8003b20:	4628      	mov	r0, r5
 8003b22:	47b8      	blx	r7
 8003b24:	3001      	adds	r0, #1
 8003b26:	f43f af0e 	beq.w	8003946 <_printf_float+0xba>
 8003b2a:	f04f 0900 	mov.w	r9, #0
 8003b2e:	f104 0a1a 	add.w	sl, r4, #26
 8003b32:	9b09      	ldr	r3, [sp, #36]	; 0x24
 8003b34:	425b      	negs	r3, r3
 8003b36:	454b      	cmp	r3, r9
 8003b38:	dc01      	bgt.n	8003b3e <_printf_float+0x2b2>
 8003b3a:	9b0a      	ldr	r3, [sp, #40]	; 0x28
 8003b3c:	e794      	b.n	8003a68 <_printf_float+0x1dc>
 8003b3e:	2301      	movs	r3, #1
 8003b40:	4652      	mov	r2, sl
 8003b42:	4631      	mov	r1, r6
 8003b44:	4628      	mov	r0, r5
 8003b46:	47b8      	blx	r7
 8003b48:	3001      	adds	r0, #1
 8003b4a:	f43f aefc 	beq.w	8003946 <_printf_float+0xba>
 8003b4e:	f109 0901 	add.w	r9, r9, #1
 8003b52:	e7ee      	b.n	8003b32 <_printf_float+0x2a6>
 8003b54:	9a0a      	ldr	r2, [sp, #40]	; 0x28
 8003b56:	6da3      	ldr	r3, [r4, #88]	; 0x58
 8003b58:	429a      	cmp	r2, r3
 8003b5a:	bfa8      	it	ge
 8003b5c:	461a      	movge	r2, r3
 8003b5e:	2a00      	cmp	r2, #0
 8003b60:	4691      	mov	r9, r2
 8003b62:	dd07      	ble.n	8003b74 <_printf_float+0x2e8>
 8003b64:	4613      	mov	r3, r2
 8003b66:	4631      	mov	r1, r6
 8003b68:	4642      	mov	r2, r8
 8003b6a:	4628      	mov	r0, r5
 8003b6c:	47b8      	blx	r7
 8003b6e:	3001      	adds	r0, #1
 8003b70:	f43f aee9 	beq.w	8003946 <_printf_float+0xba>
 8003b74:	f104 031a 	add.w	r3, r4, #26
 8003b78:	f04f 0b00 	mov.w	fp, #0
 8003b7c:	ea29 79e9 	bic.w	r9, r9, r9, asr #31
 8003b80:	9306      	str	r3, [sp, #24]
 8003b82:	e015      	b.n	8003bb0 <_printf_float+0x324>
 8003b84:	7fefffff 	.word	0x7fefffff
 8003b88:	080062bb 	.word	0x080062bb
 8003b8c:	080062b7 	.word	0x080062b7
 8003b90:	080062c3 	.word	0x080062c3
 8003b94:	080062bf 	.word	0x080062bf
 8003b98:	0800641b 	.word	0x0800641b
 8003b9c:	2301      	movs	r3, #1
 8003b9e:	9a06      	ldr	r2, [sp, #24]
 8003ba0:	4631      	mov	r1, r6
 8003ba2:	4628      	mov	r0, r5
 8003ba4:	47b8      	blx	r7
 8003ba6:	3001      	adds	r0, #1
 8003ba8:	f43f aecd 	beq.w	8003946 <_printf_float+0xba>
 8003bac:	f10b 0b01 	add.w	fp, fp, #1
 8003bb0:	f8d4 a058 	ldr.w	sl, [r4, #88]	; 0x58
 8003bb4:	ebaa 0309 	sub.w	r3, sl, r9
 8003bb8:	455b      	cmp	r3, fp
 8003bba:	dcef      	bgt.n	8003b9c <_printf_float+0x310>
 8003bbc:	e9dd 2309 	ldrd	r2, r3, [sp, #36]	; 0x24
 8003bc0:	429a      	cmp	r2, r3
 8003bc2:	44d0      	add	r8, sl
 8003bc4:	db15      	blt.n	8003bf2 <_printf_float+0x366>
 8003bc6:	6823      	ldr	r3, [r4, #0]
 8003bc8:	07da      	lsls	r2, r3, #31
 8003bca:	d412      	bmi.n	8003bf2 <_printf_float+0x366>
 8003bcc:	9b0a      	ldr	r3, [sp, #40]	; 0x28
 8003bce:	9909      	ldr	r1, [sp, #36]	; 0x24
 8003bd0:	eba3 020a 	sub.w	r2, r3, sl
 8003bd4:	eba3 0a01 	sub.w	sl, r3, r1
 8003bd8:	4592      	cmp	sl, r2
 8003bda:	bfa8      	it	ge
 8003bdc:	4692      	movge	sl, r2
 8003bde:	f1ba 0f00 	cmp.w	sl, #0
 8003be2:	dc0e      	bgt.n	8003c02 <_printf_float+0x376>
 8003be4:	f04f 0800 	mov.w	r8, #0
 8003be8:	ea2a 7aea 	bic.w	sl, sl, sl, asr #31
 8003bec:	f104 091a 	add.w	r9, r4, #26
 8003bf0:	e019      	b.n	8003c26 <_printf_float+0x39a>
 8003bf2:	e9dd 2304 	ldrd	r2, r3, [sp, #16]
 8003bf6:	4631      	mov	r1, r6
 8003bf8:	4628      	mov	r0, r5
 8003bfa:	47b8      	blx	r7
 8003bfc:	3001      	adds	r0, #1
 8003bfe:	d1e5      	bne.n	8003bcc <_printf_float+0x340>
 8003c00:	e6a1      	b.n	8003946 <_printf_float+0xba>
 8003c02:	4653      	mov	r3, sl
 8003c04:	4642      	mov	r2, r8
 8003c06:	4631      	mov	r1, r6
 8003c08:	4628      	mov	r0, r5
 8003c0a:	47b8      	blx	r7
 8003c0c:	3001      	adds	r0, #1
 8003c0e:	d1e9      	bne.n	8003be4 <_printf_float+0x358>
 8003c10:	e699      	b.n	8003946 <_printf_float+0xba>
 8003c12:	2301      	movs	r3, #1
 8003c14:	464a      	mov	r2, r9
 8003c16:	4631      	mov	r1, r6
 8003c18:	4628      	mov	r0, r5
 8003c1a:	47b8      	blx	r7
 8003c1c:	3001      	adds	r0, #1
 8003c1e:	f43f ae92 	beq.w	8003946 <_printf_float+0xba>
 8003c22:	f108 0801 	add.w	r8, r8, #1
 8003c26:	e9dd 2309 	ldrd	r2, r3, [sp, #36]	; 0x24
 8003c2a:	1a9b      	subs	r3, r3, r2
 8003c2c:	eba3 030a 	sub.w	r3, r3, sl
 8003c30:	4543      	cmp	r3, r8
 8003c32:	dcee      	bgt.n	8003c12 <_printf_float+0x386>
 8003c34:	e74a      	b.n	8003acc <_printf_float+0x240>
 8003c36:	9a0a      	ldr	r2, [sp, #40]	; 0x28
 8003c38:	2a01      	cmp	r2, #1
 8003c3a:	dc01      	bgt.n	8003c40 <_printf_float+0x3b4>
 8003c3c:	07db      	lsls	r3, r3, #31
 8003c3e:	d53a      	bpl.n	8003cb6 <_printf_float+0x42a>
 8003c40:	2301      	movs	r3, #1
 8003c42:	4642      	mov	r2, r8
 8003c44:	4631      	mov	r1, r6
 8003c46:	4628      	mov	r0, r5
 8003c48:	47b8      	blx	r7
 8003c4a:	3001      	adds	r0, #1
 8003c4c:	f43f ae7b 	beq.w	8003946 <_printf_float+0xba>
 8003c50:	e9dd 2304 	ldrd	r2, r3, [sp, #16]
 8003c54:	4631      	mov	r1, r6
 8003c56:	4628      	mov	r0, r5
 8003c58:	47b8      	blx	r7
 8003c5a:	3001      	adds	r0, #1
 8003c5c:	f108 0801 	add.w	r8, r8, #1
 8003c60:	f43f ae71 	beq.w	8003946 <_printf_float+0xba>
 8003c64:	9b0a      	ldr	r3, [sp, #40]	; 0x28
 8003c66:	2200      	movs	r2, #0
 8003c68:	f103 3aff 	add.w	sl, r3, #4294967295
 8003c6c:	e9d4 0112 	ldrd	r0, r1, [r4, #72]	; 0x48
 8003c70:	2300      	movs	r3, #0
 8003c72:	f7fc ff29 	bl	8000ac8 <__aeabi_dcmpeq>
 8003c76:	b9c8      	cbnz	r0, 8003cac <_printf_float+0x420>
 8003c78:	4653      	mov	r3, sl
 8003c7a:	4642      	mov	r2, r8
 8003c7c:	4631      	mov	r1, r6
 8003c7e:	4628      	mov	r0, r5
 8003c80:	47b8      	blx	r7
 8003c82:	3001      	adds	r0, #1
 8003c84:	d10e      	bne.n	8003ca4 <_printf_float+0x418>
 8003c86:	e65e      	b.n	8003946 <_printf_float+0xba>
 8003c88:	2301      	movs	r3, #1
 8003c8a:	4652      	mov	r2, sl
 8003c8c:	4631      	mov	r1, r6
 8003c8e:	4628      	mov	r0, r5
 8003c90:	47b8      	blx	r7
 8003c92:	3001      	adds	r0, #1
 8003c94:	f43f ae57 	beq.w	8003946 <_printf_float+0xba>
 8003c98:	f108 0801 	add.w	r8, r8, #1
 8003c9c:	9b0a      	ldr	r3, [sp, #40]	; 0x28
 8003c9e:	3b01      	subs	r3, #1
 8003ca0:	4543      	cmp	r3, r8
 8003ca2:	dcf1      	bgt.n	8003c88 <_printf_float+0x3fc>
 8003ca4:	464b      	mov	r3, r9
 8003ca6:	f104 0250 	add.w	r2, r4, #80	; 0x50
 8003caa:	e6de      	b.n	8003a6a <_printf_float+0x1de>
 8003cac:	f04f 0800 	mov.w	r8, #0
 8003cb0:	f104 0a1a 	add.w	sl, r4, #26
 8003cb4:	e7f2      	b.n	8003c9c <_printf_float+0x410>
 8003cb6:	2301      	movs	r3, #1
 8003cb8:	e7df      	b.n	8003c7a <_printf_float+0x3ee>
 8003cba:	2301      	movs	r3, #1
 8003cbc:	464a      	mov	r2, r9
 8003cbe:	4631      	mov	r1, r6
 8003cc0:	4628      	mov	r0, r5
 8003cc2:	47b8      	blx	r7
 8003cc4:	3001      	adds	r0, #1
 8003cc6:	f43f ae3e 	beq.w	8003946 <_printf_float+0xba>
 8003cca:	f108 0801 	add.w	r8, r8, #1
 8003cce:	68e3      	ldr	r3, [r4, #12]
 8003cd0:	9a0b      	ldr	r2, [sp, #44]	; 0x2c
 8003cd2:	1a9b      	subs	r3, r3, r2
 8003cd4:	4543      	cmp	r3, r8
 8003cd6:	dcf0      	bgt.n	8003cba <_printf_float+0x42e>
 8003cd8:	e6fc      	b.n	8003ad4 <_printf_float+0x248>
 8003cda:	f04f 0800 	mov.w	r8, #0
 8003cde:	f104 0919 	add.w	r9, r4, #25
 8003ce2:	e7f4      	b.n	8003cce <_printf_float+0x442>
 8003ce4:	2900      	cmp	r1, #0
 8003ce6:	f43f ae8b 	beq.w	8003a00 <_printf_float+0x174>
 8003cea:	2300      	movs	r3, #0
 8003cec:	e9cd 0302 	strd	r0, r3, [sp, #8]
 8003cf0:	ab09      	add	r3, sp, #36	; 0x24
 8003cf2:	9300      	str	r3, [sp, #0]
 8003cf4:	ec49 8b10 	vmov	d0, r8, r9
 8003cf8:	6022      	str	r2, [r4, #0]
 8003cfa:	f8cd a004 	str.w	sl, [sp, #4]
 8003cfe:	f10d 0323 	add.w	r3, sp, #35	; 0x23
 8003d02:	4628      	mov	r0, r5
 8003d04:	f7ff fd2e 	bl	8003764 <__cvt>
 8003d08:	4680      	mov	r8, r0
 8003d0a:	e648      	b.n	800399e <_printf_float+0x112>

08003d0c <_printf_common>:
 8003d0c:	e92d 47f0 	stmdb	sp!, {r4, r5, r6, r7, r8, r9, sl, lr}
 8003d10:	4691      	mov	r9, r2
 8003d12:	461f      	mov	r7, r3
 8003d14:	688a      	ldr	r2, [r1, #8]
 8003d16:	690b      	ldr	r3, [r1, #16]
 8003d18:	f8dd 8020 	ldr.w	r8, [sp, #32]
 8003d1c:	4293      	cmp	r3, r2
 8003d1e:	bfb8      	it	lt
 8003d20:	4613      	movlt	r3, r2
 8003d22:	f8c9 3000 	str.w	r3, [r9]
 8003d26:	f891 2043 	ldrb.w	r2, [r1, #67]	; 0x43
 8003d2a:	4606      	mov	r6, r0
 8003d2c:	460c      	mov	r4, r1
 8003d2e:	b112      	cbz	r2, 8003d36 <_printf_common+0x2a>
 8003d30:	3301      	adds	r3, #1
 8003d32:	f8c9 3000 	str.w	r3, [r9]
 8003d36:	6823      	ldr	r3, [r4, #0]
 8003d38:	0699      	lsls	r1, r3, #26
 8003d3a:	bf42      	ittt	mi
 8003d3c:	f8d9 3000 	ldrmi.w	r3, [r9]
 8003d40:	3302      	addmi	r3, #2
 8003d42:	f8c9 3000 	strmi.w	r3, [r9]
 8003d46:	6825      	ldr	r5, [r4, #0]
 8003d48:	f015 0506 	ands.w	r5, r5, #6
 8003d4c:	d107      	bne.n	8003d5e <_printf_common+0x52>
 8003d4e:	f104 0a19 	add.w	sl, r4, #25
 8003d52:	68e3      	ldr	r3, [r4, #12]
 8003d54:	f8d9 2000 	ldr.w	r2, [r9]
 8003d58:	1a9b      	subs	r3, r3, r2
 8003d5a:	42ab      	cmp	r3, r5
 8003d5c:	dc28      	bgt.n	8003db0 <_printf_common+0xa4>
 8003d5e:	f894 3043 	ldrb.w	r3, [r4, #67]	; 0x43
 8003d62:	6822      	ldr	r2, [r4, #0]
 8003d64:	3300      	adds	r3, #0
 8003d66:	bf18      	it	ne
 8003d68:	2301      	movne	r3, #1
 8003d6a:	0692      	lsls	r2, r2, #26
 8003d6c:	d42d      	bmi.n	8003dca <_printf_common+0xbe>
 8003d6e:	f104 0243 	add.w	r2, r4, #67	; 0x43
 8003d72:	4639      	mov	r1, r7
 8003d74:	4630      	mov	r0, r6
 8003d76:	47c0      	blx	r8
 8003d78:	3001      	adds	r0, #1
 8003d7a:	d020      	beq.n	8003dbe <_printf_common+0xb2>
 8003d7c:	6823      	ldr	r3, [r4, #0]
 8003d7e:	68e5      	ldr	r5, [r4, #12]
 8003d80:	f8d9 2000 	ldr.w	r2, [r9]
 8003d84:	f003 0306 	and.w	r3, r3, #6
 8003d88:	2b04      	cmp	r3, #4
 8003d8a:	bf08      	it	eq
 8003d8c:	1aad      	subeq	r5, r5, r2
 8003d8e:	68a3      	ldr	r3, [r4, #8]
 8003d90:	6922      	ldr	r2, [r4, #16]
 8003d92:	bf0c      	ite	eq
 8003d94:	ea25 75e5 	biceq.w	r5, r5, r5, asr #31
 8003d98:	2500      	movne	r5, #0
 8003d9a:	4293      	cmp	r3, r2
 8003d9c:	bfc4      	itt	gt
 8003d9e:	1a9b      	subgt	r3, r3, r2
 8003da0:	18ed      	addgt	r5, r5, r3
 8003da2:	f04f 0900 	mov.w	r9, #0
 8003da6:	341a      	adds	r4, #26
 8003da8:	454d      	cmp	r5, r9
 8003daa:	d11a      	bne.n	8003de2 <_printf_common+0xd6>
 8003dac:	2000      	movs	r0, #0
 8003dae:	e008      	b.n	8003dc2 <_printf_common+0xb6>
 8003db0:	2301      	movs	r3, #1
 8003db2:	4652      	mov	r2, sl
 8003db4:	4639      	mov	r1, r7
 8003db6:	4630      	mov	r0, r6
 8003db8:	47c0      	blx	r8
 8003dba:	3001      	adds	r0, #1
 8003dbc:	d103      	bne.n	8003dc6 <_printf_common+0xba>
 8003dbe:	f04f 30ff 	mov.w	r0, #4294967295
 8003dc2:	e8bd 87f0 	ldmia.w	sp!, {r4, r5, r6, r7, r8, r9, sl, pc}
 8003dc6:	3501      	adds	r5, #1
 8003dc8:	e7c3      	b.n	8003d52 <_printf_common+0x46>
 8003dca:	18e1      	adds	r1, r4, r3
 8003dcc:	1c5a      	adds	r2, r3, #1
 8003dce:	2030      	movs	r0, #48	; 0x30
 8003dd0:	f881 0043 	strb.w	r0, [r1, #67]	; 0x43
 8003dd4:	4422      	add	r2, r4
 8003dd6:	f894 1045 	ldrb.w	r1, [r4, #69]	; 0x45
 8003dda:	f882 1043 	strb.w	r1, [r2, #67]	; 0x43
 8003dde:	3302      	adds	r3, #2
 8003de0:	e7c5      	b.n	8003d6e <_printf_common+0x62>
 8003de2:	2301      	movs	r3, #1
 8003de4:	4622      	mov	r2, r4
 8003de6:	4639      	mov	r1, r7
 8003de8:	4630      	mov	r0, r6
 8003dea:	47c0      	blx	r8
 8003dec:	3001      	adds	r0, #1
 8003dee:	d0e6      	beq.n	8003dbe <_printf_common+0xb2>
 8003df0:	f109 0901 	add.w	r9, r9, #1
 8003df4:	e7d8      	b.n	8003da8 <_printf_common+0x9c>
	...

08003df8 <_printf_i>:
 8003df8:	e92d 43f0 	stmdb	sp!, {r4, r5, r6, r7, r8, r9, lr}
 8003dfc:	f101 0c43 	add.w	ip, r1, #67	; 0x43
 8003e00:	460c      	mov	r4, r1
 8003e02:	7e09      	ldrb	r1, [r1, #24]
 8003e04:	b085      	sub	sp, #20
 8003e06:	296e      	cmp	r1, #110	; 0x6e
 8003e08:	4617      	mov	r7, r2
 8003e0a:	4606      	mov	r6, r0
 8003e0c:	4698      	mov	r8, r3
 8003e0e:	9a0c      	ldr	r2, [sp, #48]	; 0x30
 8003e10:	f000 80b3 	beq.w	8003f7a <_printf_i+0x182>
 8003e14:	d822      	bhi.n	8003e5c <_printf_i+0x64>
 8003e16:	2963      	cmp	r1, #99	; 0x63
 8003e18:	d036      	beq.n	8003e88 <_printf_i+0x90>
 8003e1a:	d80a      	bhi.n	8003e32 <_printf_i+0x3a>
 8003e1c:	2900      	cmp	r1, #0
 8003e1e:	f000 80b9 	beq.w	8003f94 <_printf_i+0x19c>
 8003e22:	2958      	cmp	r1, #88	; 0x58
 8003e24:	f000 8083 	beq.w	8003f2e <_printf_i+0x136>
 8003e28:	f104 0542 	add.w	r5, r4, #66	; 0x42
 8003e2c:	f884 1042 	strb.w	r1, [r4, #66]	; 0x42
 8003e30:	e032      	b.n	8003e98 <_printf_i+0xa0>
 8003e32:	2964      	cmp	r1, #100	; 0x64
 8003e34:	d001      	beq.n	8003e3a <_printf_i+0x42>
 8003e36:	2969      	cmp	r1, #105	; 0x69
 8003e38:	d1f6      	bne.n	8003e28 <_printf_i+0x30>
 8003e3a:	6820      	ldr	r0, [r4, #0]
 8003e3c:	6813      	ldr	r3, [r2, #0]
 8003e3e:	0605      	lsls	r5, r0, #24
 8003e40:	f103 0104 	add.w	r1, r3, #4
 8003e44:	d52a      	bpl.n	8003e9c <_printf_i+0xa4>
 8003e46:	681b      	ldr	r3, [r3, #0]
 8003e48:	6011      	str	r1, [r2, #0]
 8003e4a:	2b00      	cmp	r3, #0
 8003e4c:	da03      	bge.n	8003e56 <_printf_i+0x5e>
 8003e4e:	222d      	movs	r2, #45	; 0x2d
 8003e50:	425b      	negs	r3, r3
 8003e52:	f884 2043 	strb.w	r2, [r4, #67]	; 0x43
 8003e56:	486f      	ldr	r0, [pc, #444]	; (8004014 <_printf_i+0x21c>)
 8003e58:	220a      	movs	r2, #10
 8003e5a:	e039      	b.n	8003ed0 <_printf_i+0xd8>
 8003e5c:	2973      	cmp	r1, #115	; 0x73
 8003e5e:	f000 809d 	beq.w	8003f9c <_printf_i+0x1a4>
 8003e62:	d808      	bhi.n	8003e76 <_printf_i+0x7e>
 8003e64:	296f      	cmp	r1, #111	; 0x6f
 8003e66:	d020      	beq.n	8003eaa <_printf_i+0xb2>
 8003e68:	2970      	cmp	r1, #112	; 0x70
 8003e6a:	d1dd      	bne.n	8003e28 <_printf_i+0x30>
 8003e6c:	6823      	ldr	r3, [r4, #0]
 8003e6e:	f043 0320 	orr.w	r3, r3, #32
 8003e72:	6023      	str	r3, [r4, #0]
 8003e74:	e003      	b.n	8003e7e <_printf_i+0x86>
 8003e76:	2975      	cmp	r1, #117	; 0x75
 8003e78:	d017      	beq.n	8003eaa <_printf_i+0xb2>
 8003e7a:	2978      	cmp	r1, #120	; 0x78
 8003e7c:	d1d4      	bne.n	8003e28 <_printf_i+0x30>
 8003e7e:	2378      	movs	r3, #120	; 0x78
 8003e80:	f884 3045 	strb.w	r3, [r4, #69]	; 0x45
 8003e84:	4864      	ldr	r0, [pc, #400]	; (8004018 <_printf_i+0x220>)
 8003e86:	e055      	b.n	8003f34 <_printf_i+0x13c>
 8003e88:	6813      	ldr	r3, [r2, #0]
 8003e8a:	1d19      	adds	r1, r3, #4
 8003e8c:	681b      	ldr	r3, [r3, #0]
 8003e8e:	6011      	str	r1, [r2, #0]
 8003e90:	f104 0542 	add.w	r5, r4, #66	; 0x42
 8003e94:	f884 3042 	strb.w	r3, [r4, #66]	; 0x42
 8003e98:	2301      	movs	r3, #1
 8003e9a:	e08c      	b.n	8003fb6 <_printf_i+0x1be>
 8003e9c:	681b      	ldr	r3, [r3, #0]
 8003e9e:	6011      	str	r1, [r2, #0]
 8003ea0:	f010 0f40 	tst.w	r0, #64	; 0x40
 8003ea4:	bf18      	it	ne
 8003ea6:	b21b      	sxthne	r3, r3
 8003ea8:	e7cf      	b.n	8003e4a <_printf_i+0x52>
 8003eaa:	6813      	ldr	r3, [r2, #0]
 8003eac:	6825      	ldr	r5, [r4, #0]
 8003eae:	1d18      	adds	r0, r3, #4
 8003eb0:	6010      	str	r0, [r2, #0]
 8003eb2:	0628      	lsls	r0, r5, #24
 8003eb4:	d501      	bpl.n	8003eba <_printf_i+0xc2>
 8003eb6:	681b      	ldr	r3, [r3, #0]
 8003eb8:	e002      	b.n	8003ec0 <_printf_i+0xc8>
 8003eba:	0668      	lsls	r0, r5, #25
 8003ebc:	d5fb      	bpl.n	8003eb6 <_printf_i+0xbe>
 8003ebe:	881b      	ldrh	r3, [r3, #0]
 8003ec0:	4854      	ldr	r0, [pc, #336]	; (8004014 <_printf_i+0x21c>)
 8003ec2:	296f      	cmp	r1, #111	; 0x6f
 8003ec4:	bf14      	ite	ne
 8003ec6:	220a      	movne	r2, #10
 8003ec8:	2208      	moveq	r2, #8
 8003eca:	2100      	movs	r1, #0
 8003ecc:	f884 1043 	strb.w	r1, [r4, #67]	; 0x43
 8003ed0:	6865      	ldr	r5, [r4, #4]
 8003ed2:	60a5      	str	r5, [r4, #8]
 8003ed4:	2d00      	cmp	r5, #0
 8003ed6:	f2c0 8095 	blt.w	8004004 <_printf_i+0x20c>
 8003eda:	6821      	ldr	r1, [r4, #0]
 8003edc:	f021 0104 	bic.w	r1, r1, #4
 8003ee0:	6021      	str	r1, [r4, #0]
 8003ee2:	2b00      	cmp	r3, #0
 8003ee4:	d13d      	bne.n	8003f62 <_printf_i+0x16a>
 8003ee6:	2d00      	cmp	r5, #0
 8003ee8:	f040 808e 	bne.w	8004008 <_printf_i+0x210>
 8003eec:	4665      	mov	r5, ip
 8003eee:	2a08      	cmp	r2, #8
 8003ef0:	d10b      	bne.n	8003f0a <_printf_i+0x112>
 8003ef2:	6823      	ldr	r3, [r4, #0]
 8003ef4:	07db      	lsls	r3, r3, #31
 8003ef6:	d508      	bpl.n	8003f0a <_printf_i+0x112>
 8003ef8:	6923      	ldr	r3, [r4, #16]
 8003efa:	6862      	ldr	r2, [r4, #4]
 8003efc:	429a      	cmp	r2, r3
 8003efe:	bfde      	ittt	le
 8003f00:	2330      	movle	r3, #48	; 0x30
 8003f02:	f805 3c01 	strble.w	r3, [r5, #-1]
 8003f06:	f105 35ff 	addle.w	r5, r5, #4294967295
 8003f0a:	ebac 0305 	sub.w	r3, ip, r5
 8003f0e:	6123      	str	r3, [r4, #16]
 8003f10:	f8cd 8000 	str.w	r8, [sp]
 8003f14:	463b      	mov	r3, r7
 8003f16:	aa03      	add	r2, sp, #12
 8003f18:	4621      	mov	r1, r4
 8003f1a:	4630      	mov	r0, r6
 8003f1c:	f7ff fef6 	bl	8003d0c <_printf_common>
 8003f20:	3001      	adds	r0, #1
 8003f22:	d14d      	bne.n	8003fc0 <_printf_i+0x1c8>
 8003f24:	f04f 30ff 	mov.w	r0, #4294967295
 8003f28:	b005      	add	sp, #20
 8003f2a:	e8bd 83f0 	ldmia.w	sp!, {r4, r5, r6, r7, r8, r9, pc}
 8003f2e:	4839      	ldr	r0, [pc, #228]	; (8004014 <_printf_i+0x21c>)
 8003f30:	f884 1045 	strb.w	r1, [r4, #69]	; 0x45
 8003f34:	6813      	ldr	r3, [r2, #0]
 8003f36:	6821      	ldr	r1, [r4, #0]
 8003f38:	1d1d      	adds	r5, r3, #4
 8003f3a:	681b      	ldr	r3, [r3, #0]
 8003f3c:	6015      	str	r5, [r2, #0]
 8003f3e:	060a      	lsls	r2, r1, #24
 8003f40:	d50b      	bpl.n	8003f5a <_printf_i+0x162>
 8003f42:	07ca      	lsls	r2, r1, #31
 8003f44:	bf44      	itt	mi
 8003f46:	f041 0120 	orrmi.w	r1, r1, #32
 8003f4a:	6021      	strmi	r1, [r4, #0]
 8003f4c:	b91b      	cbnz	r3, 8003f56 <_printf_i+0x15e>
 8003f4e:	6822      	ldr	r2, [r4, #0]
 8003f50:	f022 0220 	bic.w	r2, r2, #32
 8003f54:	6022      	str	r2, [r4, #0]
 8003f56:	2210      	movs	r2, #16
 8003f58:	e7b7      	b.n	8003eca <_printf_i+0xd2>
 8003f5a:	064d      	lsls	r5, r1, #25
 8003f5c:	bf48      	it	mi
 8003f5e:	b29b      	uxthmi	r3, r3
 8003f60:	e7ef      	b.n	8003f42 <_printf_i+0x14a>
 8003f62:	4665      	mov	r5, ip
 8003f64:	fbb3 f1f2 	udiv	r1, r3, r2
 8003f68:	fb02 3311 	mls	r3, r2, r1, r3
 8003f6c:	5cc3      	ldrb	r3, [r0, r3]
 8003f6e:	f805 3d01 	strb.w	r3, [r5, #-1]!
 8003f72:	460b      	mov	r3, r1
 8003f74:	2900      	cmp	r1, #0
 8003f76:	d1f5      	bne.n	8003f64 <_printf_i+0x16c>
 8003f78:	e7b9      	b.n	8003eee <_printf_i+0xf6>
 8003f7a:	6813      	ldr	r3, [r2, #0]
 8003f7c:	6825      	ldr	r5, [r4, #0]
 8003f7e:	6961      	ldr	r1, [r4, #20]
 8003f80:	1d18      	adds	r0, r3, #4
 8003f82:	6010      	str	r0, [r2, #0]
 8003f84:	0628      	lsls	r0, r5, #24
 8003f86:	681b      	ldr	r3, [r3, #0]
 8003f88:	d501      	bpl.n	8003f8e <_printf_i+0x196>
 8003f8a:	6019      	str	r1, [r3, #0]
 8003f8c:	e002      	b.n	8003f94 <_printf_i+0x19c>
 8003f8e:	066a      	lsls	r2, r5, #25
 8003f90:	d5fb      	bpl.n	8003f8a <_printf_i+0x192>
 8003f92:	8019      	strh	r1, [r3, #0]
 8003f94:	2300      	movs	r3, #0
 8003f96:	6123      	str	r3, [r4, #16]
 8003f98:	4665      	mov	r5, ip
 8003f9a:	e7b9      	b.n	8003f10 <_printf_i+0x118>
 8003f9c:	6813      	ldr	r3, [r2, #0]
 8003f9e:	1d19      	adds	r1, r3, #4
 8003fa0:	6011      	str	r1, [r2, #0]
 8003fa2:	681d      	ldr	r5, [r3, #0]
 8003fa4:	6862      	ldr	r2, [r4, #4]
 8003fa6:	2100      	movs	r1, #0
 8003fa8:	4628      	mov	r0, r5
 8003faa:	f7fc f919 	bl	80001e0 <memchr>
 8003fae:	b108      	cbz	r0, 8003fb4 <_printf_i+0x1bc>
 8003fb0:	1b40      	subs	r0, r0, r5
 8003fb2:	6060      	str	r0, [r4, #4]
 8003fb4:	6863      	ldr	r3, [r4, #4]
 8003fb6:	6123      	str	r3, [r4, #16]
 8003fb8:	2300      	movs	r3, #0
 8003fba:	f884 3043 	strb.w	r3, [r4, #67]	; 0x43
 8003fbe:	e7a7      	b.n	8003f10 <_printf_i+0x118>
 8003fc0:	6923      	ldr	r3, [r4, #16]
 8003fc2:	462a      	mov	r2, r5
 8003fc4:	4639      	mov	r1, r7
 8003fc6:	4630      	mov	r0, r6
 8003fc8:	47c0      	blx	r8
 8003fca:	3001      	adds	r0, #1
 8003fcc:	d0aa      	beq.n	8003f24 <_printf_i+0x12c>
 8003fce:	6823      	ldr	r3, [r4, #0]
 8003fd0:	079b      	lsls	r3, r3, #30
 8003fd2:	d413      	bmi.n	8003ffc <_printf_i+0x204>
 8003fd4:	68e0      	ldr	r0, [r4, #12]
 8003fd6:	9b03      	ldr	r3, [sp, #12]
 8003fd8:	4298      	cmp	r0, r3
 8003fda:	bfb8      	it	lt
 8003fdc:	4618      	movlt	r0, r3
 8003fde:	e7a3      	b.n	8003f28 <_printf_i+0x130>
 8003fe0:	2301      	movs	r3, #1
 8003fe2:	464a      	mov	r2, r9
 8003fe4:	4639      	mov	r1, r7
 8003fe6:	4630      	mov	r0, r6
 8003fe8:	47c0      	blx	r8
 8003fea:	3001      	adds	r0, #1
 8003fec:	d09a      	beq.n	8003f24 <_printf_i+0x12c>
 8003fee:	3501      	adds	r5, #1
 8003ff0:	68e3      	ldr	r3, [r4, #12]
 8003ff2:	9a03      	ldr	r2, [sp, #12]
 8003ff4:	1a9b      	subs	r3, r3, r2
 8003ff6:	42ab      	cmp	r3, r5
 8003ff8:	dcf2      	bgt.n	8003fe0 <_printf_i+0x1e8>
 8003ffa:	e7eb      	b.n	8003fd4 <_printf_i+0x1dc>
 8003ffc:	2500      	movs	r5, #0
 8003ffe:	f104 0919 	add.w	r9, r4, #25
 8004002:	e7f5      	b.n	8003ff0 <_printf_i+0x1f8>
 8004004:	2b00      	cmp	r3, #0
 8004006:	d1ac      	bne.n	8003f62 <_printf_i+0x16a>
 8004008:	7803      	ldrb	r3, [r0, #0]
 800400a:	f884 3042 	strb.w	r3, [r4, #66]	; 0x42
 800400e:	f104 0542 	add.w	r5, r4, #66	; 0x42
 8004012:	e76c      	b.n	8003eee <_printf_i+0xf6>
 8004014:	080062c7 	.word	0x080062c7
 8004018:	080062d8 	.word	0x080062d8

0800401c <sniprintf>:
 800401c:	b40c      	push	{r2, r3}
 800401e:	b530      	push	{r4, r5, lr}
 8004020:	4b17      	ldr	r3, [pc, #92]	; (8004080 <sniprintf+0x64>)
 8004022:	1e0c      	subs	r4, r1, #0
 8004024:	b09d      	sub	sp, #116	; 0x74
 8004026:	681d      	ldr	r5, [r3, #0]
 8004028:	da08      	bge.n	800403c <sniprintf+0x20>
 800402a:	238b      	movs	r3, #139	; 0x8b
 800402c:	602b      	str	r3, [r5, #0]
 800402e:	f04f 30ff 	mov.w	r0, #4294967295
 8004032:	b01d      	add	sp, #116	; 0x74
 8004034:	e8bd 4030 	ldmia.w	sp!, {r4, r5, lr}
 8004038:	b002      	add	sp, #8
 800403a:	4770      	bx	lr
 800403c:	f44f 7302 	mov.w	r3, #520	; 0x208
 8004040:	f8ad 3014 	strh.w	r3, [sp, #20]
 8004044:	bf14      	ite	ne
 8004046:	f104 33ff 	addne.w	r3, r4, #4294967295
 800404a:	4623      	moveq	r3, r4
 800404c:	9304      	str	r3, [sp, #16]
 800404e:	9307      	str	r3, [sp, #28]
 8004050:	f64f 73ff 	movw	r3, #65535	; 0xffff
 8004054:	9002      	str	r0, [sp, #8]
 8004056:	9006      	str	r0, [sp, #24]
 8004058:	f8ad 3016 	strh.w	r3, [sp, #22]
 800405c:	9a20      	ldr	r2, [sp, #128]	; 0x80
 800405e:	ab21      	add	r3, sp, #132	; 0x84
 8004060:	a902      	add	r1, sp, #8
 8004062:	4628      	mov	r0, r5
 8004064:	9301      	str	r3, [sp, #4]
 8004066:	f001 faa3 	bl	80055b0 <_svfiprintf_r>
 800406a:	1c43      	adds	r3, r0, #1
 800406c:	bfbc      	itt	lt
 800406e:	238b      	movlt	r3, #139	; 0x8b
 8004070:	602b      	strlt	r3, [r5, #0]
 8004072:	2c00      	cmp	r4, #0
 8004074:	d0dd      	beq.n	8004032 <sniprintf+0x16>
 8004076:	9b02      	ldr	r3, [sp, #8]
 8004078:	2200      	movs	r2, #0
 800407a:	701a      	strb	r2, [r3, #0]
 800407c:	e7d9      	b.n	8004032 <sniprintf+0x16>
 800407e:	bf00      	nop
 8004080:	20000008 	.word	0x20000008

08004084 <siscanf>:
 8004084:	b40e      	push	{r1, r2, r3}
 8004086:	b530      	push	{r4, r5, lr}
 8004088:	b09c      	sub	sp, #112	; 0x70
 800408a:	ac1f      	add	r4, sp, #124	; 0x7c
 800408c:	f44f 7201 	mov.w	r2, #516	; 0x204
 8004090:	f854 5b04 	ldr.w	r5, [r4], #4
 8004094:	f8ad 2014 	strh.w	r2, [sp, #20]
 8004098:	9002      	str	r0, [sp, #8]
 800409a:	9006      	str	r0, [sp, #24]
 800409c:	f7fc f898 	bl	80001d0 <strlen>
 80040a0:	4b0b      	ldr	r3, [pc, #44]	; (80040d0 <siscanf+0x4c>)
 80040a2:	9003      	str	r0, [sp, #12]
 80040a4:	9007      	str	r0, [sp, #28]
 80040a6:	930b      	str	r3, [sp, #44]	; 0x2c
 80040a8:	480a      	ldr	r0, [pc, #40]	; (80040d4 <siscanf+0x50>)
 80040aa:	9401      	str	r4, [sp, #4]
 80040ac:	2300      	movs	r3, #0
 80040ae:	930f      	str	r3, [sp, #60]	; 0x3c
 80040b0:	9314      	str	r3, [sp, #80]	; 0x50
 80040b2:	f64f 73ff 	movw	r3, #65535	; 0xffff
 80040b6:	f8ad 3016 	strh.w	r3, [sp, #22]
 80040ba:	462a      	mov	r2, r5
 80040bc:	4623      	mov	r3, r4
 80040be:	a902      	add	r1, sp, #8
 80040c0:	6800      	ldr	r0, [r0, #0]
 80040c2:	f001 fbc7 	bl	8005854 <__ssvfiscanf_r>
 80040c6:	b01c      	add	sp, #112	; 0x70
 80040c8:	e8bd 4030 	ldmia.w	sp!, {r4, r5, lr}
 80040cc:	b003      	add	sp, #12
 80040ce:	4770      	bx	lr
 80040d0:	080040d9 	.word	0x080040d9
 80040d4:	20000008 	.word	0x20000008

080040d8 <__seofread>:
 80040d8:	2000      	movs	r0, #0
 80040da:	4770      	bx	lr

080040dc <strstr>:
 80040dc:	b5f0      	push	{r4, r5, r6, r7, lr}
 80040de:	7803      	ldrb	r3, [r0, #0]
 80040e0:	b17b      	cbz	r3, 8004102 <strstr+0x26>
 80040e2:	4604      	mov	r4, r0
 80040e4:	7823      	ldrb	r3, [r4, #0]
 80040e6:	4620      	mov	r0, r4
 80040e8:	1c66      	adds	r6, r4, #1
 80040ea:	b17b      	cbz	r3, 800410c <strstr+0x30>
 80040ec:	1e4a      	subs	r2, r1, #1
 80040ee:	1e63      	subs	r3, r4, #1
 80040f0:	f812 5f01 	ldrb.w	r5, [r2, #1]!
 80040f4:	b14d      	cbz	r5, 800410a <strstr+0x2e>
 80040f6:	f813 7f01 	ldrb.w	r7, [r3, #1]!
 80040fa:	42af      	cmp	r7, r5
 80040fc:	4634      	mov	r4, r6
 80040fe:	d0f7      	beq.n	80040f0 <strstr+0x14>
 8004100:	e7f0      	b.n	80040e4 <strstr+0x8>
 8004102:	780b      	ldrb	r3, [r1, #0]
 8004104:	2b00      	cmp	r3, #0
 8004106:	bf18      	it	ne
 8004108:	2000      	movne	r0, #0
 800410a:	bdf0      	pop	{r4, r5, r6, r7, pc}
 800410c:	4618      	mov	r0, r3
 800410e:	e7fc      	b.n	800410a <strstr+0x2e>

08004110 <quorem>:
 8004110:	e92d 4ff7 	stmdb	sp!, {r0, r1, r2, r4, r5, r6, r7, r8, r9, sl, fp, lr}
 8004114:	6903      	ldr	r3, [r0, #16]
 8004116:	690c      	ldr	r4, [r1, #16]
 8004118:	42a3      	cmp	r3, r4
 800411a:	4680      	mov	r8, r0
 800411c:	f2c0 8082 	blt.w	8004224 <quorem+0x114>
 8004120:	3c01      	subs	r4, #1
 8004122:	f101 0714 	add.w	r7, r1, #20
 8004126:	ea4f 0c84 	mov.w	ip, r4, lsl #2
 800412a:	f100 0614 	add.w	r6, r0, #20
 800412e:	f857 5024 	ldr.w	r5, [r7, r4, lsl #2]
 8004132:	f856 0024 	ldr.w	r0, [r6, r4, lsl #2]
 8004136:	eb06 030c 	add.w	r3, r6, ip
 800413a:	3501      	adds	r5, #1
 800413c:	eb07 090c 	add.w	r9, r7, ip
 8004140:	9301      	str	r3, [sp, #4]
 8004142:	fbb0 f5f5 	udiv	r5, r0, r5
 8004146:	b395      	cbz	r5, 80041ae <quorem+0x9e>
 8004148:	f04f 0a00 	mov.w	sl, #0
 800414c:	4638      	mov	r0, r7
 800414e:	46b6      	mov	lr, r6
 8004150:	46d3      	mov	fp, sl
 8004152:	f850 2b04 	ldr.w	r2, [r0], #4
 8004156:	b293      	uxth	r3, r2
 8004158:	fb05 a303 	mla	r3, r5, r3, sl
 800415c:	ea4f 4a13 	mov.w	sl, r3, lsr #16
 8004160:	b29b      	uxth	r3, r3
 8004162:	ebab 0303 	sub.w	r3, fp, r3
 8004166:	0c12      	lsrs	r2, r2, #16
 8004168:	f8de b000 	ldr.w	fp, [lr]
 800416c:	fb05 a202 	mla	r2, r5, r2, sl
 8004170:	fa13 f38b 	uxtah	r3, r3, fp
 8004174:	ea4f 4a12 	mov.w	sl, r2, lsr #16
 8004178:	fa1f fb82 	uxth.w	fp, r2
 800417c:	f8de 2000 	ldr.w	r2, [lr]
 8004180:	ebcb 4212 	rsb	r2, fp, r2, lsr #16
 8004184:	eb02 4223 	add.w	r2, r2, r3, asr #16
 8004188:	b29b      	uxth	r3, r3
 800418a:	ea43 4302 	orr.w	r3, r3, r2, lsl #16
 800418e:	4581      	cmp	r9, r0
 8004190:	ea4f 4b22 	mov.w	fp, r2, asr #16
 8004194:	f84e 3b04 	str.w	r3, [lr], #4
 8004198:	d2db      	bcs.n	8004152 <quorem+0x42>
 800419a:	f856 300c 	ldr.w	r3, [r6, ip]
 800419e:	b933      	cbnz	r3, 80041ae <quorem+0x9e>
 80041a0:	9b01      	ldr	r3, [sp, #4]
 80041a2:	3b04      	subs	r3, #4
 80041a4:	429e      	cmp	r6, r3
 80041a6:	461a      	mov	r2, r3
 80041a8:	d330      	bcc.n	800420c <quorem+0xfc>
 80041aa:	f8c8 4010 	str.w	r4, [r8, #16]
 80041ae:	4640      	mov	r0, r8
 80041b0:	f001 f828 	bl	8005204 <__mcmp>
 80041b4:	2800      	cmp	r0, #0
 80041b6:	db25      	blt.n	8004204 <quorem+0xf4>
 80041b8:	3501      	adds	r5, #1
 80041ba:	4630      	mov	r0, r6
 80041bc:	f04f 0c00 	mov.w	ip, #0
 80041c0:	f857 2b04 	ldr.w	r2, [r7], #4
 80041c4:	f8d0 e000 	ldr.w	lr, [r0]
 80041c8:	b293      	uxth	r3, r2
 80041ca:	ebac 0303 	sub.w	r3, ip, r3
 80041ce:	0c12      	lsrs	r2, r2, #16
 80041d0:	fa13 f38e 	uxtah	r3, r3, lr
 80041d4:	ebc2 421e 	rsb	r2, r2, lr, lsr #16
 80041d8:	eb02 4223 	add.w	r2, r2, r3, asr #16
 80041dc:	b29b      	uxth	r3, r3
 80041de:	ea43 4302 	orr.w	r3, r3, r2, lsl #16
 80041e2:	45b9      	cmp	r9, r7
 80041e4:	ea4f 4c22 	mov.w	ip, r2, asr #16
 80041e8:	f840 3b04 	str.w	r3, [r0], #4
 80041ec:	d2e8      	bcs.n	80041c0 <quorem+0xb0>
 80041ee:	f856 2024 	ldr.w	r2, [r6, r4, lsl #2]
 80041f2:	eb06 0384 	add.w	r3, r6, r4, lsl #2
 80041f6:	b92a      	cbnz	r2, 8004204 <quorem+0xf4>
 80041f8:	3b04      	subs	r3, #4
 80041fa:	429e      	cmp	r6, r3
 80041fc:	461a      	mov	r2, r3
 80041fe:	d30b      	bcc.n	8004218 <quorem+0x108>
 8004200:	f8c8 4010 	str.w	r4, [r8, #16]
 8004204:	4628      	mov	r0, r5
 8004206:	b003      	add	sp, #12
 8004208:	e8bd 8ff0 	ldmia.w	sp!, {r4, r5, r6, r7, r8, r9, sl, fp, pc}
 800420c:	6812      	ldr	r2, [r2, #0]
 800420e:	3b04      	subs	r3, #4
 8004210:	2a00      	cmp	r2, #0
 8004212:	d1ca      	bne.n	80041aa <quorem+0x9a>
 8004214:	3c01      	subs	r4, #1
 8004216:	e7c5      	b.n	80041a4 <quorem+0x94>
 8004218:	6812      	ldr	r2, [r2, #0]
 800421a:	3b04      	subs	r3, #4
 800421c:	2a00      	cmp	r2, #0
 800421e:	d1ef      	bne.n	8004200 <quorem+0xf0>
 8004220:	3c01      	subs	r4, #1
 8004222:	e7ea      	b.n	80041fa <quorem+0xea>
 8004224:	2000      	movs	r0, #0
 8004226:	e7ee      	b.n	8004206 <quorem+0xf6>

08004228 <_dtoa_r>:
 8004228:	e92d 4ff0 	stmdb	sp!, {r4, r5, r6, r7, r8, r9, sl, fp, lr}
 800422c:	ec57 6b10 	vmov	r6, r7, d0
 8004230:	b097      	sub	sp, #92	; 0x5c
 8004232:	6a45      	ldr	r5, [r0, #36]	; 0x24
 8004234:	9106      	str	r1, [sp, #24]
 8004236:	4604      	mov	r4, r0
 8004238:	920b      	str	r2, [sp, #44]	; 0x2c
 800423a:	9312      	str	r3, [sp, #72]	; 0x48
 800423c:	f8dd 8080 	ldr.w	r8, [sp, #128]	; 0x80
 8004240:	e9cd 6700 	strd	r6, r7, [sp]
 8004244:	b93d      	cbnz	r5, 8004256 <_dtoa_r+0x2e>
 8004246:	2010      	movs	r0, #16
 8004248:	f000 fdb4 	bl	8004db4 <malloc>
 800424c:	6260      	str	r0, [r4, #36]	; 0x24
 800424e:	e9c0 5501 	strd	r5, r5, [r0, #4]
 8004252:	6005      	str	r5, [r0, #0]
 8004254:	60c5      	str	r5, [r0, #12]
 8004256:	6a63      	ldr	r3, [r4, #36]	; 0x24
 8004258:	6819      	ldr	r1, [r3, #0]
 800425a:	b151      	cbz	r1, 8004272 <_dtoa_r+0x4a>
 800425c:	685a      	ldr	r2, [r3, #4]
 800425e:	604a      	str	r2, [r1, #4]
 8004260:	2301      	movs	r3, #1
 8004262:	4093      	lsls	r3, r2
 8004264:	608b      	str	r3, [r1, #8]
 8004266:	4620      	mov	r0, r4
 8004268:	f000 fdeb 	bl	8004e42 <_Bfree>
 800426c:	6a63      	ldr	r3, [r4, #36]	; 0x24
 800426e:	2200      	movs	r2, #0
 8004270:	601a      	str	r2, [r3, #0]
 8004272:	1e3b      	subs	r3, r7, #0
 8004274:	bfbb      	ittet	lt
 8004276:	f023 4300 	biclt.w	r3, r3, #2147483648	; 0x80000000
 800427a:	9301      	strlt	r3, [sp, #4]
 800427c:	2300      	movge	r3, #0
 800427e:	2201      	movlt	r2, #1
 8004280:	bfac      	ite	ge
 8004282:	f8c8 3000 	strge.w	r3, [r8]
 8004286:	f8c8 2000 	strlt.w	r2, [r8]
 800428a:	4baf      	ldr	r3, [pc, #700]	; (8004548 <_dtoa_r+0x320>)
 800428c:	f8dd 8004 	ldr.w	r8, [sp, #4]
 8004290:	ea33 0308 	bics.w	r3, r3, r8
 8004294:	d114      	bne.n	80042c0 <_dtoa_r+0x98>
 8004296:	9a12      	ldr	r2, [sp, #72]	; 0x48
 8004298:	f242 730f 	movw	r3, #9999	; 0x270f
 800429c:	6013      	str	r3, [r2, #0]
 800429e:	9b00      	ldr	r3, [sp, #0]
 80042a0:	b923      	cbnz	r3, 80042ac <_dtoa_r+0x84>
 80042a2:	f3c8 0013 	ubfx	r0, r8, #0, #20
 80042a6:	2800      	cmp	r0, #0
 80042a8:	f000 8542 	beq.w	8004d30 <_dtoa_r+0xb08>
 80042ac:	9b21      	ldr	r3, [sp, #132]	; 0x84
 80042ae:	f8df b2ac 	ldr.w	fp, [pc, #684]	; 800455c <_dtoa_r+0x334>
 80042b2:	2b00      	cmp	r3, #0
 80042b4:	f000 8544 	beq.w	8004d40 <_dtoa_r+0xb18>
 80042b8:	f10b 0303 	add.w	r3, fp, #3
 80042bc:	f000 bd3e 	b.w	8004d3c <_dtoa_r+0xb14>
 80042c0:	e9dd 6700 	ldrd	r6, r7, [sp]
 80042c4:	2200      	movs	r2, #0
 80042c6:	2300      	movs	r3, #0
 80042c8:	4630      	mov	r0, r6
 80042ca:	4639      	mov	r1, r7
 80042cc:	f7fc fbfc 	bl	8000ac8 <__aeabi_dcmpeq>
 80042d0:	4681      	mov	r9, r0
 80042d2:	b168      	cbz	r0, 80042f0 <_dtoa_r+0xc8>
 80042d4:	9a12      	ldr	r2, [sp, #72]	; 0x48
 80042d6:	2301      	movs	r3, #1
 80042d8:	6013      	str	r3, [r2, #0]
 80042da:	9b21      	ldr	r3, [sp, #132]	; 0x84
 80042dc:	2b00      	cmp	r3, #0
 80042de:	f000 8524 	beq.w	8004d2a <_dtoa_r+0xb02>
 80042e2:	4b9a      	ldr	r3, [pc, #616]	; (800454c <_dtoa_r+0x324>)
 80042e4:	9a21      	ldr	r2, [sp, #132]	; 0x84
 80042e6:	f103 3bff 	add.w	fp, r3, #4294967295
 80042ea:	6013      	str	r3, [r2, #0]
 80042ec:	f000 bd28 	b.w	8004d40 <_dtoa_r+0xb18>
 80042f0:	aa14      	add	r2, sp, #80	; 0x50
 80042f2:	a915      	add	r1, sp, #84	; 0x54
 80042f4:	ec47 6b10 	vmov	d0, r6, r7
 80042f8:	4620      	mov	r0, r4
 80042fa:	f000 fffa 	bl	80052f2 <__d2b>
 80042fe:	f3c8 550a 	ubfx	r5, r8, #20, #11
 8004302:	9004      	str	r0, [sp, #16]
 8004304:	2d00      	cmp	r5, #0
 8004306:	d07c      	beq.n	8004402 <_dtoa_r+0x1da>
 8004308:	f3c7 0313 	ubfx	r3, r7, #0, #20
 800430c:	f043 5b7f 	orr.w	fp, r3, #1069547520	; 0x3fc00000
 8004310:	46b2      	mov	sl, r6
 8004312:	f44b 1b40 	orr.w	fp, fp, #3145728	; 0x300000
 8004316:	f2a5 35ff 	subw	r5, r5, #1023	; 0x3ff
 800431a:	f8cd 904c 	str.w	r9, [sp, #76]	; 0x4c
 800431e:	2200      	movs	r2, #0
 8004320:	4b8b      	ldr	r3, [pc, #556]	; (8004550 <_dtoa_r+0x328>)
 8004322:	4650      	mov	r0, sl
 8004324:	4659      	mov	r1, fp
 8004326:	f7fb ffaf 	bl	8000288 <__aeabi_dsub>
 800432a:	a381      	add	r3, pc, #516	; (adr r3, 8004530 <_dtoa_r+0x308>)
 800432c:	e9d3 2300 	ldrd	r2, r3, [r3]
 8004330:	f7fc f962 	bl	80005f8 <__aeabi_dmul>
 8004334:	a380      	add	r3, pc, #512	; (adr r3, 8004538 <_dtoa_r+0x310>)
 8004336:	e9d3 2300 	ldrd	r2, r3, [r3]
 800433a:	f7fb ffa7 	bl	800028c <__adddf3>
 800433e:	4606      	mov	r6, r0
 8004340:	4628      	mov	r0, r5
 8004342:	460f      	mov	r7, r1
 8004344:	f7fc f8ee 	bl	8000524 <__aeabi_i2d>
 8004348:	a37d      	add	r3, pc, #500	; (adr r3, 8004540 <_dtoa_r+0x318>)
 800434a:	e9d3 2300 	ldrd	r2, r3, [r3]
 800434e:	f7fc f953 	bl	80005f8 <__aeabi_dmul>
 8004352:	4602      	mov	r2, r0
 8004354:	460b      	mov	r3, r1
 8004356:	4630      	mov	r0, r6
 8004358:	4639      	mov	r1, r7
 800435a:	f7fb ff97 	bl	800028c <__adddf3>
 800435e:	4606      	mov	r6, r0
 8004360:	460f      	mov	r7, r1
 8004362:	f7fc fbf9 	bl	8000b58 <__aeabi_d2iz>
 8004366:	2200      	movs	r2, #0
 8004368:	4682      	mov	sl, r0
 800436a:	2300      	movs	r3, #0
 800436c:	4630      	mov	r0, r6
 800436e:	4639      	mov	r1, r7
 8004370:	f7fc fbb4 	bl	8000adc <__aeabi_dcmplt>
 8004374:	b148      	cbz	r0, 800438a <_dtoa_r+0x162>
 8004376:	4650      	mov	r0, sl
 8004378:	f7fc f8d4 	bl	8000524 <__aeabi_i2d>
 800437c:	4632      	mov	r2, r6
 800437e:	463b      	mov	r3, r7
 8004380:	f7fc fba2 	bl	8000ac8 <__aeabi_dcmpeq>
 8004384:	b908      	cbnz	r0, 800438a <_dtoa_r+0x162>
 8004386:	f10a 3aff 	add.w	sl, sl, #4294967295
 800438a:	f1ba 0f16 	cmp.w	sl, #22
 800438e:	d859      	bhi.n	8004444 <_dtoa_r+0x21c>
 8004390:	4970      	ldr	r1, [pc, #448]	; (8004554 <_dtoa_r+0x32c>)
 8004392:	eb01 01ca 	add.w	r1, r1, sl, lsl #3
 8004396:	e9dd 2300 	ldrd	r2, r3, [sp]
 800439a:	e9d1 0100 	ldrd	r0, r1, [r1]
 800439e:	f7fc fbbb 	bl	8000b18 <__aeabi_dcmpgt>
 80043a2:	2800      	cmp	r0, #0
 80043a4:	d050      	beq.n	8004448 <_dtoa_r+0x220>
 80043a6:	f10a 3aff 	add.w	sl, sl, #4294967295
 80043aa:	2300      	movs	r3, #0
 80043ac:	930f      	str	r3, [sp, #60]	; 0x3c
 80043ae:	9b14      	ldr	r3, [sp, #80]	; 0x50
 80043b0:	1b5d      	subs	r5, r3, r5
 80043b2:	f1b5 0801 	subs.w	r8, r5, #1
 80043b6:	bf49      	itett	mi
 80043b8:	f1c5 0301 	rsbmi	r3, r5, #1
 80043bc:	2300      	movpl	r3, #0
 80043be:	9305      	strmi	r3, [sp, #20]
 80043c0:	f04f 0800 	movmi.w	r8, #0
 80043c4:	bf58      	it	pl
 80043c6:	9305      	strpl	r3, [sp, #20]
 80043c8:	f1ba 0f00 	cmp.w	sl, #0
 80043cc:	db3e      	blt.n	800444c <_dtoa_r+0x224>
 80043ce:	2300      	movs	r3, #0
 80043d0:	44d0      	add	r8, sl
 80043d2:	f8cd a038 	str.w	sl, [sp, #56]	; 0x38
 80043d6:	9307      	str	r3, [sp, #28]
 80043d8:	9b06      	ldr	r3, [sp, #24]
 80043da:	2b09      	cmp	r3, #9
 80043dc:	f200 8090 	bhi.w	8004500 <_dtoa_r+0x2d8>
 80043e0:	2b05      	cmp	r3, #5
 80043e2:	bfc4      	itt	gt
 80043e4:	3b04      	subgt	r3, #4
 80043e6:	9306      	strgt	r3, [sp, #24]
 80043e8:	9b06      	ldr	r3, [sp, #24]
 80043ea:	f1a3 0302 	sub.w	r3, r3, #2
 80043ee:	bfcc      	ite	gt
 80043f0:	2500      	movgt	r5, #0
 80043f2:	2501      	movle	r5, #1
 80043f4:	2b03      	cmp	r3, #3
 80043f6:	f200 808f 	bhi.w	8004518 <_dtoa_r+0x2f0>
 80043fa:	e8df f003 	tbb	[pc, r3]
 80043fe:	7f7d      	.short	0x7f7d
 8004400:	7131      	.short	0x7131
 8004402:	e9dd 5314 	ldrd	r5, r3, [sp, #80]	; 0x50
 8004406:	441d      	add	r5, r3
 8004408:	f205 4032 	addw	r0, r5, #1074	; 0x432
 800440c:	2820      	cmp	r0, #32
 800440e:	dd13      	ble.n	8004438 <_dtoa_r+0x210>
 8004410:	f1c0 0040 	rsb	r0, r0, #64	; 0x40
 8004414:	9b00      	ldr	r3, [sp, #0]
 8004416:	fa08 f800 	lsl.w	r8, r8, r0
 800441a:	f205 4012 	addw	r0, r5, #1042	; 0x412
 800441e:	fa23 f000 	lsr.w	r0, r3, r0
 8004422:	ea48 0000 	orr.w	r0, r8, r0
 8004426:	f7fc f86d 	bl	8000504 <__aeabi_ui2d>
 800442a:	2301      	movs	r3, #1
 800442c:	4682      	mov	sl, r0
 800442e:	f1a1 7bf8 	sub.w	fp, r1, #32505856	; 0x1f00000
 8004432:	3d01      	subs	r5, #1
 8004434:	9313      	str	r3, [sp, #76]	; 0x4c
 8004436:	e772      	b.n	800431e <_dtoa_r+0xf6>
 8004438:	9b00      	ldr	r3, [sp, #0]
 800443a:	f1c0 0020 	rsb	r0, r0, #32
 800443e:	fa03 f000 	lsl.w	r0, r3, r0
 8004442:	e7f0      	b.n	8004426 <_dtoa_r+0x1fe>
 8004444:	2301      	movs	r3, #1
 8004446:	e7b1      	b.n	80043ac <_dtoa_r+0x184>
 8004448:	900f      	str	r0, [sp, #60]	; 0x3c
 800444a:	e7b0      	b.n	80043ae <_dtoa_r+0x186>
 800444c:	9b05      	ldr	r3, [sp, #20]
 800444e:	eba3 030a 	sub.w	r3, r3, sl
 8004452:	9305      	str	r3, [sp, #20]
 8004454:	f1ca 0300 	rsb	r3, sl, #0
 8004458:	9307      	str	r3, [sp, #28]
 800445a:	2300      	movs	r3, #0
 800445c:	930e      	str	r3, [sp, #56]	; 0x38
 800445e:	e7bb      	b.n	80043d8 <_dtoa_r+0x1b0>
 8004460:	2301      	movs	r3, #1
 8004462:	930a      	str	r3, [sp, #40]	; 0x28
 8004464:	9b0b      	ldr	r3, [sp, #44]	; 0x2c
 8004466:	2b00      	cmp	r3, #0
 8004468:	dd59      	ble.n	800451e <_dtoa_r+0x2f6>
 800446a:	9302      	str	r3, [sp, #8]
 800446c:	4699      	mov	r9, r3
 800446e:	6a66      	ldr	r6, [r4, #36]	; 0x24
 8004470:	2200      	movs	r2, #0
 8004472:	6072      	str	r2, [r6, #4]
 8004474:	2204      	movs	r2, #4
 8004476:	f102 0014 	add.w	r0, r2, #20
 800447a:	4298      	cmp	r0, r3
 800447c:	6871      	ldr	r1, [r6, #4]
 800447e:	d953      	bls.n	8004528 <_dtoa_r+0x300>
 8004480:	4620      	mov	r0, r4
 8004482:	f000 fcaa 	bl	8004dda <_Balloc>
 8004486:	6a63      	ldr	r3, [r4, #36]	; 0x24
 8004488:	6030      	str	r0, [r6, #0]
 800448a:	f1b9 0f0e 	cmp.w	r9, #14
 800448e:	f8d3 b000 	ldr.w	fp, [r3]
 8004492:	f200 80e6 	bhi.w	8004662 <_dtoa_r+0x43a>
 8004496:	2d00      	cmp	r5, #0
 8004498:	f000 80e3 	beq.w	8004662 <_dtoa_r+0x43a>
 800449c:	ed9d 7b00 	vldr	d7, [sp]
 80044a0:	f1ba 0f00 	cmp.w	sl, #0
 80044a4:	ed8d 7b10 	vstr	d7, [sp, #64]	; 0x40
 80044a8:	dd74      	ble.n	8004594 <_dtoa_r+0x36c>
 80044aa:	4a2a      	ldr	r2, [pc, #168]	; (8004554 <_dtoa_r+0x32c>)
 80044ac:	f00a 030f 	and.w	r3, sl, #15
 80044b0:	eb02 03c3 	add.w	r3, r2, r3, lsl #3
 80044b4:	ed93 7b00 	vldr	d7, [r3]
 80044b8:	ea4f 162a 	mov.w	r6, sl, asr #4
 80044bc:	06f0      	lsls	r0, r6, #27
 80044be:	ed8d 7b08 	vstr	d7, [sp, #32]
 80044c2:	d565      	bpl.n	8004590 <_dtoa_r+0x368>
 80044c4:	4b24      	ldr	r3, [pc, #144]	; (8004558 <_dtoa_r+0x330>)
 80044c6:	e9dd 0110 	ldrd	r0, r1, [sp, #64]	; 0x40
 80044ca:	e9d3 2308 	ldrd	r2, r3, [r3, #32]
 80044ce:	f7fc f9bd 	bl	800084c <__aeabi_ddiv>
 80044d2:	e9cd 0100 	strd	r0, r1, [sp]
 80044d6:	f006 060f 	and.w	r6, r6, #15
 80044da:	2503      	movs	r5, #3
 80044dc:	4f1e      	ldr	r7, [pc, #120]	; (8004558 <_dtoa_r+0x330>)
 80044de:	e04c      	b.n	800457a <_dtoa_r+0x352>
 80044e0:	2301      	movs	r3, #1
 80044e2:	930a      	str	r3, [sp, #40]	; 0x28
 80044e4:	9b0b      	ldr	r3, [sp, #44]	; 0x2c
 80044e6:	4453      	add	r3, sl
 80044e8:	f103 0901 	add.w	r9, r3, #1
 80044ec:	9302      	str	r3, [sp, #8]
 80044ee:	464b      	mov	r3, r9
 80044f0:	2b01      	cmp	r3, #1
 80044f2:	bfb8      	it	lt
 80044f4:	2301      	movlt	r3, #1
 80044f6:	e7ba      	b.n	800446e <_dtoa_r+0x246>
 80044f8:	2300      	movs	r3, #0
 80044fa:	e7b2      	b.n	8004462 <_dtoa_r+0x23a>
 80044fc:	2300      	movs	r3, #0
 80044fe:	e7f0      	b.n	80044e2 <_dtoa_r+0x2ba>
 8004500:	2501      	movs	r5, #1
 8004502:	2300      	movs	r3, #0
 8004504:	9306      	str	r3, [sp, #24]
 8004506:	950a      	str	r5, [sp, #40]	; 0x28
 8004508:	f04f 33ff 	mov.w	r3, #4294967295
 800450c:	9302      	str	r3, [sp, #8]
 800450e:	4699      	mov	r9, r3
 8004510:	2200      	movs	r2, #0
 8004512:	2312      	movs	r3, #18
 8004514:	920b      	str	r2, [sp, #44]	; 0x2c
 8004516:	e7aa      	b.n	800446e <_dtoa_r+0x246>
 8004518:	2301      	movs	r3, #1
 800451a:	930a      	str	r3, [sp, #40]	; 0x28
 800451c:	e7f4      	b.n	8004508 <_dtoa_r+0x2e0>
 800451e:	2301      	movs	r3, #1
 8004520:	9302      	str	r3, [sp, #8]
 8004522:	4699      	mov	r9, r3
 8004524:	461a      	mov	r2, r3
 8004526:	e7f5      	b.n	8004514 <_dtoa_r+0x2ec>
 8004528:	3101      	adds	r1, #1
 800452a:	6071      	str	r1, [r6, #4]
 800452c:	0052      	lsls	r2, r2, #1
 800452e:	e7a2      	b.n	8004476 <_dtoa_r+0x24e>
 8004530:	636f4361 	.word	0x636f4361
 8004534:	3fd287a7 	.word	0x3fd287a7
 8004538:	8b60c8b3 	.word	0x8b60c8b3
 800453c:	3fc68a28 	.word	0x3fc68a28
 8004540:	509f79fb 	.word	0x509f79fb
 8004544:	3fd34413 	.word	0x3fd34413
 8004548:	7ff00000 	.word	0x7ff00000
 800454c:	0800641c 	.word	0x0800641c
 8004550:	3ff80000 	.word	0x3ff80000
 8004554:	08006320 	.word	0x08006320
 8004558:	080062f8 	.word	0x080062f8
 800455c:	080062f2 	.word	0x080062f2
 8004560:	07f1      	lsls	r1, r6, #31
 8004562:	d508      	bpl.n	8004576 <_dtoa_r+0x34e>
 8004564:	e9dd 0108 	ldrd	r0, r1, [sp, #32]
 8004568:	e9d7 2300 	ldrd	r2, r3, [r7]
 800456c:	f7fc f844 	bl	80005f8 <__aeabi_dmul>
 8004570:	e9cd 0108 	strd	r0, r1, [sp, #32]
 8004574:	3501      	adds	r5, #1
 8004576:	1076      	asrs	r6, r6, #1
 8004578:	3708      	adds	r7, #8
 800457a:	2e00      	cmp	r6, #0
 800457c:	d1f0      	bne.n	8004560 <_dtoa_r+0x338>
 800457e:	e9dd 2308 	ldrd	r2, r3, [sp, #32]
 8004582:	e9dd 0100 	ldrd	r0, r1, [sp]
 8004586:	f7fc f961 	bl	800084c <__aeabi_ddiv>
 800458a:	e9cd 0100 	strd	r0, r1, [sp]
 800458e:	e01a      	b.n	80045c6 <_dtoa_r+0x39e>
 8004590:	2502      	movs	r5, #2
 8004592:	e7a3      	b.n	80044dc <_dtoa_r+0x2b4>
 8004594:	f000 80a0 	beq.w	80046d8 <_dtoa_r+0x4b0>
 8004598:	f1ca 0600 	rsb	r6, sl, #0
 800459c:	4b9f      	ldr	r3, [pc, #636]	; (800481c <_dtoa_r+0x5f4>)
 800459e:	4fa0      	ldr	r7, [pc, #640]	; (8004820 <_dtoa_r+0x5f8>)
 80045a0:	f006 020f 	and.w	r2, r6, #15
 80045a4:	eb03 03c2 	add.w	r3, r3, r2, lsl #3
 80045a8:	e9d3 2300 	ldrd	r2, r3, [r3]
 80045ac:	e9dd 0110 	ldrd	r0, r1, [sp, #64]	; 0x40
 80045b0:	f7fc f822 	bl	80005f8 <__aeabi_dmul>
 80045b4:	e9cd 0100 	strd	r0, r1, [sp]
 80045b8:	1136      	asrs	r6, r6, #4
 80045ba:	2300      	movs	r3, #0
 80045bc:	2502      	movs	r5, #2
 80045be:	2e00      	cmp	r6, #0
 80045c0:	d17f      	bne.n	80046c2 <_dtoa_r+0x49a>
 80045c2:	2b00      	cmp	r3, #0
 80045c4:	d1e1      	bne.n	800458a <_dtoa_r+0x362>
 80045c6:	9b0f      	ldr	r3, [sp, #60]	; 0x3c
 80045c8:	2b00      	cmp	r3, #0
 80045ca:	f000 8087 	beq.w	80046dc <_dtoa_r+0x4b4>
 80045ce:	e9dd 6700 	ldrd	r6, r7, [sp]
 80045d2:	2200      	movs	r2, #0
 80045d4:	4b93      	ldr	r3, [pc, #588]	; (8004824 <_dtoa_r+0x5fc>)
 80045d6:	4630      	mov	r0, r6
 80045d8:	4639      	mov	r1, r7
 80045da:	f7fc fa7f 	bl	8000adc <__aeabi_dcmplt>
 80045de:	2800      	cmp	r0, #0
 80045e0:	d07c      	beq.n	80046dc <_dtoa_r+0x4b4>
 80045e2:	f1b9 0f00 	cmp.w	r9, #0
 80045e6:	d079      	beq.n	80046dc <_dtoa_r+0x4b4>
 80045e8:	9b02      	ldr	r3, [sp, #8]
 80045ea:	2b00      	cmp	r3, #0
 80045ec:	dd35      	ble.n	800465a <_dtoa_r+0x432>
 80045ee:	f10a 33ff 	add.w	r3, sl, #4294967295
 80045f2:	9308      	str	r3, [sp, #32]
 80045f4:	4639      	mov	r1, r7
 80045f6:	2200      	movs	r2, #0
 80045f8:	4b8b      	ldr	r3, [pc, #556]	; (8004828 <_dtoa_r+0x600>)
 80045fa:	4630      	mov	r0, r6
 80045fc:	f7fb fffc 	bl	80005f8 <__aeabi_dmul>
 8004600:	e9cd 0100 	strd	r0, r1, [sp]
 8004604:	9f02      	ldr	r7, [sp, #8]
 8004606:	3501      	adds	r5, #1
 8004608:	4628      	mov	r0, r5
 800460a:	f7fb ff8b 	bl	8000524 <__aeabi_i2d>
 800460e:	e9dd 2300 	ldrd	r2, r3, [sp]
 8004612:	f7fb fff1 	bl	80005f8 <__aeabi_dmul>
 8004616:	2200      	movs	r2, #0
 8004618:	4b84      	ldr	r3, [pc, #528]	; (800482c <_dtoa_r+0x604>)
 800461a:	f7fb fe37 	bl	800028c <__adddf3>
 800461e:	4605      	mov	r5, r0
 8004620:	f1a1 7650 	sub.w	r6, r1, #54525952	; 0x3400000
 8004624:	2f00      	cmp	r7, #0
 8004626:	d15d      	bne.n	80046e4 <_dtoa_r+0x4bc>
 8004628:	2200      	movs	r2, #0
 800462a:	4b81      	ldr	r3, [pc, #516]	; (8004830 <_dtoa_r+0x608>)
 800462c:	e9dd 0100 	ldrd	r0, r1, [sp]
 8004630:	f7fb fe2a 	bl	8000288 <__aeabi_dsub>
 8004634:	462a      	mov	r2, r5
 8004636:	4633      	mov	r3, r6
 8004638:	e9cd 0100 	strd	r0, r1, [sp]
 800463c:	f7fc fa6c 	bl	8000b18 <__aeabi_dcmpgt>
 8004640:	2800      	cmp	r0, #0
 8004642:	f040 8288 	bne.w	8004b56 <_dtoa_r+0x92e>
 8004646:	462a      	mov	r2, r5
 8004648:	f106 4300 	add.w	r3, r6, #2147483648	; 0x80000000
 800464c:	e9dd 0100 	ldrd	r0, r1, [sp]
 8004650:	f7fc fa44 	bl	8000adc <__aeabi_dcmplt>
 8004654:	2800      	cmp	r0, #0
 8004656:	f040 827c 	bne.w	8004b52 <_dtoa_r+0x92a>
 800465a:	e9dd 2310 	ldrd	r2, r3, [sp, #64]	; 0x40
 800465e:	e9cd 2300 	strd	r2, r3, [sp]
 8004662:	9b15      	ldr	r3, [sp, #84]	; 0x54
 8004664:	2b00      	cmp	r3, #0
 8004666:	f2c0 8150 	blt.w	800490a <_dtoa_r+0x6e2>
 800466a:	f1ba 0f0e 	cmp.w	sl, #14
 800466e:	f300 814c 	bgt.w	800490a <_dtoa_r+0x6e2>
 8004672:	4b6a      	ldr	r3, [pc, #424]	; (800481c <_dtoa_r+0x5f4>)
 8004674:	eb03 03ca 	add.w	r3, r3, sl, lsl #3
 8004678:	ed93 7b00 	vldr	d7, [r3]
 800467c:	9b0b      	ldr	r3, [sp, #44]	; 0x2c
 800467e:	2b00      	cmp	r3, #0
 8004680:	ed8d 7b02 	vstr	d7, [sp, #8]
 8004684:	f280 80d8 	bge.w	8004838 <_dtoa_r+0x610>
 8004688:	f1b9 0f00 	cmp.w	r9, #0
 800468c:	f300 80d4 	bgt.w	8004838 <_dtoa_r+0x610>
 8004690:	f040 825e 	bne.w	8004b50 <_dtoa_r+0x928>
 8004694:	2200      	movs	r2, #0
 8004696:	4b66      	ldr	r3, [pc, #408]	; (8004830 <_dtoa_r+0x608>)
 8004698:	ec51 0b17 	vmov	r0, r1, d7
 800469c:	f7fb ffac 	bl	80005f8 <__aeabi_dmul>
 80046a0:	e9dd 2300 	ldrd	r2, r3, [sp]
 80046a4:	f7fc fa2e 	bl	8000b04 <__aeabi_dcmpge>
 80046a8:	464f      	mov	r7, r9
 80046aa:	464e      	mov	r6, r9
 80046ac:	2800      	cmp	r0, #0
 80046ae:	f040 8234 	bne.w	8004b1a <_dtoa_r+0x8f2>
 80046b2:	2331      	movs	r3, #49	; 0x31
 80046b4:	f10b 0501 	add.w	r5, fp, #1
 80046b8:	f88b 3000 	strb.w	r3, [fp]
 80046bc:	f10a 0a01 	add.w	sl, sl, #1
 80046c0:	e22f      	b.n	8004b22 <_dtoa_r+0x8fa>
 80046c2:	07f2      	lsls	r2, r6, #31
 80046c4:	d505      	bpl.n	80046d2 <_dtoa_r+0x4aa>
 80046c6:	e9d7 2300 	ldrd	r2, r3, [r7]
 80046ca:	f7fb ff95 	bl	80005f8 <__aeabi_dmul>
 80046ce:	3501      	adds	r5, #1
 80046d0:	2301      	movs	r3, #1
 80046d2:	1076      	asrs	r6, r6, #1
 80046d4:	3708      	adds	r7, #8
 80046d6:	e772      	b.n	80045be <_dtoa_r+0x396>
 80046d8:	2502      	movs	r5, #2
 80046da:	e774      	b.n	80045c6 <_dtoa_r+0x39e>
 80046dc:	f8cd a020 	str.w	sl, [sp, #32]
 80046e0:	464f      	mov	r7, r9
 80046e2:	e791      	b.n	8004608 <_dtoa_r+0x3e0>
 80046e4:	4b4d      	ldr	r3, [pc, #308]	; (800481c <_dtoa_r+0x5f4>)
 80046e6:	eb03 03c7 	add.w	r3, r3, r7, lsl #3
 80046ea:	e953 0102 	ldrd	r0, r1, [r3, #-8]
 80046ee:	9b0a      	ldr	r3, [sp, #40]	; 0x28
 80046f0:	2b00      	cmp	r3, #0
 80046f2:	d047      	beq.n	8004784 <_dtoa_r+0x55c>
 80046f4:	4602      	mov	r2, r0
 80046f6:	460b      	mov	r3, r1
 80046f8:	2000      	movs	r0, #0
 80046fa:	494e      	ldr	r1, [pc, #312]	; (8004834 <_dtoa_r+0x60c>)
 80046fc:	f7fc f8a6 	bl	800084c <__aeabi_ddiv>
 8004700:	462a      	mov	r2, r5
 8004702:	4633      	mov	r3, r6
 8004704:	f7fb fdc0 	bl	8000288 <__aeabi_dsub>
 8004708:	e9cd 010c 	strd	r0, r1, [sp, #48]	; 0x30
 800470c:	465d      	mov	r5, fp
 800470e:	e9dd 0100 	ldrd	r0, r1, [sp]
 8004712:	f7fc fa21 	bl	8000b58 <__aeabi_d2iz>
 8004716:	4606      	mov	r6, r0
 8004718:	f7fb ff04 	bl	8000524 <__aeabi_i2d>
 800471c:	4602      	mov	r2, r0
 800471e:	460b      	mov	r3, r1
 8004720:	e9dd 0100 	ldrd	r0, r1, [sp]
 8004724:	f7fb fdb0 	bl	8000288 <__aeabi_dsub>
 8004728:	3630      	adds	r6, #48	; 0x30
 800472a:	f805 6b01 	strb.w	r6, [r5], #1
 800472e:	e9dd 230c 	ldrd	r2, r3, [sp, #48]	; 0x30
 8004732:	e9cd 0100 	strd	r0, r1, [sp]
 8004736:	f7fc f9d1 	bl	8000adc <__aeabi_dcmplt>
 800473a:	2800      	cmp	r0, #0
 800473c:	d163      	bne.n	8004806 <_dtoa_r+0x5de>
 800473e:	e9dd 2300 	ldrd	r2, r3, [sp]
 8004742:	2000      	movs	r0, #0
 8004744:	4937      	ldr	r1, [pc, #220]	; (8004824 <_dtoa_r+0x5fc>)
 8004746:	f7fb fd9f 	bl	8000288 <__aeabi_dsub>
 800474a:	e9dd 230c 	ldrd	r2, r3, [sp, #48]	; 0x30
 800474e:	f7fc f9c5 	bl	8000adc <__aeabi_dcmplt>
 8004752:	2800      	cmp	r0, #0
 8004754:	f040 80b7 	bne.w	80048c6 <_dtoa_r+0x69e>
 8004758:	eba5 030b 	sub.w	r3, r5, fp
 800475c:	429f      	cmp	r7, r3
 800475e:	f77f af7c 	ble.w	800465a <_dtoa_r+0x432>
 8004762:	2200      	movs	r2, #0
 8004764:	4b30      	ldr	r3, [pc, #192]	; (8004828 <_dtoa_r+0x600>)
 8004766:	e9dd 010c 	ldrd	r0, r1, [sp, #48]	; 0x30
 800476a:	f7fb ff45 	bl	80005f8 <__aeabi_dmul>
 800476e:	2200      	movs	r2, #0
 8004770:	e9cd 010c 	strd	r0, r1, [sp, #48]	; 0x30
 8004774:	4b2c      	ldr	r3, [pc, #176]	; (8004828 <_dtoa_r+0x600>)
 8004776:	e9dd 0100 	ldrd	r0, r1, [sp]
 800477a:	f7fb ff3d 	bl	80005f8 <__aeabi_dmul>
 800477e:	e9cd 0100 	strd	r0, r1, [sp]
 8004782:	e7c4      	b.n	800470e <_dtoa_r+0x4e6>
 8004784:	462a      	mov	r2, r5
 8004786:	4633      	mov	r3, r6
 8004788:	f7fb ff36 	bl	80005f8 <__aeabi_dmul>
 800478c:	e9cd 010c 	strd	r0, r1, [sp, #48]	; 0x30
 8004790:	eb0b 0507 	add.w	r5, fp, r7
 8004794:	465e      	mov	r6, fp
 8004796:	e9dd 0100 	ldrd	r0, r1, [sp]
 800479a:	f7fc f9dd 	bl	8000b58 <__aeabi_d2iz>
 800479e:	4607      	mov	r7, r0
 80047a0:	f7fb fec0 	bl	8000524 <__aeabi_i2d>
 80047a4:	3730      	adds	r7, #48	; 0x30
 80047a6:	4602      	mov	r2, r0
 80047a8:	460b      	mov	r3, r1
 80047aa:	e9dd 0100 	ldrd	r0, r1, [sp]
 80047ae:	f7fb fd6b 	bl	8000288 <__aeabi_dsub>
 80047b2:	f806 7b01 	strb.w	r7, [r6], #1
 80047b6:	42ae      	cmp	r6, r5
 80047b8:	e9cd 0100 	strd	r0, r1, [sp]
 80047bc:	f04f 0200 	mov.w	r2, #0
 80047c0:	d126      	bne.n	8004810 <_dtoa_r+0x5e8>
 80047c2:	4b1c      	ldr	r3, [pc, #112]	; (8004834 <_dtoa_r+0x60c>)
 80047c4:	e9dd 010c 	ldrd	r0, r1, [sp, #48]	; 0x30
 80047c8:	f7fb fd60 	bl	800028c <__adddf3>
 80047cc:	4602      	mov	r2, r0
 80047ce:	460b      	mov	r3, r1
 80047d0:	e9dd 0100 	ldrd	r0, r1, [sp]
 80047d4:	f7fc f9a0 	bl	8000b18 <__aeabi_dcmpgt>
 80047d8:	2800      	cmp	r0, #0
 80047da:	d174      	bne.n	80048c6 <_dtoa_r+0x69e>
 80047dc:	e9dd 230c 	ldrd	r2, r3, [sp, #48]	; 0x30
 80047e0:	2000      	movs	r0, #0
 80047e2:	4914      	ldr	r1, [pc, #80]	; (8004834 <_dtoa_r+0x60c>)
 80047e4:	f7fb fd50 	bl	8000288 <__aeabi_dsub>
 80047e8:	4602      	mov	r2, r0
 80047ea:	460b      	mov	r3, r1
 80047ec:	e9dd 0100 	ldrd	r0, r1, [sp]
 80047f0:	f7fc f974 	bl	8000adc <__aeabi_dcmplt>
 80047f4:	2800      	cmp	r0, #0
 80047f6:	f43f af30 	beq.w	800465a <_dtoa_r+0x432>
 80047fa:	f815 3c01 	ldrb.w	r3, [r5, #-1]
 80047fe:	2b30      	cmp	r3, #48	; 0x30
 8004800:	f105 32ff 	add.w	r2, r5, #4294967295
 8004804:	d002      	beq.n	800480c <_dtoa_r+0x5e4>
 8004806:	f8dd a020 	ldr.w	sl, [sp, #32]
 800480a:	e04a      	b.n	80048a2 <_dtoa_r+0x67a>
 800480c:	4615      	mov	r5, r2
 800480e:	e7f4      	b.n	80047fa <_dtoa_r+0x5d2>
 8004810:	4b05      	ldr	r3, [pc, #20]	; (8004828 <_dtoa_r+0x600>)
 8004812:	f7fb fef1 	bl	80005f8 <__aeabi_dmul>
 8004816:	e9cd 0100 	strd	r0, r1, [sp]
 800481a:	e7bc      	b.n	8004796 <_dtoa_r+0x56e>
 800481c:	08006320 	.word	0x08006320
 8004820:	080062f8 	.word	0x080062f8
 8004824:	3ff00000 	.word	0x3ff00000
 8004828:	40240000 	.word	0x40240000
 800482c:	401c0000 	.word	0x401c0000
 8004830:	40140000 	.word	0x40140000
 8004834:	3fe00000 	.word	0x3fe00000
 8004838:	e9dd 6700 	ldrd	r6, r7, [sp]
 800483c:	465d      	mov	r5, fp
 800483e:	e9dd 2302 	ldrd	r2, r3, [sp, #8]
 8004842:	4630      	mov	r0, r6
 8004844:	4639      	mov	r1, r7
 8004846:	f7fc f801 	bl	800084c <__aeabi_ddiv>
 800484a:	f7fc f985 	bl	8000b58 <__aeabi_d2iz>
 800484e:	4680      	mov	r8, r0
 8004850:	f7fb fe68 	bl	8000524 <__aeabi_i2d>
 8004854:	e9dd 2302 	ldrd	r2, r3, [sp, #8]
 8004858:	f7fb fece 	bl	80005f8 <__aeabi_dmul>
 800485c:	4602      	mov	r2, r0
 800485e:	460b      	mov	r3, r1
 8004860:	4630      	mov	r0, r6
 8004862:	4639      	mov	r1, r7
 8004864:	f108 0630 	add.w	r6, r8, #48	; 0x30
 8004868:	f7fb fd0e 	bl	8000288 <__aeabi_dsub>
 800486c:	f805 6b01 	strb.w	r6, [r5], #1
 8004870:	eba5 060b 	sub.w	r6, r5, fp
 8004874:	45b1      	cmp	r9, r6
 8004876:	4602      	mov	r2, r0
 8004878:	460b      	mov	r3, r1
 800487a:	d139      	bne.n	80048f0 <_dtoa_r+0x6c8>
 800487c:	f7fb fd06 	bl	800028c <__adddf3>
 8004880:	e9dd 2302 	ldrd	r2, r3, [sp, #8]
 8004884:	4606      	mov	r6, r0
 8004886:	460f      	mov	r7, r1
 8004888:	f7fc f946 	bl	8000b18 <__aeabi_dcmpgt>
 800488c:	b9c8      	cbnz	r0, 80048c2 <_dtoa_r+0x69a>
 800488e:	e9dd 2302 	ldrd	r2, r3, [sp, #8]
 8004892:	4630      	mov	r0, r6
 8004894:	4639      	mov	r1, r7
 8004896:	f7fc f917 	bl	8000ac8 <__aeabi_dcmpeq>
 800489a:	b110      	cbz	r0, 80048a2 <_dtoa_r+0x67a>
 800489c:	f018 0f01 	tst.w	r8, #1
 80048a0:	d10f      	bne.n	80048c2 <_dtoa_r+0x69a>
 80048a2:	9904      	ldr	r1, [sp, #16]
 80048a4:	4620      	mov	r0, r4
 80048a6:	f000 facc 	bl	8004e42 <_Bfree>
 80048aa:	2300      	movs	r3, #0
 80048ac:	9a12      	ldr	r2, [sp, #72]	; 0x48
 80048ae:	702b      	strb	r3, [r5, #0]
 80048b0:	f10a 0301 	add.w	r3, sl, #1
 80048b4:	6013      	str	r3, [r2, #0]
 80048b6:	9b21      	ldr	r3, [sp, #132]	; 0x84
 80048b8:	2b00      	cmp	r3, #0
 80048ba:	f000 8241 	beq.w	8004d40 <_dtoa_r+0xb18>
 80048be:	601d      	str	r5, [r3, #0]
 80048c0:	e23e      	b.n	8004d40 <_dtoa_r+0xb18>
 80048c2:	f8cd a020 	str.w	sl, [sp, #32]
 80048c6:	f815 2c01 	ldrb.w	r2, [r5, #-1]
 80048ca:	2a39      	cmp	r2, #57	; 0x39
 80048cc:	f105 33ff 	add.w	r3, r5, #4294967295
 80048d0:	d108      	bne.n	80048e4 <_dtoa_r+0x6bc>
 80048d2:	459b      	cmp	fp, r3
 80048d4:	d10a      	bne.n	80048ec <_dtoa_r+0x6c4>
 80048d6:	9b08      	ldr	r3, [sp, #32]
 80048d8:	3301      	adds	r3, #1
 80048da:	9308      	str	r3, [sp, #32]
 80048dc:	2330      	movs	r3, #48	; 0x30
 80048de:	f88b 3000 	strb.w	r3, [fp]
 80048e2:	465b      	mov	r3, fp
 80048e4:	781a      	ldrb	r2, [r3, #0]
 80048e6:	3201      	adds	r2, #1
 80048e8:	701a      	strb	r2, [r3, #0]
 80048ea:	e78c      	b.n	8004806 <_dtoa_r+0x5de>
 80048ec:	461d      	mov	r5, r3
 80048ee:	e7ea      	b.n	80048c6 <_dtoa_r+0x69e>
 80048f0:	2200      	movs	r2, #0
 80048f2:	4b9b      	ldr	r3, [pc, #620]	; (8004b60 <_dtoa_r+0x938>)
 80048f4:	f7fb fe80 	bl	80005f8 <__aeabi_dmul>
 80048f8:	2200      	movs	r2, #0
 80048fa:	2300      	movs	r3, #0
 80048fc:	4606      	mov	r6, r0
 80048fe:	460f      	mov	r7, r1
 8004900:	f7fc f8e2 	bl	8000ac8 <__aeabi_dcmpeq>
 8004904:	2800      	cmp	r0, #0
 8004906:	d09a      	beq.n	800483e <_dtoa_r+0x616>
 8004908:	e7cb      	b.n	80048a2 <_dtoa_r+0x67a>
 800490a:	9a0a      	ldr	r2, [sp, #40]	; 0x28
 800490c:	2a00      	cmp	r2, #0
 800490e:	f000 808b 	beq.w	8004a28 <_dtoa_r+0x800>
 8004912:	9a06      	ldr	r2, [sp, #24]
 8004914:	2a01      	cmp	r2, #1
 8004916:	dc6e      	bgt.n	80049f6 <_dtoa_r+0x7ce>
 8004918:	9a13      	ldr	r2, [sp, #76]	; 0x4c
 800491a:	2a00      	cmp	r2, #0
 800491c:	d067      	beq.n	80049ee <_dtoa_r+0x7c6>
 800491e:	f203 4333 	addw	r3, r3, #1075	; 0x433
 8004922:	9f07      	ldr	r7, [sp, #28]
 8004924:	9d05      	ldr	r5, [sp, #20]
 8004926:	9a05      	ldr	r2, [sp, #20]
 8004928:	2101      	movs	r1, #1
 800492a:	441a      	add	r2, r3
 800492c:	4620      	mov	r0, r4
 800492e:	9205      	str	r2, [sp, #20]
 8004930:	4498      	add	r8, r3
 8004932:	f000 fb26 	bl	8004f82 <__i2b>
 8004936:	4606      	mov	r6, r0
 8004938:	2d00      	cmp	r5, #0
 800493a:	dd0c      	ble.n	8004956 <_dtoa_r+0x72e>
 800493c:	f1b8 0f00 	cmp.w	r8, #0
 8004940:	dd09      	ble.n	8004956 <_dtoa_r+0x72e>
 8004942:	4545      	cmp	r5, r8
 8004944:	9a05      	ldr	r2, [sp, #20]
 8004946:	462b      	mov	r3, r5
 8004948:	bfa8      	it	ge
 800494a:	4643      	movge	r3, r8
 800494c:	1ad2      	subs	r2, r2, r3
 800494e:	9205      	str	r2, [sp, #20]
 8004950:	1aed      	subs	r5, r5, r3
 8004952:	eba8 0803 	sub.w	r8, r8, r3
 8004956:	9b07      	ldr	r3, [sp, #28]
 8004958:	b1eb      	cbz	r3, 8004996 <_dtoa_r+0x76e>
 800495a:	9b0a      	ldr	r3, [sp, #40]	; 0x28
 800495c:	2b00      	cmp	r3, #0
 800495e:	d067      	beq.n	8004a30 <_dtoa_r+0x808>
 8004960:	b18f      	cbz	r7, 8004986 <_dtoa_r+0x75e>
 8004962:	4631      	mov	r1, r6
 8004964:	463a      	mov	r2, r7
 8004966:	4620      	mov	r0, r4
 8004968:	f000 fbaa 	bl	80050c0 <__pow5mult>
 800496c:	9a04      	ldr	r2, [sp, #16]
 800496e:	4601      	mov	r1, r0
 8004970:	4606      	mov	r6, r0
 8004972:	4620      	mov	r0, r4
 8004974:	f000 fb0e 	bl	8004f94 <__multiply>
 8004978:	9904      	ldr	r1, [sp, #16]
 800497a:	9008      	str	r0, [sp, #32]
 800497c:	4620      	mov	r0, r4
 800497e:	f000 fa60 	bl	8004e42 <_Bfree>
 8004982:	9b08      	ldr	r3, [sp, #32]
 8004984:	9304      	str	r3, [sp, #16]
 8004986:	9b07      	ldr	r3, [sp, #28]
 8004988:	1bda      	subs	r2, r3, r7
 800498a:	d004      	beq.n	8004996 <_dtoa_r+0x76e>
 800498c:	9904      	ldr	r1, [sp, #16]
 800498e:	4620      	mov	r0, r4
 8004990:	f000 fb96 	bl	80050c0 <__pow5mult>
 8004994:	9004      	str	r0, [sp, #16]
 8004996:	2101      	movs	r1, #1
 8004998:	4620      	mov	r0, r4
 800499a:	f000 faf2 	bl	8004f82 <__i2b>
 800499e:	9b0e      	ldr	r3, [sp, #56]	; 0x38
 80049a0:	4607      	mov	r7, r0
 80049a2:	2b00      	cmp	r3, #0
 80049a4:	f000 81d0 	beq.w	8004d48 <_dtoa_r+0xb20>
 80049a8:	461a      	mov	r2, r3
 80049aa:	4601      	mov	r1, r0
 80049ac:	4620      	mov	r0, r4
 80049ae:	f000 fb87 	bl	80050c0 <__pow5mult>
 80049b2:	9b06      	ldr	r3, [sp, #24]
 80049b4:	2b01      	cmp	r3, #1
 80049b6:	4607      	mov	r7, r0
 80049b8:	dc40      	bgt.n	8004a3c <_dtoa_r+0x814>
 80049ba:	9b00      	ldr	r3, [sp, #0]
 80049bc:	2b00      	cmp	r3, #0
 80049be:	d139      	bne.n	8004a34 <_dtoa_r+0x80c>
 80049c0:	9b01      	ldr	r3, [sp, #4]
 80049c2:	f3c3 0313 	ubfx	r3, r3, #0, #20
 80049c6:	2b00      	cmp	r3, #0
 80049c8:	d136      	bne.n	8004a38 <_dtoa_r+0x810>
 80049ca:	9b01      	ldr	r3, [sp, #4]
 80049cc:	f023 4300 	bic.w	r3, r3, #2147483648	; 0x80000000
 80049d0:	0d1b      	lsrs	r3, r3, #20
 80049d2:	051b      	lsls	r3, r3, #20
 80049d4:	b12b      	cbz	r3, 80049e2 <_dtoa_r+0x7ba>
 80049d6:	9b05      	ldr	r3, [sp, #20]
 80049d8:	3301      	adds	r3, #1
 80049da:	9305      	str	r3, [sp, #20]
 80049dc:	f108 0801 	add.w	r8, r8, #1
 80049e0:	2301      	movs	r3, #1
 80049e2:	9307      	str	r3, [sp, #28]
 80049e4:	9b0e      	ldr	r3, [sp, #56]	; 0x38
 80049e6:	2b00      	cmp	r3, #0
 80049e8:	d12a      	bne.n	8004a40 <_dtoa_r+0x818>
 80049ea:	2001      	movs	r0, #1
 80049ec:	e030      	b.n	8004a50 <_dtoa_r+0x828>
 80049ee:	9b14      	ldr	r3, [sp, #80]	; 0x50
 80049f0:	f1c3 0336 	rsb	r3, r3, #54	; 0x36
 80049f4:	e795      	b.n	8004922 <_dtoa_r+0x6fa>
 80049f6:	9b07      	ldr	r3, [sp, #28]
 80049f8:	f109 37ff 	add.w	r7, r9, #4294967295
 80049fc:	42bb      	cmp	r3, r7
 80049fe:	bfbf      	itttt	lt
 8004a00:	9b07      	ldrlt	r3, [sp, #28]
 8004a02:	9707      	strlt	r7, [sp, #28]
 8004a04:	1afa      	sublt	r2, r7, r3
 8004a06:	9b0e      	ldrlt	r3, [sp, #56]	; 0x38
 8004a08:	bfbb      	ittet	lt
 8004a0a:	189b      	addlt	r3, r3, r2
 8004a0c:	930e      	strlt	r3, [sp, #56]	; 0x38
 8004a0e:	1bdf      	subge	r7, r3, r7
 8004a10:	2700      	movlt	r7, #0
 8004a12:	f1b9 0f00 	cmp.w	r9, #0
 8004a16:	bfb5      	itete	lt
 8004a18:	9b05      	ldrlt	r3, [sp, #20]
 8004a1a:	9d05      	ldrge	r5, [sp, #20]
 8004a1c:	eba3 0509 	sublt.w	r5, r3, r9
 8004a20:	464b      	movge	r3, r9
 8004a22:	bfb8      	it	lt
 8004a24:	2300      	movlt	r3, #0
 8004a26:	e77e      	b.n	8004926 <_dtoa_r+0x6fe>
 8004a28:	9f07      	ldr	r7, [sp, #28]
 8004a2a:	9d05      	ldr	r5, [sp, #20]
 8004a2c:	9e0a      	ldr	r6, [sp, #40]	; 0x28
 8004a2e:	e783      	b.n	8004938 <_dtoa_r+0x710>
 8004a30:	9a07      	ldr	r2, [sp, #28]
 8004a32:	e7ab      	b.n	800498c <_dtoa_r+0x764>
 8004a34:	2300      	movs	r3, #0
 8004a36:	e7d4      	b.n	80049e2 <_dtoa_r+0x7ba>
 8004a38:	9b00      	ldr	r3, [sp, #0]
 8004a3a:	e7d2      	b.n	80049e2 <_dtoa_r+0x7ba>
 8004a3c:	2300      	movs	r3, #0
 8004a3e:	9307      	str	r3, [sp, #28]
 8004a40:	693b      	ldr	r3, [r7, #16]
 8004a42:	eb07 0383 	add.w	r3, r7, r3, lsl #2
 8004a46:	6918      	ldr	r0, [r3, #16]
 8004a48:	f000 fa4d 	bl	8004ee6 <__hi0bits>
 8004a4c:	f1c0 0020 	rsb	r0, r0, #32
 8004a50:	4440      	add	r0, r8
 8004a52:	f010 001f 	ands.w	r0, r0, #31
 8004a56:	d047      	beq.n	8004ae8 <_dtoa_r+0x8c0>
 8004a58:	f1c0 0320 	rsb	r3, r0, #32
 8004a5c:	2b04      	cmp	r3, #4
 8004a5e:	dd3b      	ble.n	8004ad8 <_dtoa_r+0x8b0>
 8004a60:	9b05      	ldr	r3, [sp, #20]
 8004a62:	f1c0 001c 	rsb	r0, r0, #28
 8004a66:	4403      	add	r3, r0
 8004a68:	9305      	str	r3, [sp, #20]
 8004a6a:	4405      	add	r5, r0
 8004a6c:	4480      	add	r8, r0
 8004a6e:	9b05      	ldr	r3, [sp, #20]
 8004a70:	2b00      	cmp	r3, #0
 8004a72:	dd05      	ble.n	8004a80 <_dtoa_r+0x858>
 8004a74:	461a      	mov	r2, r3
 8004a76:	9904      	ldr	r1, [sp, #16]
 8004a78:	4620      	mov	r0, r4
 8004a7a:	f000 fb6f 	bl	800515c <__lshift>
 8004a7e:	9004      	str	r0, [sp, #16]
 8004a80:	f1b8 0f00 	cmp.w	r8, #0
 8004a84:	dd05      	ble.n	8004a92 <_dtoa_r+0x86a>
 8004a86:	4639      	mov	r1, r7
 8004a88:	4642      	mov	r2, r8
 8004a8a:	4620      	mov	r0, r4
 8004a8c:	f000 fb66 	bl	800515c <__lshift>
 8004a90:	4607      	mov	r7, r0
 8004a92:	9b0f      	ldr	r3, [sp, #60]	; 0x3c
 8004a94:	b353      	cbz	r3, 8004aec <_dtoa_r+0x8c4>
 8004a96:	4639      	mov	r1, r7
 8004a98:	9804      	ldr	r0, [sp, #16]
 8004a9a:	f000 fbb3 	bl	8005204 <__mcmp>
 8004a9e:	2800      	cmp	r0, #0
 8004aa0:	da24      	bge.n	8004aec <_dtoa_r+0x8c4>
 8004aa2:	2300      	movs	r3, #0
 8004aa4:	220a      	movs	r2, #10
 8004aa6:	9904      	ldr	r1, [sp, #16]
 8004aa8:	4620      	mov	r0, r4
 8004aaa:	f000 f9e1 	bl	8004e70 <__multadd>
 8004aae:	9b0a      	ldr	r3, [sp, #40]	; 0x28
 8004ab0:	9004      	str	r0, [sp, #16]
 8004ab2:	f10a 3aff 	add.w	sl, sl, #4294967295
 8004ab6:	2b00      	cmp	r3, #0
 8004ab8:	f000 814d 	beq.w	8004d56 <_dtoa_r+0xb2e>
 8004abc:	2300      	movs	r3, #0
 8004abe:	4631      	mov	r1, r6
 8004ac0:	220a      	movs	r2, #10
 8004ac2:	4620      	mov	r0, r4
 8004ac4:	f000 f9d4 	bl	8004e70 <__multadd>
 8004ac8:	9b02      	ldr	r3, [sp, #8]
 8004aca:	2b00      	cmp	r3, #0
 8004acc:	4606      	mov	r6, r0
 8004ace:	dc4f      	bgt.n	8004b70 <_dtoa_r+0x948>
 8004ad0:	9b06      	ldr	r3, [sp, #24]
 8004ad2:	2b02      	cmp	r3, #2
 8004ad4:	dd4c      	ble.n	8004b70 <_dtoa_r+0x948>
 8004ad6:	e011      	b.n	8004afc <_dtoa_r+0x8d4>
 8004ad8:	d0c9      	beq.n	8004a6e <_dtoa_r+0x846>
 8004ada:	9a05      	ldr	r2, [sp, #20]
 8004adc:	331c      	adds	r3, #28
 8004ade:	441a      	add	r2, r3
 8004ae0:	9205      	str	r2, [sp, #20]
 8004ae2:	441d      	add	r5, r3
 8004ae4:	4498      	add	r8, r3
 8004ae6:	e7c2      	b.n	8004a6e <_dtoa_r+0x846>
 8004ae8:	4603      	mov	r3, r0
 8004aea:	e7f6      	b.n	8004ada <_dtoa_r+0x8b2>
 8004aec:	f1b9 0f00 	cmp.w	r9, #0
 8004af0:	dc38      	bgt.n	8004b64 <_dtoa_r+0x93c>
 8004af2:	9b06      	ldr	r3, [sp, #24]
 8004af4:	2b02      	cmp	r3, #2
 8004af6:	dd35      	ble.n	8004b64 <_dtoa_r+0x93c>
 8004af8:	f8cd 9008 	str.w	r9, [sp, #8]
 8004afc:	9b02      	ldr	r3, [sp, #8]
 8004afe:	b963      	cbnz	r3, 8004b1a <_dtoa_r+0x8f2>
 8004b00:	4639      	mov	r1, r7
 8004b02:	2205      	movs	r2, #5
 8004b04:	4620      	mov	r0, r4
 8004b06:	f000 f9b3 	bl	8004e70 <__multadd>
 8004b0a:	4601      	mov	r1, r0
 8004b0c:	4607      	mov	r7, r0
 8004b0e:	9804      	ldr	r0, [sp, #16]
 8004b10:	f000 fb78 	bl	8005204 <__mcmp>
 8004b14:	2800      	cmp	r0, #0
 8004b16:	f73f adcc 	bgt.w	80046b2 <_dtoa_r+0x48a>
 8004b1a:	9b0b      	ldr	r3, [sp, #44]	; 0x2c
 8004b1c:	465d      	mov	r5, fp
 8004b1e:	ea6f 0a03 	mvn.w	sl, r3
 8004b22:	f04f 0900 	mov.w	r9, #0
 8004b26:	4639      	mov	r1, r7
 8004b28:	4620      	mov	r0, r4
 8004b2a:	f000 f98a 	bl	8004e42 <_Bfree>
 8004b2e:	2e00      	cmp	r6, #0
 8004b30:	f43f aeb7 	beq.w	80048a2 <_dtoa_r+0x67a>
 8004b34:	f1b9 0f00 	cmp.w	r9, #0
 8004b38:	d005      	beq.n	8004b46 <_dtoa_r+0x91e>
 8004b3a:	45b1      	cmp	r9, r6
 8004b3c:	d003      	beq.n	8004b46 <_dtoa_r+0x91e>
 8004b3e:	4649      	mov	r1, r9
 8004b40:	4620      	mov	r0, r4
 8004b42:	f000 f97e 	bl	8004e42 <_Bfree>
 8004b46:	4631      	mov	r1, r6
 8004b48:	4620      	mov	r0, r4
 8004b4a:	f000 f97a 	bl	8004e42 <_Bfree>
 8004b4e:	e6a8      	b.n	80048a2 <_dtoa_r+0x67a>
 8004b50:	2700      	movs	r7, #0
 8004b52:	463e      	mov	r6, r7
 8004b54:	e7e1      	b.n	8004b1a <_dtoa_r+0x8f2>
 8004b56:	f8dd a020 	ldr.w	sl, [sp, #32]
 8004b5a:	463e      	mov	r6, r7
 8004b5c:	e5a9      	b.n	80046b2 <_dtoa_r+0x48a>
 8004b5e:	bf00      	nop
 8004b60:	40240000 	.word	0x40240000
 8004b64:	9b0a      	ldr	r3, [sp, #40]	; 0x28
 8004b66:	f8cd 9008 	str.w	r9, [sp, #8]
 8004b6a:	2b00      	cmp	r3, #0
 8004b6c:	f000 80fa 	beq.w	8004d64 <_dtoa_r+0xb3c>
 8004b70:	2d00      	cmp	r5, #0
 8004b72:	dd05      	ble.n	8004b80 <_dtoa_r+0x958>
 8004b74:	4631      	mov	r1, r6
 8004b76:	462a      	mov	r2, r5
 8004b78:	4620      	mov	r0, r4
 8004b7a:	f000 faef 	bl	800515c <__lshift>
 8004b7e:	4606      	mov	r6, r0
 8004b80:	9b07      	ldr	r3, [sp, #28]
 8004b82:	2b00      	cmp	r3, #0
 8004b84:	d04c      	beq.n	8004c20 <_dtoa_r+0x9f8>
 8004b86:	6871      	ldr	r1, [r6, #4]
 8004b88:	4620      	mov	r0, r4
 8004b8a:	f000 f926 	bl	8004dda <_Balloc>
 8004b8e:	6932      	ldr	r2, [r6, #16]
 8004b90:	3202      	adds	r2, #2
 8004b92:	4605      	mov	r5, r0
 8004b94:	0092      	lsls	r2, r2, #2
 8004b96:	f106 010c 	add.w	r1, r6, #12
 8004b9a:	300c      	adds	r0, #12
 8004b9c:	f000 f912 	bl	8004dc4 <memcpy>
 8004ba0:	2201      	movs	r2, #1
 8004ba2:	4629      	mov	r1, r5
 8004ba4:	4620      	mov	r0, r4
 8004ba6:	f000 fad9 	bl	800515c <__lshift>
 8004baa:	9b00      	ldr	r3, [sp, #0]
 8004bac:	f8cd b014 	str.w	fp, [sp, #20]
 8004bb0:	f003 0301 	and.w	r3, r3, #1
 8004bb4:	46b1      	mov	r9, r6
 8004bb6:	9307      	str	r3, [sp, #28]
 8004bb8:	4606      	mov	r6, r0
 8004bba:	4639      	mov	r1, r7
 8004bbc:	9804      	ldr	r0, [sp, #16]
 8004bbe:	f7ff faa7 	bl	8004110 <quorem>
 8004bc2:	4649      	mov	r1, r9
 8004bc4:	4605      	mov	r5, r0
 8004bc6:	f100 0830 	add.w	r8, r0, #48	; 0x30
 8004bca:	9804      	ldr	r0, [sp, #16]
 8004bcc:	f000 fb1a 	bl	8005204 <__mcmp>
 8004bd0:	4632      	mov	r2, r6
 8004bd2:	9000      	str	r0, [sp, #0]
 8004bd4:	4639      	mov	r1, r7
 8004bd6:	4620      	mov	r0, r4
 8004bd8:	f000 fb2e 	bl	8005238 <__mdiff>
 8004bdc:	68c3      	ldr	r3, [r0, #12]
 8004bde:	4602      	mov	r2, r0
 8004be0:	bb03      	cbnz	r3, 8004c24 <_dtoa_r+0x9fc>
 8004be2:	4601      	mov	r1, r0
 8004be4:	9008      	str	r0, [sp, #32]
 8004be6:	9804      	ldr	r0, [sp, #16]
 8004be8:	f000 fb0c 	bl	8005204 <__mcmp>
 8004bec:	9a08      	ldr	r2, [sp, #32]
 8004bee:	4603      	mov	r3, r0
 8004bf0:	4611      	mov	r1, r2
 8004bf2:	4620      	mov	r0, r4
 8004bf4:	9308      	str	r3, [sp, #32]
 8004bf6:	f000 f924 	bl	8004e42 <_Bfree>
 8004bfa:	9b08      	ldr	r3, [sp, #32]
 8004bfc:	b9a3      	cbnz	r3, 8004c28 <_dtoa_r+0xa00>
 8004bfe:	9a06      	ldr	r2, [sp, #24]
 8004c00:	b992      	cbnz	r2, 8004c28 <_dtoa_r+0xa00>
 8004c02:	9a07      	ldr	r2, [sp, #28]
 8004c04:	b982      	cbnz	r2, 8004c28 <_dtoa_r+0xa00>
 8004c06:	f1b8 0f39 	cmp.w	r8, #57	; 0x39
 8004c0a:	d029      	beq.n	8004c60 <_dtoa_r+0xa38>
 8004c0c:	9b00      	ldr	r3, [sp, #0]
 8004c0e:	2b00      	cmp	r3, #0
 8004c10:	dd01      	ble.n	8004c16 <_dtoa_r+0x9ee>
 8004c12:	f105 0831 	add.w	r8, r5, #49	; 0x31
 8004c16:	9b05      	ldr	r3, [sp, #20]
 8004c18:	1c5d      	adds	r5, r3, #1
 8004c1a:	f883 8000 	strb.w	r8, [r3]
 8004c1e:	e782      	b.n	8004b26 <_dtoa_r+0x8fe>
 8004c20:	4630      	mov	r0, r6
 8004c22:	e7c2      	b.n	8004baa <_dtoa_r+0x982>
 8004c24:	2301      	movs	r3, #1
 8004c26:	e7e3      	b.n	8004bf0 <_dtoa_r+0x9c8>
 8004c28:	9a00      	ldr	r2, [sp, #0]
 8004c2a:	2a00      	cmp	r2, #0
 8004c2c:	db04      	blt.n	8004c38 <_dtoa_r+0xa10>
 8004c2e:	d125      	bne.n	8004c7c <_dtoa_r+0xa54>
 8004c30:	9a06      	ldr	r2, [sp, #24]
 8004c32:	bb1a      	cbnz	r2, 8004c7c <_dtoa_r+0xa54>
 8004c34:	9a07      	ldr	r2, [sp, #28]
 8004c36:	bb0a      	cbnz	r2, 8004c7c <_dtoa_r+0xa54>
 8004c38:	2b00      	cmp	r3, #0
 8004c3a:	ddec      	ble.n	8004c16 <_dtoa_r+0x9ee>
 8004c3c:	2201      	movs	r2, #1
 8004c3e:	9904      	ldr	r1, [sp, #16]
 8004c40:	4620      	mov	r0, r4
 8004c42:	f000 fa8b 	bl	800515c <__lshift>
 8004c46:	4639      	mov	r1, r7
 8004c48:	9004      	str	r0, [sp, #16]
 8004c4a:	f000 fadb 	bl	8005204 <__mcmp>
 8004c4e:	2800      	cmp	r0, #0
 8004c50:	dc03      	bgt.n	8004c5a <_dtoa_r+0xa32>
 8004c52:	d1e0      	bne.n	8004c16 <_dtoa_r+0x9ee>
 8004c54:	f018 0f01 	tst.w	r8, #1
 8004c58:	d0dd      	beq.n	8004c16 <_dtoa_r+0x9ee>
 8004c5a:	f1b8 0f39 	cmp.w	r8, #57	; 0x39
 8004c5e:	d1d8      	bne.n	8004c12 <_dtoa_r+0x9ea>
 8004c60:	9b05      	ldr	r3, [sp, #20]
 8004c62:	9a05      	ldr	r2, [sp, #20]
 8004c64:	1c5d      	adds	r5, r3, #1
 8004c66:	2339      	movs	r3, #57	; 0x39
 8004c68:	7013      	strb	r3, [r2, #0]
 8004c6a:	f815 3c01 	ldrb.w	r3, [r5, #-1]
 8004c6e:	2b39      	cmp	r3, #57	; 0x39
 8004c70:	f105 32ff 	add.w	r2, r5, #4294967295
 8004c74:	d04f      	beq.n	8004d16 <_dtoa_r+0xaee>
 8004c76:	3301      	adds	r3, #1
 8004c78:	7013      	strb	r3, [r2, #0]
 8004c7a:	e754      	b.n	8004b26 <_dtoa_r+0x8fe>
 8004c7c:	9a05      	ldr	r2, [sp, #20]
 8004c7e:	2b00      	cmp	r3, #0
 8004c80:	f102 0501 	add.w	r5, r2, #1
 8004c84:	dd06      	ble.n	8004c94 <_dtoa_r+0xa6c>
 8004c86:	f1b8 0f39 	cmp.w	r8, #57	; 0x39
 8004c8a:	d0e9      	beq.n	8004c60 <_dtoa_r+0xa38>
 8004c8c:	f108 0801 	add.w	r8, r8, #1
 8004c90:	9b05      	ldr	r3, [sp, #20]
 8004c92:	e7c2      	b.n	8004c1a <_dtoa_r+0x9f2>
 8004c94:	9a02      	ldr	r2, [sp, #8]
 8004c96:	f805 8c01 	strb.w	r8, [r5, #-1]
 8004c9a:	eba5 030b 	sub.w	r3, r5, fp
 8004c9e:	4293      	cmp	r3, r2
 8004ca0:	d021      	beq.n	8004ce6 <_dtoa_r+0xabe>
 8004ca2:	2300      	movs	r3, #0
 8004ca4:	220a      	movs	r2, #10
 8004ca6:	9904      	ldr	r1, [sp, #16]
 8004ca8:	4620      	mov	r0, r4
 8004caa:	f000 f8e1 	bl	8004e70 <__multadd>
 8004cae:	45b1      	cmp	r9, r6
 8004cb0:	9004      	str	r0, [sp, #16]
 8004cb2:	f04f 0300 	mov.w	r3, #0
 8004cb6:	f04f 020a 	mov.w	r2, #10
 8004cba:	4649      	mov	r1, r9
 8004cbc:	4620      	mov	r0, r4
 8004cbe:	d105      	bne.n	8004ccc <_dtoa_r+0xaa4>
 8004cc0:	f000 f8d6 	bl	8004e70 <__multadd>
 8004cc4:	4681      	mov	r9, r0
 8004cc6:	4606      	mov	r6, r0
 8004cc8:	9505      	str	r5, [sp, #20]
 8004cca:	e776      	b.n	8004bba <_dtoa_r+0x992>
 8004ccc:	f000 f8d0 	bl	8004e70 <__multadd>
 8004cd0:	4631      	mov	r1, r6
 8004cd2:	4681      	mov	r9, r0
 8004cd4:	2300      	movs	r3, #0
 8004cd6:	220a      	movs	r2, #10
 8004cd8:	4620      	mov	r0, r4
 8004cda:	f000 f8c9 	bl	8004e70 <__multadd>
 8004cde:	4606      	mov	r6, r0
 8004ce0:	e7f2      	b.n	8004cc8 <_dtoa_r+0xaa0>
 8004ce2:	f04f 0900 	mov.w	r9, #0
 8004ce6:	2201      	movs	r2, #1
 8004ce8:	9904      	ldr	r1, [sp, #16]
 8004cea:	4620      	mov	r0, r4
 8004cec:	f000 fa36 	bl	800515c <__lshift>
 8004cf0:	4639      	mov	r1, r7
 8004cf2:	9004      	str	r0, [sp, #16]
 8004cf4:	f000 fa86 	bl	8005204 <__mcmp>
 8004cf8:	2800      	cmp	r0, #0
 8004cfa:	dcb6      	bgt.n	8004c6a <_dtoa_r+0xa42>
 8004cfc:	d102      	bne.n	8004d04 <_dtoa_r+0xadc>
 8004cfe:	f018 0f01 	tst.w	r8, #1
 8004d02:	d1b2      	bne.n	8004c6a <_dtoa_r+0xa42>
 8004d04:	f815 3c01 	ldrb.w	r3, [r5, #-1]
 8004d08:	2b30      	cmp	r3, #48	; 0x30
 8004d0a:	f105 32ff 	add.w	r2, r5, #4294967295
 8004d0e:	f47f af0a 	bne.w	8004b26 <_dtoa_r+0x8fe>
 8004d12:	4615      	mov	r5, r2
 8004d14:	e7f6      	b.n	8004d04 <_dtoa_r+0xadc>
 8004d16:	4593      	cmp	fp, r2
 8004d18:	d105      	bne.n	8004d26 <_dtoa_r+0xafe>
 8004d1a:	2331      	movs	r3, #49	; 0x31
 8004d1c:	f10a 0a01 	add.w	sl, sl, #1
 8004d20:	f88b 3000 	strb.w	r3, [fp]
 8004d24:	e6ff      	b.n	8004b26 <_dtoa_r+0x8fe>
 8004d26:	4615      	mov	r5, r2
 8004d28:	e79f      	b.n	8004c6a <_dtoa_r+0xa42>
 8004d2a:	f8df b064 	ldr.w	fp, [pc, #100]	; 8004d90 <_dtoa_r+0xb68>
 8004d2e:	e007      	b.n	8004d40 <_dtoa_r+0xb18>
 8004d30:	9b21      	ldr	r3, [sp, #132]	; 0x84
 8004d32:	f8df b060 	ldr.w	fp, [pc, #96]	; 8004d94 <_dtoa_r+0xb6c>
 8004d36:	b11b      	cbz	r3, 8004d40 <_dtoa_r+0xb18>
 8004d38:	f10b 0308 	add.w	r3, fp, #8
 8004d3c:	9a21      	ldr	r2, [sp, #132]	; 0x84
 8004d3e:	6013      	str	r3, [r2, #0]
 8004d40:	4658      	mov	r0, fp
 8004d42:	b017      	add	sp, #92	; 0x5c
 8004d44:	e8bd 8ff0 	ldmia.w	sp!, {r4, r5, r6, r7, r8, r9, sl, fp, pc}
 8004d48:	9b06      	ldr	r3, [sp, #24]
 8004d4a:	2b01      	cmp	r3, #1
 8004d4c:	f77f ae35 	ble.w	80049ba <_dtoa_r+0x792>
 8004d50:	9b0e      	ldr	r3, [sp, #56]	; 0x38
 8004d52:	9307      	str	r3, [sp, #28]
 8004d54:	e649      	b.n	80049ea <_dtoa_r+0x7c2>
 8004d56:	9b02      	ldr	r3, [sp, #8]
 8004d58:	2b00      	cmp	r3, #0
 8004d5a:	dc03      	bgt.n	8004d64 <_dtoa_r+0xb3c>
 8004d5c:	9b06      	ldr	r3, [sp, #24]
 8004d5e:	2b02      	cmp	r3, #2
 8004d60:	f73f aecc 	bgt.w	8004afc <_dtoa_r+0x8d4>
 8004d64:	465d      	mov	r5, fp
 8004d66:	4639      	mov	r1, r7
 8004d68:	9804      	ldr	r0, [sp, #16]
 8004d6a:	f7ff f9d1 	bl	8004110 <quorem>
 8004d6e:	f100 0830 	add.w	r8, r0, #48	; 0x30
 8004d72:	f805 8b01 	strb.w	r8, [r5], #1
 8004d76:	9a02      	ldr	r2, [sp, #8]
 8004d78:	eba5 030b 	sub.w	r3, r5, fp
 8004d7c:	429a      	cmp	r2, r3
 8004d7e:	ddb0      	ble.n	8004ce2 <_dtoa_r+0xaba>
 8004d80:	2300      	movs	r3, #0
 8004d82:	220a      	movs	r2, #10
 8004d84:	9904      	ldr	r1, [sp, #16]
 8004d86:	4620      	mov	r0, r4
 8004d88:	f000 f872 	bl	8004e70 <__multadd>
 8004d8c:	9004      	str	r0, [sp, #16]
 8004d8e:	e7ea      	b.n	8004d66 <_dtoa_r+0xb3e>
 8004d90:	0800641b 	.word	0x0800641b
 8004d94:	080062e9 	.word	0x080062e9

08004d98 <_localeconv_r>:
 8004d98:	4b04      	ldr	r3, [pc, #16]	; (8004dac <_localeconv_r+0x14>)
 8004d9a:	681b      	ldr	r3, [r3, #0]
 8004d9c:	6a18      	ldr	r0, [r3, #32]
 8004d9e:	4b04      	ldr	r3, [pc, #16]	; (8004db0 <_localeconv_r+0x18>)
 8004da0:	2800      	cmp	r0, #0
 8004da2:	bf08      	it	eq
 8004da4:	4618      	moveq	r0, r3
 8004da6:	30f0      	adds	r0, #240	; 0xf0
 8004da8:	4770      	bx	lr
 8004daa:	bf00      	nop
 8004dac:	20000008 	.word	0x20000008
 8004db0:	2000006c 	.word	0x2000006c

08004db4 <malloc>:
 8004db4:	4b02      	ldr	r3, [pc, #8]	; (8004dc0 <malloc+0xc>)
 8004db6:	4601      	mov	r1, r0
 8004db8:	6818      	ldr	r0, [r3, #0]
 8004dba:	f000 bb45 	b.w	8005448 <_malloc_r>
 8004dbe:	bf00      	nop
 8004dc0:	20000008 	.word	0x20000008

08004dc4 <memcpy>:
 8004dc4:	b510      	push	{r4, lr}
 8004dc6:	1e43      	subs	r3, r0, #1
 8004dc8:	440a      	add	r2, r1
 8004dca:	4291      	cmp	r1, r2
 8004dcc:	d100      	bne.n	8004dd0 <memcpy+0xc>
 8004dce:	bd10      	pop	{r4, pc}
 8004dd0:	f811 4b01 	ldrb.w	r4, [r1], #1
 8004dd4:	f803 4f01 	strb.w	r4, [r3, #1]!
 8004dd8:	e7f7      	b.n	8004dca <memcpy+0x6>

08004dda <_Balloc>:
 8004dda:	b570      	push	{r4, r5, r6, lr}
 8004ddc:	6a45      	ldr	r5, [r0, #36]	; 0x24
 8004dde:	4604      	mov	r4, r0
 8004de0:	460e      	mov	r6, r1
 8004de2:	b93d      	cbnz	r5, 8004df4 <_Balloc+0x1a>
 8004de4:	2010      	movs	r0, #16
 8004de6:	f7ff ffe5 	bl	8004db4 <malloc>
 8004dea:	6260      	str	r0, [r4, #36]	; 0x24
 8004dec:	e9c0 5501 	strd	r5, r5, [r0, #4]
 8004df0:	6005      	str	r5, [r0, #0]
 8004df2:	60c5      	str	r5, [r0, #12]
 8004df4:	6a65      	ldr	r5, [r4, #36]	; 0x24
 8004df6:	68eb      	ldr	r3, [r5, #12]
 8004df8:	b183      	cbz	r3, 8004e1c <_Balloc+0x42>
 8004dfa:	6a63      	ldr	r3, [r4, #36]	; 0x24
 8004dfc:	68db      	ldr	r3, [r3, #12]
 8004dfe:	f853 0026 	ldr.w	r0, [r3, r6, lsl #2]
 8004e02:	b9b8      	cbnz	r0, 8004e34 <_Balloc+0x5a>
 8004e04:	2101      	movs	r1, #1
 8004e06:	fa01 f506 	lsl.w	r5, r1, r6
 8004e0a:	1d6a      	adds	r2, r5, #5
 8004e0c:	0092      	lsls	r2, r2, #2
 8004e0e:	4620      	mov	r0, r4
 8004e10:	f000 fabe 	bl	8005390 <_calloc_r>
 8004e14:	b160      	cbz	r0, 8004e30 <_Balloc+0x56>
 8004e16:	e9c0 6501 	strd	r6, r5, [r0, #4]
 8004e1a:	e00e      	b.n	8004e3a <_Balloc+0x60>
 8004e1c:	2221      	movs	r2, #33	; 0x21
 8004e1e:	2104      	movs	r1, #4
 8004e20:	4620      	mov	r0, r4
 8004e22:	f000 fab5 	bl	8005390 <_calloc_r>
 8004e26:	6a63      	ldr	r3, [r4, #36]	; 0x24
 8004e28:	60e8      	str	r0, [r5, #12]
 8004e2a:	68db      	ldr	r3, [r3, #12]
 8004e2c:	2b00      	cmp	r3, #0
 8004e2e:	d1e4      	bne.n	8004dfa <_Balloc+0x20>
 8004e30:	2000      	movs	r0, #0
 8004e32:	bd70      	pop	{r4, r5, r6, pc}
 8004e34:	6802      	ldr	r2, [r0, #0]
 8004e36:	f843 2026 	str.w	r2, [r3, r6, lsl #2]
 8004e3a:	2300      	movs	r3, #0
 8004e3c:	e9c0 3303 	strd	r3, r3, [r0, #12]
 8004e40:	e7f7      	b.n	8004e32 <_Balloc+0x58>

08004e42 <_Bfree>:
 8004e42:	b570      	push	{r4, r5, r6, lr}
 8004e44:	6a44      	ldr	r4, [r0, #36]	; 0x24
 8004e46:	4606      	mov	r6, r0
 8004e48:	460d      	mov	r5, r1
 8004e4a:	b93c      	cbnz	r4, 8004e5c <_Bfree+0x1a>
 8004e4c:	2010      	movs	r0, #16
 8004e4e:	f7ff ffb1 	bl	8004db4 <malloc>
 8004e52:	6270      	str	r0, [r6, #36]	; 0x24
 8004e54:	e9c0 4401 	strd	r4, r4, [r0, #4]
 8004e58:	6004      	str	r4, [r0, #0]
 8004e5a:	60c4      	str	r4, [r0, #12]
 8004e5c:	b13d      	cbz	r5, 8004e6e <_Bfree+0x2c>
 8004e5e:	6a73      	ldr	r3, [r6, #36]	; 0x24
 8004e60:	686a      	ldr	r2, [r5, #4]
 8004e62:	68db      	ldr	r3, [r3, #12]
 8004e64:	f853 1022 	ldr.w	r1, [r3, r2, lsl #2]
 8004e68:	6029      	str	r1, [r5, #0]
 8004e6a:	f843 5022 	str.w	r5, [r3, r2, lsl #2]
 8004e6e:	bd70      	pop	{r4, r5, r6, pc}

08004e70 <__multadd>:
 8004e70:	e92d 41f0 	stmdb	sp!, {r4, r5, r6, r7, r8, lr}
 8004e74:	690d      	ldr	r5, [r1, #16]
 8004e76:	461f      	mov	r7, r3
 8004e78:	4606      	mov	r6, r0
 8004e7a:	460c      	mov	r4, r1
 8004e7c:	f101 0c14 	add.w	ip, r1, #20
 8004e80:	2300      	movs	r3, #0
 8004e82:	f8dc 0000 	ldr.w	r0, [ip]
 8004e86:	b281      	uxth	r1, r0
 8004e88:	fb02 7101 	mla	r1, r2, r1, r7
 8004e8c:	0c0f      	lsrs	r7, r1, #16
 8004e8e:	0c00      	lsrs	r0, r0, #16
 8004e90:	fb02 7000 	mla	r0, r2, r0, r7
 8004e94:	b289      	uxth	r1, r1
 8004e96:	3301      	adds	r3, #1
 8004e98:	eb01 4100 	add.w	r1, r1, r0, lsl #16
 8004e9c:	429d      	cmp	r5, r3
 8004e9e:	ea4f 4710 	mov.w	r7, r0, lsr #16
 8004ea2:	f84c 1b04 	str.w	r1, [ip], #4
 8004ea6:	dcec      	bgt.n	8004e82 <__multadd+0x12>
 8004ea8:	b1d7      	cbz	r7, 8004ee0 <__multadd+0x70>
 8004eaa:	68a3      	ldr	r3, [r4, #8]
 8004eac:	42ab      	cmp	r3, r5
 8004eae:	dc12      	bgt.n	8004ed6 <__multadd+0x66>
 8004eb0:	6861      	ldr	r1, [r4, #4]
 8004eb2:	4630      	mov	r0, r6
 8004eb4:	3101      	adds	r1, #1
 8004eb6:	f7ff ff90 	bl	8004dda <_Balloc>
 8004eba:	6922      	ldr	r2, [r4, #16]
 8004ebc:	3202      	adds	r2, #2
 8004ebe:	f104 010c 	add.w	r1, r4, #12
 8004ec2:	4680      	mov	r8, r0
 8004ec4:	0092      	lsls	r2, r2, #2
 8004ec6:	300c      	adds	r0, #12
 8004ec8:	f7ff ff7c 	bl	8004dc4 <memcpy>
 8004ecc:	4621      	mov	r1, r4
 8004ece:	4630      	mov	r0, r6
 8004ed0:	f7ff ffb7 	bl	8004e42 <_Bfree>
 8004ed4:	4644      	mov	r4, r8
 8004ed6:	eb04 0385 	add.w	r3, r4, r5, lsl #2
 8004eda:	3501      	adds	r5, #1
 8004edc:	615f      	str	r7, [r3, #20]
 8004ede:	6125      	str	r5, [r4, #16]
 8004ee0:	4620      	mov	r0, r4
 8004ee2:	e8bd 81f0 	ldmia.w	sp!, {r4, r5, r6, r7, r8, pc}

08004ee6 <__hi0bits>:
 8004ee6:	0c02      	lsrs	r2, r0, #16
 8004ee8:	0412      	lsls	r2, r2, #16
 8004eea:	4603      	mov	r3, r0
 8004eec:	b9b2      	cbnz	r2, 8004f1c <__hi0bits+0x36>
 8004eee:	0403      	lsls	r3, r0, #16
 8004ef0:	2010      	movs	r0, #16
 8004ef2:	f013 4f7f 	tst.w	r3, #4278190080	; 0xff000000
 8004ef6:	bf04      	itt	eq
 8004ef8:	021b      	lsleq	r3, r3, #8
 8004efa:	3008      	addeq	r0, #8
 8004efc:	f013 4f70 	tst.w	r3, #4026531840	; 0xf0000000
 8004f00:	bf04      	itt	eq
 8004f02:	011b      	lsleq	r3, r3, #4
 8004f04:	3004      	addeq	r0, #4
 8004f06:	f013 4f40 	tst.w	r3, #3221225472	; 0xc0000000
 8004f0a:	bf04      	itt	eq
 8004f0c:	009b      	lsleq	r3, r3, #2
 8004f0e:	3002      	addeq	r0, #2
 8004f10:	2b00      	cmp	r3, #0
 8004f12:	db06      	blt.n	8004f22 <__hi0bits+0x3c>
 8004f14:	005b      	lsls	r3, r3, #1
 8004f16:	d503      	bpl.n	8004f20 <__hi0bits+0x3a>
 8004f18:	3001      	adds	r0, #1
 8004f1a:	4770      	bx	lr
 8004f1c:	2000      	movs	r0, #0
 8004f1e:	e7e8      	b.n	8004ef2 <__hi0bits+0xc>
 8004f20:	2020      	movs	r0, #32
 8004f22:	4770      	bx	lr

08004f24 <__lo0bits>:
 8004f24:	6803      	ldr	r3, [r0, #0]
 8004f26:	f013 0207 	ands.w	r2, r3, #7
 8004f2a:	4601      	mov	r1, r0
 8004f2c:	d00b      	beq.n	8004f46 <__lo0bits+0x22>
 8004f2e:	07da      	lsls	r2, r3, #31
 8004f30:	d423      	bmi.n	8004f7a <__lo0bits+0x56>
 8004f32:	0798      	lsls	r0, r3, #30
 8004f34:	bf49      	itett	mi
 8004f36:	085b      	lsrmi	r3, r3, #1
 8004f38:	089b      	lsrpl	r3, r3, #2
 8004f3a:	2001      	movmi	r0, #1
 8004f3c:	600b      	strmi	r3, [r1, #0]
 8004f3e:	bf5c      	itt	pl
 8004f40:	600b      	strpl	r3, [r1, #0]
 8004f42:	2002      	movpl	r0, #2
 8004f44:	4770      	bx	lr
 8004f46:	b298      	uxth	r0, r3
 8004f48:	b9a8      	cbnz	r0, 8004f76 <__lo0bits+0x52>
 8004f4a:	0c1b      	lsrs	r3, r3, #16
 8004f4c:	2010      	movs	r0, #16
 8004f4e:	f013 0fff 	tst.w	r3, #255	; 0xff
 8004f52:	bf04      	itt	eq
 8004f54:	0a1b      	lsreq	r3, r3, #8
 8004f56:	3008      	addeq	r0, #8
 8004f58:	071a      	lsls	r2, r3, #28
 8004f5a:	bf04      	itt	eq
 8004f5c:	091b      	lsreq	r3, r3, #4
 8004f5e:	3004      	addeq	r0, #4
 8004f60:	079a      	lsls	r2, r3, #30
 8004f62:	bf04      	itt	eq
 8004f64:	089b      	lsreq	r3, r3, #2
 8004f66:	3002      	addeq	r0, #2
 8004f68:	07da      	lsls	r2, r3, #31
 8004f6a:	d402      	bmi.n	8004f72 <__lo0bits+0x4e>
 8004f6c:	085b      	lsrs	r3, r3, #1
 8004f6e:	d006      	beq.n	8004f7e <__lo0bits+0x5a>
 8004f70:	3001      	adds	r0, #1
 8004f72:	600b      	str	r3, [r1, #0]
 8004f74:	4770      	bx	lr
 8004f76:	4610      	mov	r0, r2
 8004f78:	e7e9      	b.n	8004f4e <__lo0bits+0x2a>
 8004f7a:	2000      	movs	r0, #0
 8004f7c:	4770      	bx	lr
 8004f7e:	2020      	movs	r0, #32
 8004f80:	4770      	bx	lr

08004f82 <__i2b>:
 8004f82:	b510      	push	{r4, lr}
 8004f84:	460c      	mov	r4, r1
 8004f86:	2101      	movs	r1, #1
 8004f88:	f7ff ff27 	bl	8004dda <_Balloc>
 8004f8c:	2201      	movs	r2, #1
 8004f8e:	6144      	str	r4, [r0, #20]
 8004f90:	6102      	str	r2, [r0, #16]
 8004f92:	bd10      	pop	{r4, pc}

08004f94 <__multiply>:
 8004f94:	e92d 4ff7 	stmdb	sp!, {r0, r1, r2, r4, r5, r6, r7, r8, r9, sl, fp, lr}
 8004f98:	4614      	mov	r4, r2
 8004f9a:	690a      	ldr	r2, [r1, #16]
 8004f9c:	6923      	ldr	r3, [r4, #16]
 8004f9e:	429a      	cmp	r2, r3
 8004fa0:	bfb8      	it	lt
 8004fa2:	460b      	movlt	r3, r1
 8004fa4:	4688      	mov	r8, r1
 8004fa6:	bfbc      	itt	lt
 8004fa8:	46a0      	movlt	r8, r4
 8004faa:	461c      	movlt	r4, r3
 8004fac:	f8d8 7010 	ldr.w	r7, [r8, #16]
 8004fb0:	f8d4 9010 	ldr.w	r9, [r4, #16]
 8004fb4:	f8d8 3008 	ldr.w	r3, [r8, #8]
 8004fb8:	f8d8 1004 	ldr.w	r1, [r8, #4]
 8004fbc:	eb07 0609 	add.w	r6, r7, r9
 8004fc0:	42b3      	cmp	r3, r6
 8004fc2:	bfb8      	it	lt
 8004fc4:	3101      	addlt	r1, #1
 8004fc6:	f7ff ff08 	bl	8004dda <_Balloc>
 8004fca:	f100 0514 	add.w	r5, r0, #20
 8004fce:	eb05 0e86 	add.w	lr, r5, r6, lsl #2
 8004fd2:	462b      	mov	r3, r5
 8004fd4:	2200      	movs	r2, #0
 8004fd6:	4573      	cmp	r3, lr
 8004fd8:	d316      	bcc.n	8005008 <__multiply+0x74>
 8004fda:	f104 0214 	add.w	r2, r4, #20
 8004fde:	f108 0114 	add.w	r1, r8, #20
 8004fe2:	eb02 0389 	add.w	r3, r2, r9, lsl #2
 8004fe6:	eb01 0787 	add.w	r7, r1, r7, lsl #2
 8004fea:	9300      	str	r3, [sp, #0]
 8004fec:	9b00      	ldr	r3, [sp, #0]
 8004fee:	9201      	str	r2, [sp, #4]
 8004ff0:	4293      	cmp	r3, r2
 8004ff2:	d80c      	bhi.n	800500e <__multiply+0x7a>
 8004ff4:	2e00      	cmp	r6, #0
 8004ff6:	dd03      	ble.n	8005000 <__multiply+0x6c>
 8004ff8:	f85e 3d04 	ldr.w	r3, [lr, #-4]!
 8004ffc:	2b00      	cmp	r3, #0
 8004ffe:	d05d      	beq.n	80050bc <__multiply+0x128>
 8005000:	6106      	str	r6, [r0, #16]
 8005002:	b003      	add	sp, #12
 8005004:	e8bd 8ff0 	ldmia.w	sp!, {r4, r5, r6, r7, r8, r9, sl, fp, pc}
 8005008:	f843 2b04 	str.w	r2, [r3], #4
 800500c:	e7e3      	b.n	8004fd6 <__multiply+0x42>
 800500e:	f8b2 b000 	ldrh.w	fp, [r2]
 8005012:	f1bb 0f00 	cmp.w	fp, #0
 8005016:	d023      	beq.n	8005060 <__multiply+0xcc>
 8005018:	4689      	mov	r9, r1
 800501a:	46ac      	mov	ip, r5
 800501c:	f04f 0800 	mov.w	r8, #0
 8005020:	f859 4b04 	ldr.w	r4, [r9], #4
 8005024:	f8dc a000 	ldr.w	sl, [ip]
 8005028:	b2a3      	uxth	r3, r4
 800502a:	fa1f fa8a 	uxth.w	sl, sl
 800502e:	fb0b a303 	mla	r3, fp, r3, sl
 8005032:	ea4f 4a14 	mov.w	sl, r4, lsr #16
 8005036:	f8dc 4000 	ldr.w	r4, [ip]
 800503a:	4443      	add	r3, r8
 800503c:	ea4f 4814 	mov.w	r8, r4, lsr #16
 8005040:	fb0b 840a 	mla	r4, fp, sl, r8
 8005044:	eb04 4413 	add.w	r4, r4, r3, lsr #16
 8005048:	46e2      	mov	sl, ip
 800504a:	b29b      	uxth	r3, r3
 800504c:	ea43 4304 	orr.w	r3, r3, r4, lsl #16
 8005050:	454f      	cmp	r7, r9
 8005052:	ea4f 4814 	mov.w	r8, r4, lsr #16
 8005056:	f84a 3b04 	str.w	r3, [sl], #4
 800505a:	d82b      	bhi.n	80050b4 <__multiply+0x120>
 800505c:	f8cc 8004 	str.w	r8, [ip, #4]
 8005060:	9b01      	ldr	r3, [sp, #4]
 8005062:	f8b3 a002 	ldrh.w	sl, [r3, #2]
 8005066:	3204      	adds	r2, #4
 8005068:	f1ba 0f00 	cmp.w	sl, #0
 800506c:	d020      	beq.n	80050b0 <__multiply+0x11c>
 800506e:	682b      	ldr	r3, [r5, #0]
 8005070:	4689      	mov	r9, r1
 8005072:	46a8      	mov	r8, r5
 8005074:	f04f 0b00 	mov.w	fp, #0
 8005078:	f8b9 c000 	ldrh.w	ip, [r9]
 800507c:	f8b8 4002 	ldrh.w	r4, [r8, #2]
 8005080:	fb0a 440c 	mla	r4, sl, ip, r4
 8005084:	445c      	add	r4, fp
 8005086:	46c4      	mov	ip, r8
 8005088:	b29b      	uxth	r3, r3
 800508a:	ea43 4304 	orr.w	r3, r3, r4, lsl #16
 800508e:	f84c 3b04 	str.w	r3, [ip], #4
 8005092:	f859 3b04 	ldr.w	r3, [r9], #4
 8005096:	f8b8 b004 	ldrh.w	fp, [r8, #4]
 800509a:	0c1b      	lsrs	r3, r3, #16
 800509c:	fb0a b303 	mla	r3, sl, r3, fp
 80050a0:	eb03 4314 	add.w	r3, r3, r4, lsr #16
 80050a4:	454f      	cmp	r7, r9
 80050a6:	ea4f 4b13 	mov.w	fp, r3, lsr #16
 80050aa:	d805      	bhi.n	80050b8 <__multiply+0x124>
 80050ac:	f8c8 3004 	str.w	r3, [r8, #4]
 80050b0:	3504      	adds	r5, #4
 80050b2:	e79b      	b.n	8004fec <__multiply+0x58>
 80050b4:	46d4      	mov	ip, sl
 80050b6:	e7b3      	b.n	8005020 <__multiply+0x8c>
 80050b8:	46e0      	mov	r8, ip
 80050ba:	e7dd      	b.n	8005078 <__multiply+0xe4>
 80050bc:	3e01      	subs	r6, #1
 80050be:	e799      	b.n	8004ff4 <__multiply+0x60>

080050c0 <__pow5mult>:
 80050c0:	e92d 43f8 	stmdb	sp!, {r3, r4, r5, r6, r7, r8, r9, lr}
 80050c4:	4615      	mov	r5, r2
 80050c6:	f012 0203 	ands.w	r2, r2, #3
 80050ca:	4606      	mov	r6, r0
 80050cc:	460f      	mov	r7, r1
 80050ce:	d007      	beq.n	80050e0 <__pow5mult+0x20>
 80050d0:	3a01      	subs	r2, #1
 80050d2:	4c21      	ldr	r4, [pc, #132]	; (8005158 <__pow5mult+0x98>)
 80050d4:	2300      	movs	r3, #0
 80050d6:	f854 2022 	ldr.w	r2, [r4, r2, lsl #2]
 80050da:	f7ff fec9 	bl	8004e70 <__multadd>
 80050de:	4607      	mov	r7, r0
 80050e0:	10ad      	asrs	r5, r5, #2
 80050e2:	d035      	beq.n	8005150 <__pow5mult+0x90>
 80050e4:	6a74      	ldr	r4, [r6, #36]	; 0x24
 80050e6:	b93c      	cbnz	r4, 80050f8 <__pow5mult+0x38>
 80050e8:	2010      	movs	r0, #16
 80050ea:	f7ff fe63 	bl	8004db4 <malloc>
 80050ee:	6270      	str	r0, [r6, #36]	; 0x24
 80050f0:	e9c0 4401 	strd	r4, r4, [r0, #4]
 80050f4:	6004      	str	r4, [r0, #0]
 80050f6:	60c4      	str	r4, [r0, #12]
 80050f8:	f8d6 8024 	ldr.w	r8, [r6, #36]	; 0x24
 80050fc:	f8d8 4008 	ldr.w	r4, [r8, #8]
 8005100:	b94c      	cbnz	r4, 8005116 <__pow5mult+0x56>
 8005102:	f240 2171 	movw	r1, #625	; 0x271
 8005106:	4630      	mov	r0, r6
 8005108:	f7ff ff3b 	bl	8004f82 <__i2b>
 800510c:	2300      	movs	r3, #0
 800510e:	f8c8 0008 	str.w	r0, [r8, #8]
 8005112:	4604      	mov	r4, r0
 8005114:	6003      	str	r3, [r0, #0]
 8005116:	f04f 0800 	mov.w	r8, #0
 800511a:	07eb      	lsls	r3, r5, #31
 800511c:	d50a      	bpl.n	8005134 <__pow5mult+0x74>
 800511e:	4639      	mov	r1, r7
 8005120:	4622      	mov	r2, r4
 8005122:	4630      	mov	r0, r6
 8005124:	f7ff ff36 	bl	8004f94 <__multiply>
 8005128:	4639      	mov	r1, r7
 800512a:	4681      	mov	r9, r0
 800512c:	4630      	mov	r0, r6
 800512e:	f7ff fe88 	bl	8004e42 <_Bfree>
 8005132:	464f      	mov	r7, r9
 8005134:	106d      	asrs	r5, r5, #1
 8005136:	d00b      	beq.n	8005150 <__pow5mult+0x90>
 8005138:	6820      	ldr	r0, [r4, #0]
 800513a:	b938      	cbnz	r0, 800514c <__pow5mult+0x8c>
 800513c:	4622      	mov	r2, r4
 800513e:	4621      	mov	r1, r4
 8005140:	4630      	mov	r0, r6
 8005142:	f7ff ff27 	bl	8004f94 <__multiply>
 8005146:	6020      	str	r0, [r4, #0]
 8005148:	f8c0 8000 	str.w	r8, [r0]
 800514c:	4604      	mov	r4, r0
 800514e:	e7e4      	b.n	800511a <__pow5mult+0x5a>
 8005150:	4638      	mov	r0, r7
 8005152:	e8bd 83f8 	ldmia.w	sp!, {r3, r4, r5, r6, r7, r8, r9, pc}
 8005156:	bf00      	nop
 8005158:	080063e8 	.word	0x080063e8

0800515c <__lshift>:
 800515c:	e92d 47f0 	stmdb	sp!, {r4, r5, r6, r7, r8, r9, sl, lr}
 8005160:	460c      	mov	r4, r1
 8005162:	ea4f 1a62 	mov.w	sl, r2, asr #5
 8005166:	6923      	ldr	r3, [r4, #16]
 8005168:	6849      	ldr	r1, [r1, #4]
 800516a:	eb0a 0903 	add.w	r9, sl, r3
 800516e:	68a3      	ldr	r3, [r4, #8]
 8005170:	4607      	mov	r7, r0
 8005172:	4616      	mov	r6, r2
 8005174:	f109 0501 	add.w	r5, r9, #1
 8005178:	42ab      	cmp	r3, r5
 800517a:	db32      	blt.n	80051e2 <__lshift+0x86>
 800517c:	4638      	mov	r0, r7
 800517e:	f7ff fe2c 	bl	8004dda <_Balloc>
 8005182:	2300      	movs	r3, #0
 8005184:	4680      	mov	r8, r0
 8005186:	f100 0114 	add.w	r1, r0, #20
 800518a:	461a      	mov	r2, r3
 800518c:	4553      	cmp	r3, sl
 800518e:	db2b      	blt.n	80051e8 <__lshift+0x8c>
 8005190:	6920      	ldr	r0, [r4, #16]
 8005192:	ea2a 7aea 	bic.w	sl, sl, sl, asr #31
 8005196:	f104 0314 	add.w	r3, r4, #20
 800519a:	f016 021f 	ands.w	r2, r6, #31
 800519e:	eb01 018a 	add.w	r1, r1, sl, lsl #2
 80051a2:	eb03 0c80 	add.w	ip, r3, r0, lsl #2
 80051a6:	d025      	beq.n	80051f4 <__lshift+0x98>
 80051a8:	f1c2 0e20 	rsb	lr, r2, #32
 80051ac:	2000      	movs	r0, #0
 80051ae:	681e      	ldr	r6, [r3, #0]
 80051b0:	468a      	mov	sl, r1
 80051b2:	4096      	lsls	r6, r2
 80051b4:	4330      	orrs	r0, r6
 80051b6:	f84a 0b04 	str.w	r0, [sl], #4
 80051ba:	f853 0b04 	ldr.w	r0, [r3], #4
 80051be:	459c      	cmp	ip, r3
 80051c0:	fa20 f00e 	lsr.w	r0, r0, lr
 80051c4:	d814      	bhi.n	80051f0 <__lshift+0x94>
 80051c6:	6048      	str	r0, [r1, #4]
 80051c8:	b108      	cbz	r0, 80051ce <__lshift+0x72>
 80051ca:	f109 0502 	add.w	r5, r9, #2
 80051ce:	3d01      	subs	r5, #1
 80051d0:	4638      	mov	r0, r7
 80051d2:	f8c8 5010 	str.w	r5, [r8, #16]
 80051d6:	4621      	mov	r1, r4
 80051d8:	f7ff fe33 	bl	8004e42 <_Bfree>
 80051dc:	4640      	mov	r0, r8
 80051de:	e8bd 87f0 	ldmia.w	sp!, {r4, r5, r6, r7, r8, r9, sl, pc}
 80051e2:	3101      	adds	r1, #1
 80051e4:	005b      	lsls	r3, r3, #1
 80051e6:	e7c7      	b.n	8005178 <__lshift+0x1c>
 80051e8:	f841 2023 	str.w	r2, [r1, r3, lsl #2]
 80051ec:	3301      	adds	r3, #1
 80051ee:	e7cd      	b.n	800518c <__lshift+0x30>
 80051f0:	4651      	mov	r1, sl
 80051f2:	e7dc      	b.n	80051ae <__lshift+0x52>
 80051f4:	3904      	subs	r1, #4
 80051f6:	f853 2b04 	ldr.w	r2, [r3], #4
 80051fa:	f841 2f04 	str.w	r2, [r1, #4]!
 80051fe:	459c      	cmp	ip, r3
 8005200:	d8f9      	bhi.n	80051f6 <__lshift+0x9a>
 8005202:	e7e4      	b.n	80051ce <__lshift+0x72>

08005204 <__mcmp>:
 8005204:	6903      	ldr	r3, [r0, #16]
 8005206:	690a      	ldr	r2, [r1, #16]
 8005208:	1a9b      	subs	r3, r3, r2
 800520a:	b530      	push	{r4, r5, lr}
 800520c:	d10c      	bne.n	8005228 <__mcmp+0x24>
 800520e:	0092      	lsls	r2, r2, #2
 8005210:	3014      	adds	r0, #20
 8005212:	3114      	adds	r1, #20
 8005214:	1884      	adds	r4, r0, r2
 8005216:	4411      	add	r1, r2
 8005218:	f854 5d04 	ldr.w	r5, [r4, #-4]!
 800521c:	f851 2d04 	ldr.w	r2, [r1, #-4]!
 8005220:	4295      	cmp	r5, r2
 8005222:	d003      	beq.n	800522c <__mcmp+0x28>
 8005224:	d305      	bcc.n	8005232 <__mcmp+0x2e>
 8005226:	2301      	movs	r3, #1
 8005228:	4618      	mov	r0, r3
 800522a:	bd30      	pop	{r4, r5, pc}
 800522c:	42a0      	cmp	r0, r4
 800522e:	d3f3      	bcc.n	8005218 <__mcmp+0x14>
 8005230:	e7fa      	b.n	8005228 <__mcmp+0x24>
 8005232:	f04f 33ff 	mov.w	r3, #4294967295
 8005236:	e7f7      	b.n	8005228 <__mcmp+0x24>

08005238 <__mdiff>:
 8005238:	e92d 47f0 	stmdb	sp!, {r4, r5, r6, r7, r8, r9, sl, lr}
 800523c:	460d      	mov	r5, r1
 800523e:	4607      	mov	r7, r0
 8005240:	4611      	mov	r1, r2
 8005242:	4628      	mov	r0, r5
 8005244:	4614      	mov	r4, r2
 8005246:	f7ff ffdd 	bl	8005204 <__mcmp>
 800524a:	1e06      	subs	r6, r0, #0
 800524c:	d108      	bne.n	8005260 <__mdiff+0x28>
 800524e:	4631      	mov	r1, r6
 8005250:	4638      	mov	r0, r7
 8005252:	f7ff fdc2 	bl	8004dda <_Balloc>
 8005256:	2301      	movs	r3, #1
 8005258:	e9c0 3604 	strd	r3, r6, [r0, #16]
 800525c:	e8bd 87f0 	ldmia.w	sp!, {r4, r5, r6, r7, r8, r9, sl, pc}
 8005260:	bfa4      	itt	ge
 8005262:	4623      	movge	r3, r4
 8005264:	462c      	movge	r4, r5
 8005266:	4638      	mov	r0, r7
 8005268:	6861      	ldr	r1, [r4, #4]
 800526a:	bfa6      	itte	ge
 800526c:	461d      	movge	r5, r3
 800526e:	2600      	movge	r6, #0
 8005270:	2601      	movlt	r6, #1
 8005272:	f7ff fdb2 	bl	8004dda <_Balloc>
 8005276:	692b      	ldr	r3, [r5, #16]
 8005278:	60c6      	str	r6, [r0, #12]
 800527a:	6926      	ldr	r6, [r4, #16]
 800527c:	f105 0914 	add.w	r9, r5, #20
 8005280:	f104 0214 	add.w	r2, r4, #20
 8005284:	eb02 0786 	add.w	r7, r2, r6, lsl #2
 8005288:	eb09 0883 	add.w	r8, r9, r3, lsl #2
 800528c:	f100 0514 	add.w	r5, r0, #20
 8005290:	f04f 0e00 	mov.w	lr, #0
 8005294:	f852 ab04 	ldr.w	sl, [r2], #4
 8005298:	f859 4b04 	ldr.w	r4, [r9], #4
 800529c:	fa1e f18a 	uxtah	r1, lr, sl
 80052a0:	b2a3      	uxth	r3, r4
 80052a2:	1ac9      	subs	r1, r1, r3
 80052a4:	0c23      	lsrs	r3, r4, #16
 80052a6:	ebc3 431a 	rsb	r3, r3, sl, lsr #16
 80052aa:	eb03 4321 	add.w	r3, r3, r1, asr #16
 80052ae:	b289      	uxth	r1, r1
 80052b0:	ea4f 4e23 	mov.w	lr, r3, asr #16
 80052b4:	45c8      	cmp	r8, r9
 80052b6:	ea41 4303 	orr.w	r3, r1, r3, lsl #16
 80052ba:	4694      	mov	ip, r2
 80052bc:	f845 3b04 	str.w	r3, [r5], #4
 80052c0:	d8e8      	bhi.n	8005294 <__mdiff+0x5c>
 80052c2:	45bc      	cmp	ip, r7
 80052c4:	d304      	bcc.n	80052d0 <__mdiff+0x98>
 80052c6:	f855 3d04 	ldr.w	r3, [r5, #-4]!
 80052ca:	b183      	cbz	r3, 80052ee <__mdiff+0xb6>
 80052cc:	6106      	str	r6, [r0, #16]
 80052ce:	e7c5      	b.n	800525c <__mdiff+0x24>
 80052d0:	f85c 1b04 	ldr.w	r1, [ip], #4
 80052d4:	fa1e f381 	uxtah	r3, lr, r1
 80052d8:	141a      	asrs	r2, r3, #16
 80052da:	eb02 4211 	add.w	r2, r2, r1, lsr #16
 80052de:	b29b      	uxth	r3, r3
 80052e0:	ea43 4302 	orr.w	r3, r3, r2, lsl #16
 80052e4:	ea4f 4e22 	mov.w	lr, r2, asr #16
 80052e8:	f845 3b04 	str.w	r3, [r5], #4
 80052ec:	e7e9      	b.n	80052c2 <__mdiff+0x8a>
 80052ee:	3e01      	subs	r6, #1
 80052f0:	e7e9      	b.n	80052c6 <__mdiff+0x8e>

080052f2 <__d2b>:
 80052f2:	e92d 43f7 	stmdb	sp!, {r0, r1, r2, r4, r5, r6, r7, r8, r9, lr}
 80052f6:	460e      	mov	r6, r1
 80052f8:	2101      	movs	r1, #1
 80052fa:	ec59 8b10 	vmov	r8, r9, d0
 80052fe:	4615      	mov	r5, r2
 8005300:	f7ff fd6b 	bl	8004dda <_Balloc>
 8005304:	f3c9 540a 	ubfx	r4, r9, #20, #11
 8005308:	4607      	mov	r7, r0
 800530a:	f3c9 0313 	ubfx	r3, r9, #0, #20
 800530e:	bb34      	cbnz	r4, 800535e <__d2b+0x6c>
 8005310:	9301      	str	r3, [sp, #4]
 8005312:	f1b8 0300 	subs.w	r3, r8, #0
 8005316:	d027      	beq.n	8005368 <__d2b+0x76>
 8005318:	a802      	add	r0, sp, #8
 800531a:	f840 3d08 	str.w	r3, [r0, #-8]!
 800531e:	f7ff fe01 	bl	8004f24 <__lo0bits>
 8005322:	9900      	ldr	r1, [sp, #0]
 8005324:	b1f0      	cbz	r0, 8005364 <__d2b+0x72>
 8005326:	9a01      	ldr	r2, [sp, #4]
 8005328:	f1c0 0320 	rsb	r3, r0, #32
 800532c:	fa02 f303 	lsl.w	r3, r2, r3
 8005330:	430b      	orrs	r3, r1
 8005332:	40c2      	lsrs	r2, r0
 8005334:	617b      	str	r3, [r7, #20]
 8005336:	9201      	str	r2, [sp, #4]
 8005338:	9b01      	ldr	r3, [sp, #4]
 800533a:	61bb      	str	r3, [r7, #24]
 800533c:	2b00      	cmp	r3, #0
 800533e:	bf14      	ite	ne
 8005340:	2102      	movne	r1, #2
 8005342:	2101      	moveq	r1, #1
 8005344:	6139      	str	r1, [r7, #16]
 8005346:	b1c4      	cbz	r4, 800537a <__d2b+0x88>
 8005348:	f2a4 4433 	subw	r4, r4, #1075	; 0x433
 800534c:	4404      	add	r4, r0
 800534e:	6034      	str	r4, [r6, #0]
 8005350:	f1c0 0035 	rsb	r0, r0, #53	; 0x35
 8005354:	6028      	str	r0, [r5, #0]
 8005356:	4638      	mov	r0, r7
 8005358:	b003      	add	sp, #12
 800535a:	e8bd 83f0 	ldmia.w	sp!, {r4, r5, r6, r7, r8, r9, pc}
 800535e:	f443 1380 	orr.w	r3, r3, #1048576	; 0x100000
 8005362:	e7d5      	b.n	8005310 <__d2b+0x1e>
 8005364:	6179      	str	r1, [r7, #20]
 8005366:	e7e7      	b.n	8005338 <__d2b+0x46>
 8005368:	a801      	add	r0, sp, #4
 800536a:	f7ff fddb 	bl	8004f24 <__lo0bits>
 800536e:	9b01      	ldr	r3, [sp, #4]
 8005370:	617b      	str	r3, [r7, #20]
 8005372:	2101      	movs	r1, #1
 8005374:	6139      	str	r1, [r7, #16]
 8005376:	3020      	adds	r0, #32
 8005378:	e7e5      	b.n	8005346 <__d2b+0x54>
 800537a:	eb07 0381 	add.w	r3, r7, r1, lsl #2
 800537e:	f2a0 4032 	subw	r0, r0, #1074	; 0x432
 8005382:	6030      	str	r0, [r6, #0]
 8005384:	6918      	ldr	r0, [r3, #16]
 8005386:	f7ff fdae 	bl	8004ee6 <__hi0bits>
 800538a:	ebc0 1041 	rsb	r0, r0, r1, lsl #5
 800538e:	e7e1      	b.n	8005354 <__d2b+0x62>

08005390 <_calloc_r>:
 8005390:	b538      	push	{r3, r4, r5, lr}
 8005392:	fb02 f401 	mul.w	r4, r2, r1
 8005396:	4621      	mov	r1, r4
 8005398:	f000 f856 	bl	8005448 <_malloc_r>
 800539c:	4605      	mov	r5, r0
 800539e:	b118      	cbz	r0, 80053a8 <_calloc_r+0x18>
 80053a0:	4622      	mov	r2, r4
 80053a2:	2100      	movs	r1, #0
 80053a4:	f7fe f9d6 	bl	8003754 <memset>
 80053a8:	4628      	mov	r0, r5
 80053aa:	bd38      	pop	{r3, r4, r5, pc}

080053ac <_free_r>:
 80053ac:	b538      	push	{r3, r4, r5, lr}
 80053ae:	4605      	mov	r5, r0
 80053b0:	2900      	cmp	r1, #0
 80053b2:	d045      	beq.n	8005440 <_free_r+0x94>
 80053b4:	f851 3c04 	ldr.w	r3, [r1, #-4]
 80053b8:	1f0c      	subs	r4, r1, #4
 80053ba:	2b00      	cmp	r3, #0
 80053bc:	bfb8      	it	lt
 80053be:	18e4      	addlt	r4, r4, r3
 80053c0:	f000 fec3 	bl	800614a <__malloc_lock>
 80053c4:	4a1f      	ldr	r2, [pc, #124]	; (8005444 <_free_r+0x98>)
 80053c6:	6813      	ldr	r3, [r2, #0]
 80053c8:	4610      	mov	r0, r2
 80053ca:	b933      	cbnz	r3, 80053da <_free_r+0x2e>
 80053cc:	6063      	str	r3, [r4, #4]
 80053ce:	6014      	str	r4, [r2, #0]
 80053d0:	4628      	mov	r0, r5
 80053d2:	e8bd 4038 	ldmia.w	sp!, {r3, r4, r5, lr}
 80053d6:	f000 beb9 	b.w	800614c <__malloc_unlock>
 80053da:	42a3      	cmp	r3, r4
 80053dc:	d90c      	bls.n	80053f8 <_free_r+0x4c>
 80053de:	6821      	ldr	r1, [r4, #0]
 80053e0:	1862      	adds	r2, r4, r1
 80053e2:	4293      	cmp	r3, r2
 80053e4:	bf04      	itt	eq
 80053e6:	681a      	ldreq	r2, [r3, #0]
 80053e8:	685b      	ldreq	r3, [r3, #4]
 80053ea:	6063      	str	r3, [r4, #4]
 80053ec:	bf04      	itt	eq
 80053ee:	1852      	addeq	r2, r2, r1
 80053f0:	6022      	streq	r2, [r4, #0]
 80053f2:	6004      	str	r4, [r0, #0]
 80053f4:	e7ec      	b.n	80053d0 <_free_r+0x24>
 80053f6:	4613      	mov	r3, r2
 80053f8:	685a      	ldr	r2, [r3, #4]
 80053fa:	b10a      	cbz	r2, 8005400 <_free_r+0x54>
 80053fc:	42a2      	cmp	r2, r4
 80053fe:	d9fa      	bls.n	80053f6 <_free_r+0x4a>
 8005400:	6819      	ldr	r1, [r3, #0]
 8005402:	1858      	adds	r0, r3, r1
 8005404:	42a0      	cmp	r0, r4
 8005406:	d10b      	bne.n	8005420 <_free_r+0x74>
 8005408:	6820      	ldr	r0, [r4, #0]
 800540a:	4401      	add	r1, r0
 800540c:	1858      	adds	r0, r3, r1
 800540e:	4282      	cmp	r2, r0
 8005410:	6019      	str	r1, [r3, #0]
 8005412:	d1dd      	bne.n	80053d0 <_free_r+0x24>
 8005414:	6810      	ldr	r0, [r2, #0]
 8005416:	6852      	ldr	r2, [r2, #4]
 8005418:	605a      	str	r2, [r3, #4]
 800541a:	4401      	add	r1, r0
 800541c:	6019      	str	r1, [r3, #0]
 800541e:	e7d7      	b.n	80053d0 <_free_r+0x24>
 8005420:	d902      	bls.n	8005428 <_free_r+0x7c>
 8005422:	230c      	movs	r3, #12
 8005424:	602b      	str	r3, [r5, #0]
 8005426:	e7d3      	b.n	80053d0 <_free_r+0x24>
 8005428:	6820      	ldr	r0, [r4, #0]
 800542a:	1821      	adds	r1, r4, r0
 800542c:	428a      	cmp	r2, r1
 800542e:	bf04      	itt	eq
 8005430:	6811      	ldreq	r1, [r2, #0]
 8005432:	6852      	ldreq	r2, [r2, #4]
 8005434:	6062      	str	r2, [r4, #4]
 8005436:	bf04      	itt	eq
 8005438:	1809      	addeq	r1, r1, r0
 800543a:	6021      	streq	r1, [r4, #0]
 800543c:	605c      	str	r4, [r3, #4]
 800543e:	e7c7      	b.n	80053d0 <_free_r+0x24>
 8005440:	bd38      	pop	{r3, r4, r5, pc}
 8005442:	bf00      	nop
 8005444:	20000218 	.word	0x20000218

08005448 <_malloc_r>:
 8005448:	b570      	push	{r4, r5, r6, lr}
 800544a:	1ccd      	adds	r5, r1, #3
 800544c:	f025 0503 	bic.w	r5, r5, #3
 8005450:	3508      	adds	r5, #8
 8005452:	2d0c      	cmp	r5, #12
 8005454:	bf38      	it	cc
 8005456:	250c      	movcc	r5, #12
 8005458:	2d00      	cmp	r5, #0
 800545a:	4606      	mov	r6, r0
 800545c:	db01      	blt.n	8005462 <_malloc_r+0x1a>
 800545e:	42a9      	cmp	r1, r5
 8005460:	d903      	bls.n	800546a <_malloc_r+0x22>
 8005462:	230c      	movs	r3, #12
 8005464:	6033      	str	r3, [r6, #0]
 8005466:	2000      	movs	r0, #0
 8005468:	bd70      	pop	{r4, r5, r6, pc}
 800546a:	f000 fe6e 	bl	800614a <__malloc_lock>
 800546e:	4a21      	ldr	r2, [pc, #132]	; (80054f4 <_malloc_r+0xac>)
 8005470:	6814      	ldr	r4, [r2, #0]
 8005472:	4621      	mov	r1, r4
 8005474:	b991      	cbnz	r1, 800549c <_malloc_r+0x54>
 8005476:	4c20      	ldr	r4, [pc, #128]	; (80054f8 <_malloc_r+0xb0>)
 8005478:	6823      	ldr	r3, [r4, #0]
 800547a:	b91b      	cbnz	r3, 8005484 <_malloc_r+0x3c>
 800547c:	4630      	mov	r0, r6
 800547e:	f000 fc91 	bl	8005da4 <_sbrk_r>
 8005482:	6020      	str	r0, [r4, #0]
 8005484:	4629      	mov	r1, r5
 8005486:	4630      	mov	r0, r6
 8005488:	f000 fc8c 	bl	8005da4 <_sbrk_r>
 800548c:	1c43      	adds	r3, r0, #1
 800548e:	d124      	bne.n	80054da <_malloc_r+0x92>
 8005490:	230c      	movs	r3, #12
 8005492:	6033      	str	r3, [r6, #0]
 8005494:	4630      	mov	r0, r6
 8005496:	f000 fe59 	bl	800614c <__malloc_unlock>
 800549a:	e7e4      	b.n	8005466 <_malloc_r+0x1e>
 800549c:	680b      	ldr	r3, [r1, #0]
 800549e:	1b5b      	subs	r3, r3, r5
 80054a0:	d418      	bmi.n	80054d4 <_malloc_r+0x8c>
 80054a2:	2b0b      	cmp	r3, #11
 80054a4:	d90f      	bls.n	80054c6 <_malloc_r+0x7e>
 80054a6:	600b      	str	r3, [r1, #0]
 80054a8:	50cd      	str	r5, [r1, r3]
 80054aa:	18cc      	adds	r4, r1, r3
 80054ac:	4630      	mov	r0, r6
 80054ae:	f000 fe4d 	bl	800614c <__malloc_unlock>
 80054b2:	f104 000b 	add.w	r0, r4, #11
 80054b6:	1d23      	adds	r3, r4, #4
 80054b8:	f020 0007 	bic.w	r0, r0, #7
 80054bc:	1ac3      	subs	r3, r0, r3
 80054be:	d0d3      	beq.n	8005468 <_malloc_r+0x20>
 80054c0:	425a      	negs	r2, r3
 80054c2:	50e2      	str	r2, [r4, r3]
 80054c4:	e7d0      	b.n	8005468 <_malloc_r+0x20>
 80054c6:	428c      	cmp	r4, r1
 80054c8:	684b      	ldr	r3, [r1, #4]
 80054ca:	bf16      	itet	ne
 80054cc:	6063      	strne	r3, [r4, #4]
 80054ce:	6013      	streq	r3, [r2, #0]
 80054d0:	460c      	movne	r4, r1
 80054d2:	e7eb      	b.n	80054ac <_malloc_r+0x64>
 80054d4:	460c      	mov	r4, r1
 80054d6:	6849      	ldr	r1, [r1, #4]
 80054d8:	e7cc      	b.n	8005474 <_malloc_r+0x2c>
 80054da:	1cc4      	adds	r4, r0, #3
 80054dc:	f024 0403 	bic.w	r4, r4, #3
 80054e0:	42a0      	cmp	r0, r4
 80054e2:	d005      	beq.n	80054f0 <_malloc_r+0xa8>
 80054e4:	1a21      	subs	r1, r4, r0
 80054e6:	4630      	mov	r0, r6
 80054e8:	f000 fc5c 	bl	8005da4 <_sbrk_r>
 80054ec:	3001      	adds	r0, #1
 80054ee:	d0cf      	beq.n	8005490 <_malloc_r+0x48>
 80054f0:	6025      	str	r5, [r4, #0]
 80054f2:	e7db      	b.n	80054ac <_malloc_r+0x64>
 80054f4:	20000218 	.word	0x20000218
 80054f8:	2000021c 	.word	0x2000021c

080054fc <__ssputs_r>:
 80054fc:	e92d 47f0 	stmdb	sp!, {r4, r5, r6, r7, r8, r9, sl, lr}
 8005500:	688e      	ldr	r6, [r1, #8]
 8005502:	429e      	cmp	r6, r3
 8005504:	4682      	mov	sl, r0
 8005506:	460c      	mov	r4, r1
 8005508:	4690      	mov	r8, r2
 800550a:	4699      	mov	r9, r3
 800550c:	d837      	bhi.n	800557e <__ssputs_r+0x82>
 800550e:	898a      	ldrh	r2, [r1, #12]
 8005510:	f412 6f90 	tst.w	r2, #1152	; 0x480
 8005514:	d031      	beq.n	800557a <__ssputs_r+0x7e>
 8005516:	6825      	ldr	r5, [r4, #0]
 8005518:	6909      	ldr	r1, [r1, #16]
 800551a:	1a6f      	subs	r7, r5, r1
 800551c:	6965      	ldr	r5, [r4, #20]
 800551e:	2302      	movs	r3, #2
 8005520:	eb05 0545 	add.w	r5, r5, r5, lsl #1
 8005524:	fb95 f5f3 	sdiv	r5, r5, r3
 8005528:	f109 0301 	add.w	r3, r9, #1
 800552c:	443b      	add	r3, r7
 800552e:	429d      	cmp	r5, r3
 8005530:	bf38      	it	cc
 8005532:	461d      	movcc	r5, r3
 8005534:	0553      	lsls	r3, r2, #21
 8005536:	d530      	bpl.n	800559a <__ssputs_r+0x9e>
 8005538:	4629      	mov	r1, r5
 800553a:	f7ff ff85 	bl	8005448 <_malloc_r>
 800553e:	4606      	mov	r6, r0
 8005540:	b950      	cbnz	r0, 8005558 <__ssputs_r+0x5c>
 8005542:	230c      	movs	r3, #12
 8005544:	f8ca 3000 	str.w	r3, [sl]
 8005548:	89a3      	ldrh	r3, [r4, #12]
 800554a:	f043 0340 	orr.w	r3, r3, #64	; 0x40
 800554e:	81a3      	strh	r3, [r4, #12]
 8005550:	f04f 30ff 	mov.w	r0, #4294967295
 8005554:	e8bd 87f0 	ldmia.w	sp!, {r4, r5, r6, r7, r8, r9, sl, pc}
 8005558:	463a      	mov	r2, r7
 800555a:	6921      	ldr	r1, [r4, #16]
 800555c:	f7ff fc32 	bl	8004dc4 <memcpy>
 8005560:	89a3      	ldrh	r3, [r4, #12]
 8005562:	f423 6390 	bic.w	r3, r3, #1152	; 0x480
 8005566:	f043 0380 	orr.w	r3, r3, #128	; 0x80
 800556a:	81a3      	strh	r3, [r4, #12]
 800556c:	6126      	str	r6, [r4, #16]
 800556e:	6165      	str	r5, [r4, #20]
 8005570:	443e      	add	r6, r7
 8005572:	1bed      	subs	r5, r5, r7
 8005574:	6026      	str	r6, [r4, #0]
 8005576:	60a5      	str	r5, [r4, #8]
 8005578:	464e      	mov	r6, r9
 800557a:	454e      	cmp	r6, r9
 800557c:	d900      	bls.n	8005580 <__ssputs_r+0x84>
 800557e:	464e      	mov	r6, r9
 8005580:	4632      	mov	r2, r6
 8005582:	4641      	mov	r1, r8
 8005584:	6820      	ldr	r0, [r4, #0]
 8005586:	f000 fdc7 	bl	8006118 <memmove>
 800558a:	68a3      	ldr	r3, [r4, #8]
 800558c:	1b9b      	subs	r3, r3, r6
 800558e:	60a3      	str	r3, [r4, #8]
 8005590:	6823      	ldr	r3, [r4, #0]
 8005592:	441e      	add	r6, r3
 8005594:	6026      	str	r6, [r4, #0]
 8005596:	2000      	movs	r0, #0
 8005598:	e7dc      	b.n	8005554 <__ssputs_r+0x58>
 800559a:	462a      	mov	r2, r5
 800559c:	f000 fdd7 	bl	800614e <_realloc_r>
 80055a0:	4606      	mov	r6, r0
 80055a2:	2800      	cmp	r0, #0
 80055a4:	d1e2      	bne.n	800556c <__ssputs_r+0x70>
 80055a6:	6921      	ldr	r1, [r4, #16]
 80055a8:	4650      	mov	r0, sl
 80055aa:	f7ff feff 	bl	80053ac <_free_r>
 80055ae:	e7c8      	b.n	8005542 <__ssputs_r+0x46>

080055b0 <_svfiprintf_r>:
 80055b0:	e92d 4ff0 	stmdb	sp!, {r4, r5, r6, r7, r8, r9, sl, fp, lr}
 80055b4:	461d      	mov	r5, r3
 80055b6:	898b      	ldrh	r3, [r1, #12]
 80055b8:	061f      	lsls	r7, r3, #24
 80055ba:	b09d      	sub	sp, #116	; 0x74
 80055bc:	4680      	mov	r8, r0
 80055be:	460c      	mov	r4, r1
 80055c0:	4616      	mov	r6, r2
 80055c2:	d50f      	bpl.n	80055e4 <_svfiprintf_r+0x34>
 80055c4:	690b      	ldr	r3, [r1, #16]
 80055c6:	b96b      	cbnz	r3, 80055e4 <_svfiprintf_r+0x34>
 80055c8:	2140      	movs	r1, #64	; 0x40
 80055ca:	f7ff ff3d 	bl	8005448 <_malloc_r>
 80055ce:	6020      	str	r0, [r4, #0]
 80055d0:	6120      	str	r0, [r4, #16]
 80055d2:	b928      	cbnz	r0, 80055e0 <_svfiprintf_r+0x30>
 80055d4:	230c      	movs	r3, #12
 80055d6:	f8c8 3000 	str.w	r3, [r8]
 80055da:	f04f 30ff 	mov.w	r0, #4294967295
 80055de:	e0c8      	b.n	8005772 <_svfiprintf_r+0x1c2>
 80055e0:	2340      	movs	r3, #64	; 0x40
 80055e2:	6163      	str	r3, [r4, #20]
 80055e4:	2300      	movs	r3, #0
 80055e6:	9309      	str	r3, [sp, #36]	; 0x24
 80055e8:	2320      	movs	r3, #32
 80055ea:	f88d 3029 	strb.w	r3, [sp, #41]	; 0x29
 80055ee:	2330      	movs	r3, #48	; 0x30
 80055f0:	f88d 302a 	strb.w	r3, [sp, #42]	; 0x2a
 80055f4:	9503      	str	r5, [sp, #12]
 80055f6:	f04f 0b01 	mov.w	fp, #1
 80055fa:	4637      	mov	r7, r6
 80055fc:	463d      	mov	r5, r7
 80055fe:	f815 3b01 	ldrb.w	r3, [r5], #1
 8005602:	b10b      	cbz	r3, 8005608 <_svfiprintf_r+0x58>
 8005604:	2b25      	cmp	r3, #37	; 0x25
 8005606:	d13e      	bne.n	8005686 <_svfiprintf_r+0xd6>
 8005608:	ebb7 0a06 	subs.w	sl, r7, r6
 800560c:	d00b      	beq.n	8005626 <_svfiprintf_r+0x76>
 800560e:	4653      	mov	r3, sl
 8005610:	4632      	mov	r2, r6
 8005612:	4621      	mov	r1, r4
 8005614:	4640      	mov	r0, r8
 8005616:	f7ff ff71 	bl	80054fc <__ssputs_r>
 800561a:	3001      	adds	r0, #1
 800561c:	f000 80a4 	beq.w	8005768 <_svfiprintf_r+0x1b8>
 8005620:	9b09      	ldr	r3, [sp, #36]	; 0x24
 8005622:	4453      	add	r3, sl
 8005624:	9309      	str	r3, [sp, #36]	; 0x24
 8005626:	783b      	ldrb	r3, [r7, #0]
 8005628:	2b00      	cmp	r3, #0
 800562a:	f000 809d 	beq.w	8005768 <_svfiprintf_r+0x1b8>
 800562e:	2300      	movs	r3, #0
 8005630:	f04f 32ff 	mov.w	r2, #4294967295
 8005634:	e9cd 2305 	strd	r2, r3, [sp, #20]
 8005638:	9304      	str	r3, [sp, #16]
 800563a:	9307      	str	r3, [sp, #28]
 800563c:	f88d 3053 	strb.w	r3, [sp, #83]	; 0x53
 8005640:	931a      	str	r3, [sp, #104]	; 0x68
 8005642:	462f      	mov	r7, r5
 8005644:	2205      	movs	r2, #5
 8005646:	f817 1b01 	ldrb.w	r1, [r7], #1
 800564a:	4850      	ldr	r0, [pc, #320]	; (800578c <_svfiprintf_r+0x1dc>)
 800564c:	f7fa fdc8 	bl	80001e0 <memchr>
 8005650:	9b04      	ldr	r3, [sp, #16]
 8005652:	b9d0      	cbnz	r0, 800568a <_svfiprintf_r+0xda>
 8005654:	06d9      	lsls	r1, r3, #27
 8005656:	bf44      	itt	mi
 8005658:	2220      	movmi	r2, #32
 800565a:	f88d 2053 	strbmi.w	r2, [sp, #83]	; 0x53
 800565e:	071a      	lsls	r2, r3, #28
 8005660:	bf44      	itt	mi
 8005662:	222b      	movmi	r2, #43	; 0x2b
 8005664:	f88d 2053 	strbmi.w	r2, [sp, #83]	; 0x53
 8005668:	782a      	ldrb	r2, [r5, #0]
 800566a:	2a2a      	cmp	r2, #42	; 0x2a
 800566c:	d015      	beq.n	800569a <_svfiprintf_r+0xea>
 800566e:	9a07      	ldr	r2, [sp, #28]
 8005670:	462f      	mov	r7, r5
 8005672:	2000      	movs	r0, #0
 8005674:	250a      	movs	r5, #10
 8005676:	4639      	mov	r1, r7
 8005678:	f811 3b01 	ldrb.w	r3, [r1], #1
 800567c:	3b30      	subs	r3, #48	; 0x30
 800567e:	2b09      	cmp	r3, #9
 8005680:	d94d      	bls.n	800571e <_svfiprintf_r+0x16e>
 8005682:	b1b8      	cbz	r0, 80056b4 <_svfiprintf_r+0x104>
 8005684:	e00f      	b.n	80056a6 <_svfiprintf_r+0xf6>
 8005686:	462f      	mov	r7, r5
 8005688:	e7b8      	b.n	80055fc <_svfiprintf_r+0x4c>
 800568a:	4a40      	ldr	r2, [pc, #256]	; (800578c <_svfiprintf_r+0x1dc>)
 800568c:	1a80      	subs	r0, r0, r2
 800568e:	fa0b f000 	lsl.w	r0, fp, r0
 8005692:	4318      	orrs	r0, r3
 8005694:	9004      	str	r0, [sp, #16]
 8005696:	463d      	mov	r5, r7
 8005698:	e7d3      	b.n	8005642 <_svfiprintf_r+0x92>
 800569a:	9a03      	ldr	r2, [sp, #12]
 800569c:	1d11      	adds	r1, r2, #4
 800569e:	6812      	ldr	r2, [r2, #0]
 80056a0:	9103      	str	r1, [sp, #12]
 80056a2:	2a00      	cmp	r2, #0
 80056a4:	db01      	blt.n	80056aa <_svfiprintf_r+0xfa>
 80056a6:	9207      	str	r2, [sp, #28]
 80056a8:	e004      	b.n	80056b4 <_svfiprintf_r+0x104>
 80056aa:	4252      	negs	r2, r2
 80056ac:	f043 0302 	orr.w	r3, r3, #2
 80056b0:	9207      	str	r2, [sp, #28]
 80056b2:	9304      	str	r3, [sp, #16]
 80056b4:	783b      	ldrb	r3, [r7, #0]
 80056b6:	2b2e      	cmp	r3, #46	; 0x2e
 80056b8:	d10c      	bne.n	80056d4 <_svfiprintf_r+0x124>
 80056ba:	787b      	ldrb	r3, [r7, #1]
 80056bc:	2b2a      	cmp	r3, #42	; 0x2a
 80056be:	d133      	bne.n	8005728 <_svfiprintf_r+0x178>
 80056c0:	9b03      	ldr	r3, [sp, #12]
 80056c2:	1d1a      	adds	r2, r3, #4
 80056c4:	681b      	ldr	r3, [r3, #0]
 80056c6:	9203      	str	r2, [sp, #12]
 80056c8:	2b00      	cmp	r3, #0
 80056ca:	bfb8      	it	lt
 80056cc:	f04f 33ff 	movlt.w	r3, #4294967295
 80056d0:	3702      	adds	r7, #2
 80056d2:	9305      	str	r3, [sp, #20]
 80056d4:	4d2e      	ldr	r5, [pc, #184]	; (8005790 <_svfiprintf_r+0x1e0>)
 80056d6:	7839      	ldrb	r1, [r7, #0]
 80056d8:	2203      	movs	r2, #3
 80056da:	4628      	mov	r0, r5
 80056dc:	f7fa fd80 	bl	80001e0 <memchr>
 80056e0:	b138      	cbz	r0, 80056f2 <_svfiprintf_r+0x142>
 80056e2:	2340      	movs	r3, #64	; 0x40
 80056e4:	1b40      	subs	r0, r0, r5
 80056e6:	fa03 f000 	lsl.w	r0, r3, r0
 80056ea:	9b04      	ldr	r3, [sp, #16]
 80056ec:	4303      	orrs	r3, r0
 80056ee:	3701      	adds	r7, #1
 80056f0:	9304      	str	r3, [sp, #16]
 80056f2:	7839      	ldrb	r1, [r7, #0]
 80056f4:	4827      	ldr	r0, [pc, #156]	; (8005794 <_svfiprintf_r+0x1e4>)
 80056f6:	f88d 1028 	strb.w	r1, [sp, #40]	; 0x28
 80056fa:	2206      	movs	r2, #6
 80056fc:	1c7e      	adds	r6, r7, #1
 80056fe:	f7fa fd6f 	bl	80001e0 <memchr>
 8005702:	2800      	cmp	r0, #0
 8005704:	d038      	beq.n	8005778 <_svfiprintf_r+0x1c8>
 8005706:	4b24      	ldr	r3, [pc, #144]	; (8005798 <_svfiprintf_r+0x1e8>)
 8005708:	bb13      	cbnz	r3, 8005750 <_svfiprintf_r+0x1a0>
 800570a:	9b03      	ldr	r3, [sp, #12]
 800570c:	3307      	adds	r3, #7
 800570e:	f023 0307 	bic.w	r3, r3, #7
 8005712:	3308      	adds	r3, #8
 8005714:	9303      	str	r3, [sp, #12]
 8005716:	9b09      	ldr	r3, [sp, #36]	; 0x24
 8005718:	444b      	add	r3, r9
 800571a:	9309      	str	r3, [sp, #36]	; 0x24
 800571c:	e76d      	b.n	80055fa <_svfiprintf_r+0x4a>
 800571e:	fb05 3202 	mla	r2, r5, r2, r3
 8005722:	2001      	movs	r0, #1
 8005724:	460f      	mov	r7, r1
 8005726:	e7a6      	b.n	8005676 <_svfiprintf_r+0xc6>
 8005728:	2300      	movs	r3, #0
 800572a:	3701      	adds	r7, #1
 800572c:	9305      	str	r3, [sp, #20]
 800572e:	4619      	mov	r1, r3
 8005730:	250a      	movs	r5, #10
 8005732:	4638      	mov	r0, r7
 8005734:	f810 2b01 	ldrb.w	r2, [r0], #1
 8005738:	3a30      	subs	r2, #48	; 0x30
 800573a:	2a09      	cmp	r2, #9
 800573c:	d903      	bls.n	8005746 <_svfiprintf_r+0x196>
 800573e:	2b00      	cmp	r3, #0
 8005740:	d0c8      	beq.n	80056d4 <_svfiprintf_r+0x124>
 8005742:	9105      	str	r1, [sp, #20]
 8005744:	e7c6      	b.n	80056d4 <_svfiprintf_r+0x124>
 8005746:	fb05 2101 	mla	r1, r5, r1, r2
 800574a:	2301      	movs	r3, #1
 800574c:	4607      	mov	r7, r0
 800574e:	e7f0      	b.n	8005732 <_svfiprintf_r+0x182>
 8005750:	ab03      	add	r3, sp, #12
 8005752:	9300      	str	r3, [sp, #0]
 8005754:	4622      	mov	r2, r4
 8005756:	4b11      	ldr	r3, [pc, #68]	; (800579c <_svfiprintf_r+0x1ec>)
 8005758:	a904      	add	r1, sp, #16
 800575a:	4640      	mov	r0, r8
 800575c:	f7fe f896 	bl	800388c <_printf_float>
 8005760:	f1b0 3fff 	cmp.w	r0, #4294967295
 8005764:	4681      	mov	r9, r0
 8005766:	d1d6      	bne.n	8005716 <_svfiprintf_r+0x166>
 8005768:	89a3      	ldrh	r3, [r4, #12]
 800576a:	065b      	lsls	r3, r3, #25
 800576c:	f53f af35 	bmi.w	80055da <_svfiprintf_r+0x2a>
 8005770:	9809      	ldr	r0, [sp, #36]	; 0x24
 8005772:	b01d      	add	sp, #116	; 0x74
 8005774:	e8bd 8ff0 	ldmia.w	sp!, {r4, r5, r6, r7, r8, r9, sl, fp, pc}
 8005778:	ab03      	add	r3, sp, #12
 800577a:	9300      	str	r3, [sp, #0]
 800577c:	4622      	mov	r2, r4
 800577e:	4b07      	ldr	r3, [pc, #28]	; (800579c <_svfiprintf_r+0x1ec>)
 8005780:	a904      	add	r1, sp, #16
 8005782:	4640      	mov	r0, r8
 8005784:	f7fe fb38 	bl	8003df8 <_printf_i>
 8005788:	e7ea      	b.n	8005760 <_svfiprintf_r+0x1b0>
 800578a:	bf00      	nop
 800578c:	080063f4 	.word	0x080063f4
 8005790:	080063fa 	.word	0x080063fa
 8005794:	080063fe 	.word	0x080063fe
 8005798:	0800388d 	.word	0x0800388d
 800579c:	080054fd 	.word	0x080054fd

080057a0 <_sungetc_r>:
 80057a0:	b538      	push	{r3, r4, r5, lr}
 80057a2:	1c4b      	adds	r3, r1, #1
 80057a4:	4614      	mov	r4, r2
 80057a6:	d103      	bne.n	80057b0 <_sungetc_r+0x10>
 80057a8:	f04f 35ff 	mov.w	r5, #4294967295
 80057ac:	4628      	mov	r0, r5
 80057ae:	bd38      	pop	{r3, r4, r5, pc}
 80057b0:	8993      	ldrh	r3, [r2, #12]
 80057b2:	f023 0320 	bic.w	r3, r3, #32
 80057b6:	8193      	strh	r3, [r2, #12]
 80057b8:	6b63      	ldr	r3, [r4, #52]	; 0x34
 80057ba:	6852      	ldr	r2, [r2, #4]
 80057bc:	b2cd      	uxtb	r5, r1
 80057be:	b18b      	cbz	r3, 80057e4 <_sungetc_r+0x44>
 80057c0:	6ba3      	ldr	r3, [r4, #56]	; 0x38
 80057c2:	4293      	cmp	r3, r2
 80057c4:	dd08      	ble.n	80057d8 <_sungetc_r+0x38>
 80057c6:	6823      	ldr	r3, [r4, #0]
 80057c8:	1e5a      	subs	r2, r3, #1
 80057ca:	6022      	str	r2, [r4, #0]
 80057cc:	f803 5c01 	strb.w	r5, [r3, #-1]
 80057d0:	6863      	ldr	r3, [r4, #4]
 80057d2:	3301      	adds	r3, #1
 80057d4:	6063      	str	r3, [r4, #4]
 80057d6:	e7e9      	b.n	80057ac <_sungetc_r+0xc>
 80057d8:	4621      	mov	r1, r4
 80057da:	f000 fc3f 	bl	800605c <__submore>
 80057de:	2800      	cmp	r0, #0
 80057e0:	d0f1      	beq.n	80057c6 <_sungetc_r+0x26>
 80057e2:	e7e1      	b.n	80057a8 <_sungetc_r+0x8>
 80057e4:	6921      	ldr	r1, [r4, #16]
 80057e6:	6823      	ldr	r3, [r4, #0]
 80057e8:	b151      	cbz	r1, 8005800 <_sungetc_r+0x60>
 80057ea:	4299      	cmp	r1, r3
 80057ec:	d208      	bcs.n	8005800 <_sungetc_r+0x60>
 80057ee:	f813 1c01 	ldrb.w	r1, [r3, #-1]
 80057f2:	42a9      	cmp	r1, r5
 80057f4:	d104      	bne.n	8005800 <_sungetc_r+0x60>
 80057f6:	3b01      	subs	r3, #1
 80057f8:	3201      	adds	r2, #1
 80057fa:	6023      	str	r3, [r4, #0]
 80057fc:	6062      	str	r2, [r4, #4]
 80057fe:	e7d5      	b.n	80057ac <_sungetc_r+0xc>
 8005800:	e9c4 320f 	strd	r3, r2, [r4, #60]	; 0x3c
 8005804:	f104 0344 	add.w	r3, r4, #68	; 0x44
 8005808:	6363      	str	r3, [r4, #52]	; 0x34
 800580a:	2303      	movs	r3, #3
 800580c:	63a3      	str	r3, [r4, #56]	; 0x38
 800580e:	4623      	mov	r3, r4
 8005810:	f803 5f46 	strb.w	r5, [r3, #70]!
 8005814:	6023      	str	r3, [r4, #0]
 8005816:	2301      	movs	r3, #1
 8005818:	e7dc      	b.n	80057d4 <_sungetc_r+0x34>

0800581a <__ssrefill_r>:
 800581a:	b510      	push	{r4, lr}
 800581c:	460c      	mov	r4, r1
 800581e:	6b49      	ldr	r1, [r1, #52]	; 0x34
 8005820:	b169      	cbz	r1, 800583e <__ssrefill_r+0x24>
 8005822:	f104 0344 	add.w	r3, r4, #68	; 0x44
 8005826:	4299      	cmp	r1, r3
 8005828:	d001      	beq.n	800582e <__ssrefill_r+0x14>
 800582a:	f7ff fdbf 	bl	80053ac <_free_r>
 800582e:	6c23      	ldr	r3, [r4, #64]	; 0x40
 8005830:	6063      	str	r3, [r4, #4]
 8005832:	2000      	movs	r0, #0
 8005834:	6360      	str	r0, [r4, #52]	; 0x34
 8005836:	b113      	cbz	r3, 800583e <__ssrefill_r+0x24>
 8005838:	6be3      	ldr	r3, [r4, #60]	; 0x3c
 800583a:	6023      	str	r3, [r4, #0]
 800583c:	bd10      	pop	{r4, pc}
 800583e:	6923      	ldr	r3, [r4, #16]
 8005840:	6023      	str	r3, [r4, #0]
 8005842:	2300      	movs	r3, #0
 8005844:	6063      	str	r3, [r4, #4]
 8005846:	89a3      	ldrh	r3, [r4, #12]
 8005848:	f043 0320 	orr.w	r3, r3, #32
 800584c:	81a3      	strh	r3, [r4, #12]
 800584e:	f04f 30ff 	mov.w	r0, #4294967295
 8005852:	e7f3      	b.n	800583c <__ssrefill_r+0x22>

08005854 <__ssvfiscanf_r>:
 8005854:	e92d 4ff0 	stmdb	sp!, {r4, r5, r6, r7, r8, r9, sl, fp, lr}
 8005858:	f5ad 7d23 	sub.w	sp, sp, #652	; 0x28c
 800585c:	460c      	mov	r4, r1
 800585e:	2100      	movs	r1, #0
 8005860:	9144      	str	r1, [sp, #272]	; 0x110
 8005862:	9145      	str	r1, [sp, #276]	; 0x114
 8005864:	499f      	ldr	r1, [pc, #636]	; (8005ae4 <__ssvfiscanf_r+0x290>)
 8005866:	91a0      	str	r1, [sp, #640]	; 0x280
 8005868:	f10d 0804 	add.w	r8, sp, #4
 800586c:	499e      	ldr	r1, [pc, #632]	; (8005ae8 <__ssvfiscanf_r+0x294>)
 800586e:	f8df 927c 	ldr.w	r9, [pc, #636]	; 8005aec <__ssvfiscanf_r+0x298>
 8005872:	f8cd 8118 	str.w	r8, [sp, #280]	; 0x118
 8005876:	4606      	mov	r6, r0
 8005878:	4692      	mov	sl, r2
 800587a:	91a1      	str	r1, [sp, #644]	; 0x284
 800587c:	9300      	str	r3, [sp, #0]
 800587e:	270a      	movs	r7, #10
 8005880:	f89a 3000 	ldrb.w	r3, [sl]
 8005884:	2b00      	cmp	r3, #0
 8005886:	f000 812a 	beq.w	8005ade <__ssvfiscanf_r+0x28a>
 800588a:	4655      	mov	r5, sl
 800588c:	f000 fc24 	bl	80060d8 <__locale_ctype_ptr>
 8005890:	f815 bb01 	ldrb.w	fp, [r5], #1
 8005894:	4458      	add	r0, fp
 8005896:	7843      	ldrb	r3, [r0, #1]
 8005898:	f013 0308 	ands.w	r3, r3, #8
 800589c:	d01c      	beq.n	80058d8 <__ssvfiscanf_r+0x84>
 800589e:	6863      	ldr	r3, [r4, #4]
 80058a0:	2b00      	cmp	r3, #0
 80058a2:	dd12      	ble.n	80058ca <__ssvfiscanf_r+0x76>
 80058a4:	f000 fc18 	bl	80060d8 <__locale_ctype_ptr>
 80058a8:	6823      	ldr	r3, [r4, #0]
 80058aa:	781a      	ldrb	r2, [r3, #0]
 80058ac:	4410      	add	r0, r2
 80058ae:	7842      	ldrb	r2, [r0, #1]
 80058b0:	0712      	lsls	r2, r2, #28
 80058b2:	d401      	bmi.n	80058b8 <__ssvfiscanf_r+0x64>
 80058b4:	46aa      	mov	sl, r5
 80058b6:	e7e3      	b.n	8005880 <__ssvfiscanf_r+0x2c>
 80058b8:	9a45      	ldr	r2, [sp, #276]	; 0x114
 80058ba:	3201      	adds	r2, #1
 80058bc:	9245      	str	r2, [sp, #276]	; 0x114
 80058be:	6862      	ldr	r2, [r4, #4]
 80058c0:	3301      	adds	r3, #1
 80058c2:	3a01      	subs	r2, #1
 80058c4:	6062      	str	r2, [r4, #4]
 80058c6:	6023      	str	r3, [r4, #0]
 80058c8:	e7e9      	b.n	800589e <__ssvfiscanf_r+0x4a>
 80058ca:	9ba1      	ldr	r3, [sp, #644]	; 0x284
 80058cc:	4621      	mov	r1, r4
 80058ce:	4630      	mov	r0, r6
 80058d0:	4798      	blx	r3
 80058d2:	2800      	cmp	r0, #0
 80058d4:	d0e6      	beq.n	80058a4 <__ssvfiscanf_r+0x50>
 80058d6:	e7ed      	b.n	80058b4 <__ssvfiscanf_r+0x60>
 80058d8:	f1bb 0f25 	cmp.w	fp, #37	; 0x25
 80058dc:	f040 8082 	bne.w	80059e4 <__ssvfiscanf_r+0x190>
 80058e0:	9343      	str	r3, [sp, #268]	; 0x10c
 80058e2:	9341      	str	r3, [sp, #260]	; 0x104
 80058e4:	f89a 3001 	ldrb.w	r3, [sl, #1]
 80058e8:	2b2a      	cmp	r3, #42	; 0x2a
 80058ea:	d103      	bne.n	80058f4 <__ssvfiscanf_r+0xa0>
 80058ec:	2310      	movs	r3, #16
 80058ee:	9341      	str	r3, [sp, #260]	; 0x104
 80058f0:	f10a 0502 	add.w	r5, sl, #2
 80058f4:	46aa      	mov	sl, r5
 80058f6:	f815 1b01 	ldrb.w	r1, [r5], #1
 80058fa:	f1a1 0230 	sub.w	r2, r1, #48	; 0x30
 80058fe:	2a09      	cmp	r2, #9
 8005900:	d922      	bls.n	8005948 <__ssvfiscanf_r+0xf4>
 8005902:	2203      	movs	r2, #3
 8005904:	4879      	ldr	r0, [pc, #484]	; (8005aec <__ssvfiscanf_r+0x298>)
 8005906:	f7fa fc6b 	bl	80001e0 <memchr>
 800590a:	b138      	cbz	r0, 800591c <__ssvfiscanf_r+0xc8>
 800590c:	eba0 0309 	sub.w	r3, r0, r9
 8005910:	2001      	movs	r0, #1
 8005912:	4098      	lsls	r0, r3
 8005914:	9b41      	ldr	r3, [sp, #260]	; 0x104
 8005916:	4318      	orrs	r0, r3
 8005918:	9041      	str	r0, [sp, #260]	; 0x104
 800591a:	46aa      	mov	sl, r5
 800591c:	f89a 3000 	ldrb.w	r3, [sl]
 8005920:	2b67      	cmp	r3, #103	; 0x67
 8005922:	f10a 0501 	add.w	r5, sl, #1
 8005926:	d82b      	bhi.n	8005980 <__ssvfiscanf_r+0x12c>
 8005928:	2b65      	cmp	r3, #101	; 0x65
 800592a:	f080 809f 	bcs.w	8005a6c <__ssvfiscanf_r+0x218>
 800592e:	2b47      	cmp	r3, #71	; 0x47
 8005930:	d810      	bhi.n	8005954 <__ssvfiscanf_r+0x100>
 8005932:	2b45      	cmp	r3, #69	; 0x45
 8005934:	f080 809a 	bcs.w	8005a6c <__ssvfiscanf_r+0x218>
 8005938:	2b00      	cmp	r3, #0
 800593a:	d06c      	beq.n	8005a16 <__ssvfiscanf_r+0x1c2>
 800593c:	2b25      	cmp	r3, #37	; 0x25
 800593e:	d051      	beq.n	80059e4 <__ssvfiscanf_r+0x190>
 8005940:	2303      	movs	r3, #3
 8005942:	9347      	str	r3, [sp, #284]	; 0x11c
 8005944:	9742      	str	r7, [sp, #264]	; 0x108
 8005946:	e027      	b.n	8005998 <__ssvfiscanf_r+0x144>
 8005948:	9b43      	ldr	r3, [sp, #268]	; 0x10c
 800594a:	fb07 1303 	mla	r3, r7, r3, r1
 800594e:	3b30      	subs	r3, #48	; 0x30
 8005950:	9343      	str	r3, [sp, #268]	; 0x10c
 8005952:	e7cf      	b.n	80058f4 <__ssvfiscanf_r+0xa0>
 8005954:	2b5b      	cmp	r3, #91	; 0x5b
 8005956:	d06a      	beq.n	8005a2e <__ssvfiscanf_r+0x1da>
 8005958:	d80c      	bhi.n	8005974 <__ssvfiscanf_r+0x120>
 800595a:	2b58      	cmp	r3, #88	; 0x58
 800595c:	d1f0      	bne.n	8005940 <__ssvfiscanf_r+0xec>
 800595e:	9a41      	ldr	r2, [sp, #260]	; 0x104
 8005960:	f442 7200 	orr.w	r2, r2, #512	; 0x200
 8005964:	9241      	str	r2, [sp, #260]	; 0x104
 8005966:	2210      	movs	r2, #16
 8005968:	9242      	str	r2, [sp, #264]	; 0x108
 800596a:	2b6e      	cmp	r3, #110	; 0x6e
 800596c:	bf8c      	ite	hi
 800596e:	2304      	movhi	r3, #4
 8005970:	2303      	movls	r3, #3
 8005972:	e010      	b.n	8005996 <__ssvfiscanf_r+0x142>
 8005974:	2b63      	cmp	r3, #99	; 0x63
 8005976:	d065      	beq.n	8005a44 <__ssvfiscanf_r+0x1f0>
 8005978:	2b64      	cmp	r3, #100	; 0x64
 800597a:	d1e1      	bne.n	8005940 <__ssvfiscanf_r+0xec>
 800597c:	9742      	str	r7, [sp, #264]	; 0x108
 800597e:	e7f4      	b.n	800596a <__ssvfiscanf_r+0x116>
 8005980:	2b70      	cmp	r3, #112	; 0x70
 8005982:	d04b      	beq.n	8005a1c <__ssvfiscanf_r+0x1c8>
 8005984:	d826      	bhi.n	80059d4 <__ssvfiscanf_r+0x180>
 8005986:	2b6e      	cmp	r3, #110	; 0x6e
 8005988:	d062      	beq.n	8005a50 <__ssvfiscanf_r+0x1fc>
 800598a:	d84c      	bhi.n	8005a26 <__ssvfiscanf_r+0x1d2>
 800598c:	2b69      	cmp	r3, #105	; 0x69
 800598e:	d1d7      	bne.n	8005940 <__ssvfiscanf_r+0xec>
 8005990:	2300      	movs	r3, #0
 8005992:	9342      	str	r3, [sp, #264]	; 0x108
 8005994:	2303      	movs	r3, #3
 8005996:	9347      	str	r3, [sp, #284]	; 0x11c
 8005998:	6863      	ldr	r3, [r4, #4]
 800599a:	2b00      	cmp	r3, #0
 800599c:	dd68      	ble.n	8005a70 <__ssvfiscanf_r+0x21c>
 800599e:	9b41      	ldr	r3, [sp, #260]	; 0x104
 80059a0:	0659      	lsls	r1, r3, #25
 80059a2:	d407      	bmi.n	80059b4 <__ssvfiscanf_r+0x160>
 80059a4:	f000 fb98 	bl	80060d8 <__locale_ctype_ptr>
 80059a8:	6823      	ldr	r3, [r4, #0]
 80059aa:	781a      	ldrb	r2, [r3, #0]
 80059ac:	4410      	add	r0, r2
 80059ae:	7842      	ldrb	r2, [r0, #1]
 80059b0:	0712      	lsls	r2, r2, #28
 80059b2:	d464      	bmi.n	8005a7e <__ssvfiscanf_r+0x22a>
 80059b4:	9b47      	ldr	r3, [sp, #284]	; 0x11c
 80059b6:	2b02      	cmp	r3, #2
 80059b8:	dc73      	bgt.n	8005aa2 <__ssvfiscanf_r+0x24e>
 80059ba:	466b      	mov	r3, sp
 80059bc:	4622      	mov	r2, r4
 80059be:	a941      	add	r1, sp, #260	; 0x104
 80059c0:	4630      	mov	r0, r6
 80059c2:	f000 f897 	bl	8005af4 <_scanf_chars>
 80059c6:	2801      	cmp	r0, #1
 80059c8:	f000 8089 	beq.w	8005ade <__ssvfiscanf_r+0x28a>
 80059cc:	2802      	cmp	r0, #2
 80059ce:	f47f af71 	bne.w	80058b4 <__ssvfiscanf_r+0x60>
 80059d2:	e01d      	b.n	8005a10 <__ssvfiscanf_r+0x1bc>
 80059d4:	2b75      	cmp	r3, #117	; 0x75
 80059d6:	d0d1      	beq.n	800597c <__ssvfiscanf_r+0x128>
 80059d8:	2b78      	cmp	r3, #120	; 0x78
 80059da:	d0c0      	beq.n	800595e <__ssvfiscanf_r+0x10a>
 80059dc:	2b73      	cmp	r3, #115	; 0x73
 80059de:	d1af      	bne.n	8005940 <__ssvfiscanf_r+0xec>
 80059e0:	2302      	movs	r3, #2
 80059e2:	e7d8      	b.n	8005996 <__ssvfiscanf_r+0x142>
 80059e4:	6863      	ldr	r3, [r4, #4]
 80059e6:	2b00      	cmp	r3, #0
 80059e8:	dd0c      	ble.n	8005a04 <__ssvfiscanf_r+0x1b0>
 80059ea:	6823      	ldr	r3, [r4, #0]
 80059ec:	781a      	ldrb	r2, [r3, #0]
 80059ee:	455a      	cmp	r2, fp
 80059f0:	d175      	bne.n	8005ade <__ssvfiscanf_r+0x28a>
 80059f2:	3301      	adds	r3, #1
 80059f4:	6862      	ldr	r2, [r4, #4]
 80059f6:	6023      	str	r3, [r4, #0]
 80059f8:	9b45      	ldr	r3, [sp, #276]	; 0x114
 80059fa:	3a01      	subs	r2, #1
 80059fc:	3301      	adds	r3, #1
 80059fe:	6062      	str	r2, [r4, #4]
 8005a00:	9345      	str	r3, [sp, #276]	; 0x114
 8005a02:	e757      	b.n	80058b4 <__ssvfiscanf_r+0x60>
 8005a04:	9ba1      	ldr	r3, [sp, #644]	; 0x284
 8005a06:	4621      	mov	r1, r4
 8005a08:	4630      	mov	r0, r6
 8005a0a:	4798      	blx	r3
 8005a0c:	2800      	cmp	r0, #0
 8005a0e:	d0ec      	beq.n	80059ea <__ssvfiscanf_r+0x196>
 8005a10:	9844      	ldr	r0, [sp, #272]	; 0x110
 8005a12:	2800      	cmp	r0, #0
 8005a14:	d159      	bne.n	8005aca <__ssvfiscanf_r+0x276>
 8005a16:	f04f 30ff 	mov.w	r0, #4294967295
 8005a1a:	e05c      	b.n	8005ad6 <__ssvfiscanf_r+0x282>
 8005a1c:	9a41      	ldr	r2, [sp, #260]	; 0x104
 8005a1e:	f042 0220 	orr.w	r2, r2, #32
 8005a22:	9241      	str	r2, [sp, #260]	; 0x104
 8005a24:	e79b      	b.n	800595e <__ssvfiscanf_r+0x10a>
 8005a26:	2308      	movs	r3, #8
 8005a28:	9342      	str	r3, [sp, #264]	; 0x108
 8005a2a:	2304      	movs	r3, #4
 8005a2c:	e7b3      	b.n	8005996 <__ssvfiscanf_r+0x142>
 8005a2e:	4629      	mov	r1, r5
 8005a30:	4640      	mov	r0, r8
 8005a32:	f000 f9c7 	bl	8005dc4 <__sccl>
 8005a36:	9b41      	ldr	r3, [sp, #260]	; 0x104
 8005a38:	f043 0340 	orr.w	r3, r3, #64	; 0x40
 8005a3c:	9341      	str	r3, [sp, #260]	; 0x104
 8005a3e:	4605      	mov	r5, r0
 8005a40:	2301      	movs	r3, #1
 8005a42:	e7a8      	b.n	8005996 <__ssvfiscanf_r+0x142>
 8005a44:	9b41      	ldr	r3, [sp, #260]	; 0x104
 8005a46:	f043 0340 	orr.w	r3, r3, #64	; 0x40
 8005a4a:	9341      	str	r3, [sp, #260]	; 0x104
 8005a4c:	2300      	movs	r3, #0
 8005a4e:	e7a2      	b.n	8005996 <__ssvfiscanf_r+0x142>
 8005a50:	9841      	ldr	r0, [sp, #260]	; 0x104
 8005a52:	06c3      	lsls	r3, r0, #27
 8005a54:	f53f af2e 	bmi.w	80058b4 <__ssvfiscanf_r+0x60>
 8005a58:	9b00      	ldr	r3, [sp, #0]
 8005a5a:	9a45      	ldr	r2, [sp, #276]	; 0x114
 8005a5c:	1d19      	adds	r1, r3, #4
 8005a5e:	9100      	str	r1, [sp, #0]
 8005a60:	681b      	ldr	r3, [r3, #0]
 8005a62:	07c0      	lsls	r0, r0, #31
 8005a64:	bf4c      	ite	mi
 8005a66:	801a      	strhmi	r2, [r3, #0]
 8005a68:	601a      	strpl	r2, [r3, #0]
 8005a6a:	e723      	b.n	80058b4 <__ssvfiscanf_r+0x60>
 8005a6c:	2305      	movs	r3, #5
 8005a6e:	e792      	b.n	8005996 <__ssvfiscanf_r+0x142>
 8005a70:	9ba1      	ldr	r3, [sp, #644]	; 0x284
 8005a72:	4621      	mov	r1, r4
 8005a74:	4630      	mov	r0, r6
 8005a76:	4798      	blx	r3
 8005a78:	2800      	cmp	r0, #0
 8005a7a:	d090      	beq.n	800599e <__ssvfiscanf_r+0x14a>
 8005a7c:	e7c8      	b.n	8005a10 <__ssvfiscanf_r+0x1bc>
 8005a7e:	9a45      	ldr	r2, [sp, #276]	; 0x114
 8005a80:	3201      	adds	r2, #1
 8005a82:	9245      	str	r2, [sp, #276]	; 0x114
 8005a84:	6862      	ldr	r2, [r4, #4]
 8005a86:	3a01      	subs	r2, #1
 8005a88:	2a00      	cmp	r2, #0
 8005a8a:	6062      	str	r2, [r4, #4]
 8005a8c:	dd02      	ble.n	8005a94 <__ssvfiscanf_r+0x240>
 8005a8e:	3301      	adds	r3, #1
 8005a90:	6023      	str	r3, [r4, #0]
 8005a92:	e787      	b.n	80059a4 <__ssvfiscanf_r+0x150>
 8005a94:	9ba1      	ldr	r3, [sp, #644]	; 0x284
 8005a96:	4621      	mov	r1, r4
 8005a98:	4630      	mov	r0, r6
 8005a9a:	4798      	blx	r3
 8005a9c:	2800      	cmp	r0, #0
 8005a9e:	d081      	beq.n	80059a4 <__ssvfiscanf_r+0x150>
 8005aa0:	e7b6      	b.n	8005a10 <__ssvfiscanf_r+0x1bc>
 8005aa2:	2b04      	cmp	r3, #4
 8005aa4:	dc06      	bgt.n	8005ab4 <__ssvfiscanf_r+0x260>
 8005aa6:	466b      	mov	r3, sp
 8005aa8:	4622      	mov	r2, r4
 8005aaa:	a941      	add	r1, sp, #260	; 0x104
 8005aac:	4630      	mov	r0, r6
 8005aae:	f000 f885 	bl	8005bbc <_scanf_i>
 8005ab2:	e788      	b.n	80059c6 <__ssvfiscanf_r+0x172>
 8005ab4:	4b0e      	ldr	r3, [pc, #56]	; (8005af0 <__ssvfiscanf_r+0x29c>)
 8005ab6:	2b00      	cmp	r3, #0
 8005ab8:	f43f aefc 	beq.w	80058b4 <__ssvfiscanf_r+0x60>
 8005abc:	466b      	mov	r3, sp
 8005abe:	4622      	mov	r2, r4
 8005ac0:	a941      	add	r1, sp, #260	; 0x104
 8005ac2:	4630      	mov	r0, r6
 8005ac4:	f3af 8000 	nop.w
 8005ac8:	e77d      	b.n	80059c6 <__ssvfiscanf_r+0x172>
 8005aca:	89a3      	ldrh	r3, [r4, #12]
 8005acc:	f013 0f40 	tst.w	r3, #64	; 0x40
 8005ad0:	bf18      	it	ne
 8005ad2:	f04f 30ff 	movne.w	r0, #4294967295
 8005ad6:	f50d 7d23 	add.w	sp, sp, #652	; 0x28c
 8005ada:	e8bd 8ff0 	ldmia.w	sp!, {r4, r5, r6, r7, r8, r9, sl, fp, pc}
 8005ade:	9844      	ldr	r0, [sp, #272]	; 0x110
 8005ae0:	e7f9      	b.n	8005ad6 <__ssvfiscanf_r+0x282>
 8005ae2:	bf00      	nop
 8005ae4:	080057a1 	.word	0x080057a1
 8005ae8:	0800581b 	.word	0x0800581b
 8005aec:	080063fa 	.word	0x080063fa
 8005af0:	00000000 	.word	0x00000000

08005af4 <_scanf_chars>:
 8005af4:	e92d 41f0 	stmdb	sp!, {r4, r5, r6, r7, r8, lr}
 8005af8:	4615      	mov	r5, r2
 8005afa:	688a      	ldr	r2, [r1, #8]
 8005afc:	4680      	mov	r8, r0
 8005afe:	460c      	mov	r4, r1
 8005b00:	b932      	cbnz	r2, 8005b10 <_scanf_chars+0x1c>
 8005b02:	698a      	ldr	r2, [r1, #24]
 8005b04:	2a00      	cmp	r2, #0
 8005b06:	bf14      	ite	ne
 8005b08:	f04f 32ff 	movne.w	r2, #4294967295
 8005b0c:	2201      	moveq	r2, #1
 8005b0e:	608a      	str	r2, [r1, #8]
 8005b10:	6822      	ldr	r2, [r4, #0]
 8005b12:	06d1      	lsls	r1, r2, #27
 8005b14:	bf5f      	itttt	pl
 8005b16:	681a      	ldrpl	r2, [r3, #0]
 8005b18:	1d11      	addpl	r1, r2, #4
 8005b1a:	6019      	strpl	r1, [r3, #0]
 8005b1c:	6817      	ldrpl	r7, [r2, #0]
 8005b1e:	2600      	movs	r6, #0
 8005b20:	69a3      	ldr	r3, [r4, #24]
 8005b22:	b1db      	cbz	r3, 8005b5c <_scanf_chars+0x68>
 8005b24:	2b01      	cmp	r3, #1
 8005b26:	d107      	bne.n	8005b38 <_scanf_chars+0x44>
 8005b28:	682b      	ldr	r3, [r5, #0]
 8005b2a:	6962      	ldr	r2, [r4, #20]
 8005b2c:	781b      	ldrb	r3, [r3, #0]
 8005b2e:	5cd3      	ldrb	r3, [r2, r3]
 8005b30:	b9a3      	cbnz	r3, 8005b5c <_scanf_chars+0x68>
 8005b32:	2e00      	cmp	r6, #0
 8005b34:	d132      	bne.n	8005b9c <_scanf_chars+0xa8>
 8005b36:	e006      	b.n	8005b46 <_scanf_chars+0x52>
 8005b38:	2b02      	cmp	r3, #2
 8005b3a:	d007      	beq.n	8005b4c <_scanf_chars+0x58>
 8005b3c:	2e00      	cmp	r6, #0
 8005b3e:	d12d      	bne.n	8005b9c <_scanf_chars+0xa8>
 8005b40:	69a3      	ldr	r3, [r4, #24]
 8005b42:	2b01      	cmp	r3, #1
 8005b44:	d12a      	bne.n	8005b9c <_scanf_chars+0xa8>
 8005b46:	2001      	movs	r0, #1
 8005b48:	e8bd 81f0 	ldmia.w	sp!, {r4, r5, r6, r7, r8, pc}
 8005b4c:	f000 fac4 	bl	80060d8 <__locale_ctype_ptr>
 8005b50:	682b      	ldr	r3, [r5, #0]
 8005b52:	781b      	ldrb	r3, [r3, #0]
 8005b54:	4418      	add	r0, r3
 8005b56:	7843      	ldrb	r3, [r0, #1]
 8005b58:	071b      	lsls	r3, r3, #28
 8005b5a:	d4ef      	bmi.n	8005b3c <_scanf_chars+0x48>
 8005b5c:	6823      	ldr	r3, [r4, #0]
 8005b5e:	06da      	lsls	r2, r3, #27
 8005b60:	bf5e      	ittt	pl
 8005b62:	682b      	ldrpl	r3, [r5, #0]
 8005b64:	781b      	ldrbpl	r3, [r3, #0]
 8005b66:	703b      	strbpl	r3, [r7, #0]
 8005b68:	682a      	ldr	r2, [r5, #0]
 8005b6a:	686b      	ldr	r3, [r5, #4]
 8005b6c:	f102 0201 	add.w	r2, r2, #1
 8005b70:	602a      	str	r2, [r5, #0]
 8005b72:	68a2      	ldr	r2, [r4, #8]
 8005b74:	f103 33ff 	add.w	r3, r3, #4294967295
 8005b78:	f102 32ff 	add.w	r2, r2, #4294967295
 8005b7c:	606b      	str	r3, [r5, #4]
 8005b7e:	f106 0601 	add.w	r6, r6, #1
 8005b82:	bf58      	it	pl
 8005b84:	3701      	addpl	r7, #1
 8005b86:	60a2      	str	r2, [r4, #8]
 8005b88:	b142      	cbz	r2, 8005b9c <_scanf_chars+0xa8>
 8005b8a:	2b00      	cmp	r3, #0
 8005b8c:	dcc8      	bgt.n	8005b20 <_scanf_chars+0x2c>
 8005b8e:	f8d4 3180 	ldr.w	r3, [r4, #384]	; 0x180
 8005b92:	4629      	mov	r1, r5
 8005b94:	4640      	mov	r0, r8
 8005b96:	4798      	blx	r3
 8005b98:	2800      	cmp	r0, #0
 8005b9a:	d0c1      	beq.n	8005b20 <_scanf_chars+0x2c>
 8005b9c:	6823      	ldr	r3, [r4, #0]
 8005b9e:	f013 0310 	ands.w	r3, r3, #16
 8005ba2:	d105      	bne.n	8005bb0 <_scanf_chars+0xbc>
 8005ba4:	68e2      	ldr	r2, [r4, #12]
 8005ba6:	3201      	adds	r2, #1
 8005ba8:	60e2      	str	r2, [r4, #12]
 8005baa:	69a2      	ldr	r2, [r4, #24]
 8005bac:	b102      	cbz	r2, 8005bb0 <_scanf_chars+0xbc>
 8005bae:	703b      	strb	r3, [r7, #0]
 8005bb0:	6923      	ldr	r3, [r4, #16]
 8005bb2:	441e      	add	r6, r3
 8005bb4:	6126      	str	r6, [r4, #16]
 8005bb6:	2000      	movs	r0, #0
 8005bb8:	e7c6      	b.n	8005b48 <_scanf_chars+0x54>
	...

08005bbc <_scanf_i>:
 8005bbc:	e92d 4ff0 	stmdb	sp!, {r4, r5, r6, r7, r8, r9, sl, fp, lr}
 8005bc0:	469a      	mov	sl, r3
 8005bc2:	4b74      	ldr	r3, [pc, #464]	; (8005d94 <_scanf_i+0x1d8>)
 8005bc4:	460c      	mov	r4, r1
 8005bc6:	4683      	mov	fp, r0
 8005bc8:	4616      	mov	r6, r2
 8005bca:	e893 0007 	ldmia.w	r3, {r0, r1, r2}
 8005bce:	b087      	sub	sp, #28
 8005bd0:	ab03      	add	r3, sp, #12
 8005bd2:	68a7      	ldr	r7, [r4, #8]
 8005bd4:	e883 0007 	stmia.w	r3, {r0, r1, r2}
 8005bd8:	4b6f      	ldr	r3, [pc, #444]	; (8005d98 <_scanf_i+0x1dc>)
 8005bda:	69a1      	ldr	r1, [r4, #24]
 8005bdc:	4a6f      	ldr	r2, [pc, #444]	; (8005d9c <_scanf_i+0x1e0>)
 8005bde:	2903      	cmp	r1, #3
 8005be0:	bf08      	it	eq
 8005be2:	461a      	moveq	r2, r3
 8005be4:	1e7b      	subs	r3, r7, #1
 8005be6:	f5b3 7fae 	cmp.w	r3, #348	; 0x15c
 8005bea:	bf84      	itt	hi
 8005bec:	f240 135d 	movwhi	r3, #349	; 0x15d
 8005bf0:	60a3      	strhi	r3, [r4, #8]
 8005bf2:	6823      	ldr	r3, [r4, #0]
 8005bf4:	9200      	str	r2, [sp, #0]
 8005bf6:	f443 6350 	orr.w	r3, r3, #3328	; 0xd00
 8005bfa:	bf88      	it	hi
 8005bfc:	f46f 75ae 	mvnhi.w	r5, #348	; 0x15c
 8005c00:	f104 091c 	add.w	r9, r4, #28
 8005c04:	6023      	str	r3, [r4, #0]
 8005c06:	bf8c      	ite	hi
 8005c08:	197f      	addhi	r7, r7, r5
 8005c0a:	2700      	movls	r7, #0
 8005c0c:	464b      	mov	r3, r9
 8005c0e:	f04f 0800 	mov.w	r8, #0
 8005c12:	9301      	str	r3, [sp, #4]
 8005c14:	6831      	ldr	r1, [r6, #0]
 8005c16:	ab03      	add	r3, sp, #12
 8005c18:	2202      	movs	r2, #2
 8005c1a:	f853 0028 	ldr.w	r0, [r3, r8, lsl #2]
 8005c1e:	7809      	ldrb	r1, [r1, #0]
 8005c20:	f7fa fade 	bl	80001e0 <memchr>
 8005c24:	9b01      	ldr	r3, [sp, #4]
 8005c26:	b330      	cbz	r0, 8005c76 <_scanf_i+0xba>
 8005c28:	f1b8 0f01 	cmp.w	r8, #1
 8005c2c:	d15a      	bne.n	8005ce4 <_scanf_i+0x128>
 8005c2e:	6862      	ldr	r2, [r4, #4]
 8005c30:	b92a      	cbnz	r2, 8005c3e <_scanf_i+0x82>
 8005c32:	6822      	ldr	r2, [r4, #0]
 8005c34:	2108      	movs	r1, #8
 8005c36:	f442 7200 	orr.w	r2, r2, #512	; 0x200
 8005c3a:	6061      	str	r1, [r4, #4]
 8005c3c:	6022      	str	r2, [r4, #0]
 8005c3e:	6822      	ldr	r2, [r4, #0]
 8005c40:	f422 62a0 	bic.w	r2, r2, #1280	; 0x500
 8005c44:	6022      	str	r2, [r4, #0]
 8005c46:	68a2      	ldr	r2, [r4, #8]
 8005c48:	1e51      	subs	r1, r2, #1
 8005c4a:	60a1      	str	r1, [r4, #8]
 8005c4c:	b19a      	cbz	r2, 8005c76 <_scanf_i+0xba>
 8005c4e:	6832      	ldr	r2, [r6, #0]
 8005c50:	1c51      	adds	r1, r2, #1
 8005c52:	6031      	str	r1, [r6, #0]
 8005c54:	7812      	ldrb	r2, [r2, #0]
 8005c56:	701a      	strb	r2, [r3, #0]
 8005c58:	1c5d      	adds	r5, r3, #1
 8005c5a:	6873      	ldr	r3, [r6, #4]
 8005c5c:	3b01      	subs	r3, #1
 8005c5e:	2b00      	cmp	r3, #0
 8005c60:	6073      	str	r3, [r6, #4]
 8005c62:	dc07      	bgt.n	8005c74 <_scanf_i+0xb8>
 8005c64:	f8d4 3180 	ldr.w	r3, [r4, #384]	; 0x180
 8005c68:	4631      	mov	r1, r6
 8005c6a:	4658      	mov	r0, fp
 8005c6c:	4798      	blx	r3
 8005c6e:	2800      	cmp	r0, #0
 8005c70:	f040 8086 	bne.w	8005d80 <_scanf_i+0x1c4>
 8005c74:	462b      	mov	r3, r5
 8005c76:	f108 0801 	add.w	r8, r8, #1
 8005c7a:	f1b8 0f03 	cmp.w	r8, #3
 8005c7e:	d1c8      	bne.n	8005c12 <_scanf_i+0x56>
 8005c80:	6862      	ldr	r2, [r4, #4]
 8005c82:	b90a      	cbnz	r2, 8005c88 <_scanf_i+0xcc>
 8005c84:	220a      	movs	r2, #10
 8005c86:	6062      	str	r2, [r4, #4]
 8005c88:	6862      	ldr	r2, [r4, #4]
 8005c8a:	4945      	ldr	r1, [pc, #276]	; (8005da0 <_scanf_i+0x1e4>)
 8005c8c:	6960      	ldr	r0, [r4, #20]
 8005c8e:	9301      	str	r3, [sp, #4]
 8005c90:	1a89      	subs	r1, r1, r2
 8005c92:	f000 f897 	bl	8005dc4 <__sccl>
 8005c96:	9b01      	ldr	r3, [sp, #4]
 8005c98:	f04f 0800 	mov.w	r8, #0
 8005c9c:	461d      	mov	r5, r3
 8005c9e:	68a3      	ldr	r3, [r4, #8]
 8005ca0:	6822      	ldr	r2, [r4, #0]
 8005ca2:	2b00      	cmp	r3, #0
 8005ca4:	d03a      	beq.n	8005d1c <_scanf_i+0x160>
 8005ca6:	6831      	ldr	r1, [r6, #0]
 8005ca8:	6960      	ldr	r0, [r4, #20]
 8005caa:	f891 c000 	ldrb.w	ip, [r1]
 8005cae:	f810 000c 	ldrb.w	r0, [r0, ip]
 8005cb2:	2800      	cmp	r0, #0
 8005cb4:	d032      	beq.n	8005d1c <_scanf_i+0x160>
 8005cb6:	f1bc 0f30 	cmp.w	ip, #48	; 0x30
 8005cba:	d121      	bne.n	8005d00 <_scanf_i+0x144>
 8005cbc:	0510      	lsls	r0, r2, #20
 8005cbe:	d51f      	bpl.n	8005d00 <_scanf_i+0x144>
 8005cc0:	f108 0801 	add.w	r8, r8, #1
 8005cc4:	b117      	cbz	r7, 8005ccc <_scanf_i+0x110>
 8005cc6:	3301      	adds	r3, #1
 8005cc8:	3f01      	subs	r7, #1
 8005cca:	60a3      	str	r3, [r4, #8]
 8005ccc:	6873      	ldr	r3, [r6, #4]
 8005cce:	3b01      	subs	r3, #1
 8005cd0:	2b00      	cmp	r3, #0
 8005cd2:	6073      	str	r3, [r6, #4]
 8005cd4:	dd1b      	ble.n	8005d0e <_scanf_i+0x152>
 8005cd6:	6833      	ldr	r3, [r6, #0]
 8005cd8:	3301      	adds	r3, #1
 8005cda:	6033      	str	r3, [r6, #0]
 8005cdc:	68a3      	ldr	r3, [r4, #8]
 8005cde:	3b01      	subs	r3, #1
 8005ce0:	60a3      	str	r3, [r4, #8]
 8005ce2:	e7dc      	b.n	8005c9e <_scanf_i+0xe2>
 8005ce4:	f1b8 0f02 	cmp.w	r8, #2
 8005ce8:	d1ad      	bne.n	8005c46 <_scanf_i+0x8a>
 8005cea:	6822      	ldr	r2, [r4, #0]
 8005cec:	f402 61c0 	and.w	r1, r2, #1536	; 0x600
 8005cf0:	f5b1 7f00 	cmp.w	r1, #512	; 0x200
 8005cf4:	d1bf      	bne.n	8005c76 <_scanf_i+0xba>
 8005cf6:	2110      	movs	r1, #16
 8005cf8:	6061      	str	r1, [r4, #4]
 8005cfa:	f442 7280 	orr.w	r2, r2, #256	; 0x100
 8005cfe:	e7a1      	b.n	8005c44 <_scanf_i+0x88>
 8005d00:	f422 6210 	bic.w	r2, r2, #2304	; 0x900
 8005d04:	6022      	str	r2, [r4, #0]
 8005d06:	780b      	ldrb	r3, [r1, #0]
 8005d08:	702b      	strb	r3, [r5, #0]
 8005d0a:	3501      	adds	r5, #1
 8005d0c:	e7de      	b.n	8005ccc <_scanf_i+0x110>
 8005d0e:	f8d4 3180 	ldr.w	r3, [r4, #384]	; 0x180
 8005d12:	4631      	mov	r1, r6
 8005d14:	4658      	mov	r0, fp
 8005d16:	4798      	blx	r3
 8005d18:	2800      	cmp	r0, #0
 8005d1a:	d0df      	beq.n	8005cdc <_scanf_i+0x120>
 8005d1c:	6823      	ldr	r3, [r4, #0]
 8005d1e:	05d9      	lsls	r1, r3, #23
 8005d20:	d50c      	bpl.n	8005d3c <_scanf_i+0x180>
 8005d22:	454d      	cmp	r5, r9
 8005d24:	d908      	bls.n	8005d38 <_scanf_i+0x17c>
 8005d26:	f815 1c01 	ldrb.w	r1, [r5, #-1]
 8005d2a:	f8d4 317c 	ldr.w	r3, [r4, #380]	; 0x17c
 8005d2e:	4632      	mov	r2, r6
 8005d30:	4658      	mov	r0, fp
 8005d32:	4798      	blx	r3
 8005d34:	1e6f      	subs	r7, r5, #1
 8005d36:	463d      	mov	r5, r7
 8005d38:	454d      	cmp	r5, r9
 8005d3a:	d029      	beq.n	8005d90 <_scanf_i+0x1d4>
 8005d3c:	6822      	ldr	r2, [r4, #0]
 8005d3e:	f012 0210 	ands.w	r2, r2, #16
 8005d42:	d113      	bne.n	8005d6c <_scanf_i+0x1b0>
 8005d44:	702a      	strb	r2, [r5, #0]
 8005d46:	6863      	ldr	r3, [r4, #4]
 8005d48:	9e00      	ldr	r6, [sp, #0]
 8005d4a:	4649      	mov	r1, r9
 8005d4c:	4658      	mov	r0, fp
 8005d4e:	47b0      	blx	r6
 8005d50:	f8da 3000 	ldr.w	r3, [sl]
 8005d54:	6821      	ldr	r1, [r4, #0]
 8005d56:	1d1a      	adds	r2, r3, #4
 8005d58:	f8ca 2000 	str.w	r2, [sl]
 8005d5c:	f011 0f20 	tst.w	r1, #32
 8005d60:	681b      	ldr	r3, [r3, #0]
 8005d62:	d010      	beq.n	8005d86 <_scanf_i+0x1ca>
 8005d64:	6018      	str	r0, [r3, #0]
 8005d66:	68e3      	ldr	r3, [r4, #12]
 8005d68:	3301      	adds	r3, #1
 8005d6a:	60e3      	str	r3, [r4, #12]
 8005d6c:	eba5 0509 	sub.w	r5, r5, r9
 8005d70:	44a8      	add	r8, r5
 8005d72:	6925      	ldr	r5, [r4, #16]
 8005d74:	4445      	add	r5, r8
 8005d76:	6125      	str	r5, [r4, #16]
 8005d78:	2000      	movs	r0, #0
 8005d7a:	b007      	add	sp, #28
 8005d7c:	e8bd 8ff0 	ldmia.w	sp!, {r4, r5, r6, r7, r8, r9, sl, fp, pc}
 8005d80:	f04f 0800 	mov.w	r8, #0
 8005d84:	e7ca      	b.n	8005d1c <_scanf_i+0x160>
 8005d86:	07ca      	lsls	r2, r1, #31
 8005d88:	bf4c      	ite	mi
 8005d8a:	8018      	strhmi	r0, [r3, #0]
 8005d8c:	6018      	strpl	r0, [r3, #0]
 8005d8e:	e7ea      	b.n	8005d66 <_scanf_i+0x1aa>
 8005d90:	2001      	movs	r0, #1
 8005d92:	e7f2      	b.n	8005d7a <_scanf_i+0x1be>
 8005d94:	08006264 	.word	0x08006264
 8005d98:	08005f21 	.word	0x08005f21
 8005d9c:	08006039 	.word	0x08006039
 8005da0:	08006415 	.word	0x08006415

08005da4 <_sbrk_r>:
 8005da4:	b538      	push	{r3, r4, r5, lr}
 8005da6:	4c06      	ldr	r4, [pc, #24]	; (8005dc0 <_sbrk_r+0x1c>)
 8005da8:	2300      	movs	r3, #0
 8005daa:	4605      	mov	r5, r0
 8005dac:	4608      	mov	r0, r1
 8005dae:	6023      	str	r3, [r4, #0]
 8005db0:	f7fc fd4a 	bl	8002848 <_sbrk>
 8005db4:	1c43      	adds	r3, r0, #1
 8005db6:	d102      	bne.n	8005dbe <_sbrk_r+0x1a>
 8005db8:	6823      	ldr	r3, [r4, #0]
 8005dba:	b103      	cbz	r3, 8005dbe <_sbrk_r+0x1a>
 8005dbc:	602b      	str	r3, [r5, #0]
 8005dbe:	bd38      	pop	{r3, r4, r5, pc}
 8005dc0:	200003a0 	.word	0x200003a0

08005dc4 <__sccl>:
 8005dc4:	b570      	push	{r4, r5, r6, lr}
 8005dc6:	780b      	ldrb	r3, [r1, #0]
 8005dc8:	2b5e      	cmp	r3, #94	; 0x5e
 8005dca:	bf13      	iteet	ne
 8005dcc:	1c4a      	addne	r2, r1, #1
 8005dce:	1c8a      	addeq	r2, r1, #2
 8005dd0:	784b      	ldrbeq	r3, [r1, #1]
 8005dd2:	2100      	movne	r1, #0
 8005dd4:	bf08      	it	eq
 8005dd6:	2101      	moveq	r1, #1
 8005dd8:	1e44      	subs	r4, r0, #1
 8005dda:	f100 05ff 	add.w	r5, r0, #255	; 0xff
 8005dde:	f804 1f01 	strb.w	r1, [r4, #1]!
 8005de2:	42ac      	cmp	r4, r5
 8005de4:	d1fb      	bne.n	8005dde <__sccl+0x1a>
 8005de6:	b913      	cbnz	r3, 8005dee <__sccl+0x2a>
 8005de8:	3a01      	subs	r2, #1
 8005dea:	4610      	mov	r0, r2
 8005dec:	bd70      	pop	{r4, r5, r6, pc}
 8005dee:	f081 0401 	eor.w	r4, r1, #1
 8005df2:	54c4      	strb	r4, [r0, r3]
 8005df4:	1c51      	adds	r1, r2, #1
 8005df6:	f811 5c01 	ldrb.w	r5, [r1, #-1]
 8005dfa:	2d2d      	cmp	r5, #45	; 0x2d
 8005dfc:	f101 36ff 	add.w	r6, r1, #4294967295
 8005e00:	460a      	mov	r2, r1
 8005e02:	d006      	beq.n	8005e12 <__sccl+0x4e>
 8005e04:	2d5d      	cmp	r5, #93	; 0x5d
 8005e06:	d0f0      	beq.n	8005dea <__sccl+0x26>
 8005e08:	b90d      	cbnz	r5, 8005e0e <__sccl+0x4a>
 8005e0a:	4632      	mov	r2, r6
 8005e0c:	e7ed      	b.n	8005dea <__sccl+0x26>
 8005e0e:	462b      	mov	r3, r5
 8005e10:	e7ef      	b.n	8005df2 <__sccl+0x2e>
 8005e12:	780e      	ldrb	r6, [r1, #0]
 8005e14:	2e5d      	cmp	r6, #93	; 0x5d
 8005e16:	d0fa      	beq.n	8005e0e <__sccl+0x4a>
 8005e18:	42b3      	cmp	r3, r6
 8005e1a:	dcf8      	bgt.n	8005e0e <__sccl+0x4a>
 8005e1c:	3301      	adds	r3, #1
 8005e1e:	429e      	cmp	r6, r3
 8005e20:	54c4      	strb	r4, [r0, r3]
 8005e22:	dcfb      	bgt.n	8005e1c <__sccl+0x58>
 8005e24:	3102      	adds	r1, #2
 8005e26:	e7e6      	b.n	8005df6 <__sccl+0x32>

08005e28 <_strtol_l.isra.0>:
 8005e28:	e92d 47f0 	stmdb	sp!, {r4, r5, r6, r7, r8, r9, sl, lr}
 8005e2c:	4680      	mov	r8, r0
 8005e2e:	4689      	mov	r9, r1
 8005e30:	4692      	mov	sl, r2
 8005e32:	461e      	mov	r6, r3
 8005e34:	460f      	mov	r7, r1
 8005e36:	463d      	mov	r5, r7
 8005e38:	9808      	ldr	r0, [sp, #32]
 8005e3a:	f815 4b01 	ldrb.w	r4, [r5], #1
 8005e3e:	f000 f947 	bl	80060d0 <__locale_ctype_ptr_l>
 8005e42:	4420      	add	r0, r4
 8005e44:	7843      	ldrb	r3, [r0, #1]
 8005e46:	f013 0308 	ands.w	r3, r3, #8
 8005e4a:	d132      	bne.n	8005eb2 <_strtol_l.isra.0+0x8a>
 8005e4c:	2c2d      	cmp	r4, #45	; 0x2d
 8005e4e:	d132      	bne.n	8005eb6 <_strtol_l.isra.0+0x8e>
 8005e50:	787c      	ldrb	r4, [r7, #1]
 8005e52:	1cbd      	adds	r5, r7, #2
 8005e54:	2201      	movs	r2, #1
 8005e56:	2e00      	cmp	r6, #0
 8005e58:	d05d      	beq.n	8005f16 <_strtol_l.isra.0+0xee>
 8005e5a:	2e10      	cmp	r6, #16
 8005e5c:	d109      	bne.n	8005e72 <_strtol_l.isra.0+0x4a>
 8005e5e:	2c30      	cmp	r4, #48	; 0x30
 8005e60:	d107      	bne.n	8005e72 <_strtol_l.isra.0+0x4a>
 8005e62:	782b      	ldrb	r3, [r5, #0]
 8005e64:	f003 03df 	and.w	r3, r3, #223	; 0xdf
 8005e68:	2b58      	cmp	r3, #88	; 0x58
 8005e6a:	d14f      	bne.n	8005f0c <_strtol_l.isra.0+0xe4>
 8005e6c:	786c      	ldrb	r4, [r5, #1]
 8005e6e:	2610      	movs	r6, #16
 8005e70:	3502      	adds	r5, #2
 8005e72:	2a00      	cmp	r2, #0
 8005e74:	bf14      	ite	ne
 8005e76:	f04f 4100 	movne.w	r1, #2147483648	; 0x80000000
 8005e7a:	f06f 4100 	mvneq.w	r1, #2147483648	; 0x80000000
 8005e7e:	2700      	movs	r7, #0
 8005e80:	fbb1 fcf6 	udiv	ip, r1, r6
 8005e84:	4638      	mov	r0, r7
 8005e86:	fb06 1e1c 	mls	lr, r6, ip, r1
 8005e8a:	f1a4 0330 	sub.w	r3, r4, #48	; 0x30
 8005e8e:	2b09      	cmp	r3, #9
 8005e90:	d817      	bhi.n	8005ec2 <_strtol_l.isra.0+0x9a>
 8005e92:	461c      	mov	r4, r3
 8005e94:	42a6      	cmp	r6, r4
 8005e96:	dd23      	ble.n	8005ee0 <_strtol_l.isra.0+0xb8>
 8005e98:	1c7b      	adds	r3, r7, #1
 8005e9a:	d007      	beq.n	8005eac <_strtol_l.isra.0+0x84>
 8005e9c:	4584      	cmp	ip, r0
 8005e9e:	d31c      	bcc.n	8005eda <_strtol_l.isra.0+0xb2>
 8005ea0:	d101      	bne.n	8005ea6 <_strtol_l.isra.0+0x7e>
 8005ea2:	45a6      	cmp	lr, r4
 8005ea4:	db19      	blt.n	8005eda <_strtol_l.isra.0+0xb2>
 8005ea6:	fb00 4006 	mla	r0, r0, r6, r4
 8005eaa:	2701      	movs	r7, #1
 8005eac:	f815 4b01 	ldrb.w	r4, [r5], #1
 8005eb0:	e7eb      	b.n	8005e8a <_strtol_l.isra.0+0x62>
 8005eb2:	462f      	mov	r7, r5
 8005eb4:	e7bf      	b.n	8005e36 <_strtol_l.isra.0+0xe>
 8005eb6:	2c2b      	cmp	r4, #43	; 0x2b
 8005eb8:	bf04      	itt	eq
 8005eba:	1cbd      	addeq	r5, r7, #2
 8005ebc:	787c      	ldrbeq	r4, [r7, #1]
 8005ebe:	461a      	mov	r2, r3
 8005ec0:	e7c9      	b.n	8005e56 <_strtol_l.isra.0+0x2e>
 8005ec2:	f1a4 0341 	sub.w	r3, r4, #65	; 0x41
 8005ec6:	2b19      	cmp	r3, #25
 8005ec8:	d801      	bhi.n	8005ece <_strtol_l.isra.0+0xa6>
 8005eca:	3c37      	subs	r4, #55	; 0x37
 8005ecc:	e7e2      	b.n	8005e94 <_strtol_l.isra.0+0x6c>
 8005ece:	f1a4 0361 	sub.w	r3, r4, #97	; 0x61
 8005ed2:	2b19      	cmp	r3, #25
 8005ed4:	d804      	bhi.n	8005ee0 <_strtol_l.isra.0+0xb8>
 8005ed6:	3c57      	subs	r4, #87	; 0x57
 8005ed8:	e7dc      	b.n	8005e94 <_strtol_l.isra.0+0x6c>
 8005eda:	f04f 37ff 	mov.w	r7, #4294967295
 8005ede:	e7e5      	b.n	8005eac <_strtol_l.isra.0+0x84>
 8005ee0:	1c7b      	adds	r3, r7, #1
 8005ee2:	d108      	bne.n	8005ef6 <_strtol_l.isra.0+0xce>
 8005ee4:	2322      	movs	r3, #34	; 0x22
 8005ee6:	f8c8 3000 	str.w	r3, [r8]
 8005eea:	4608      	mov	r0, r1
 8005eec:	f1ba 0f00 	cmp.w	sl, #0
 8005ef0:	d107      	bne.n	8005f02 <_strtol_l.isra.0+0xda>
 8005ef2:	e8bd 87f0 	ldmia.w	sp!, {r4, r5, r6, r7, r8, r9, sl, pc}
 8005ef6:	b102      	cbz	r2, 8005efa <_strtol_l.isra.0+0xd2>
 8005ef8:	4240      	negs	r0, r0
 8005efa:	f1ba 0f00 	cmp.w	sl, #0
 8005efe:	d0f8      	beq.n	8005ef2 <_strtol_l.isra.0+0xca>
 8005f00:	b10f      	cbz	r7, 8005f06 <_strtol_l.isra.0+0xde>
 8005f02:	f105 39ff 	add.w	r9, r5, #4294967295
 8005f06:	f8ca 9000 	str.w	r9, [sl]
 8005f0a:	e7f2      	b.n	8005ef2 <_strtol_l.isra.0+0xca>
 8005f0c:	2430      	movs	r4, #48	; 0x30
 8005f0e:	2e00      	cmp	r6, #0
 8005f10:	d1af      	bne.n	8005e72 <_strtol_l.isra.0+0x4a>
 8005f12:	2608      	movs	r6, #8
 8005f14:	e7ad      	b.n	8005e72 <_strtol_l.isra.0+0x4a>
 8005f16:	2c30      	cmp	r4, #48	; 0x30
 8005f18:	d0a3      	beq.n	8005e62 <_strtol_l.isra.0+0x3a>
 8005f1a:	260a      	movs	r6, #10
 8005f1c:	e7a9      	b.n	8005e72 <_strtol_l.isra.0+0x4a>
	...

08005f20 <_strtol_r>:
 8005f20:	b537      	push	{r0, r1, r2, r4, r5, lr}
 8005f22:	4c06      	ldr	r4, [pc, #24]	; (8005f3c <_strtol_r+0x1c>)
 8005f24:	4d06      	ldr	r5, [pc, #24]	; (8005f40 <_strtol_r+0x20>)
 8005f26:	6824      	ldr	r4, [r4, #0]
 8005f28:	6a24      	ldr	r4, [r4, #32]
 8005f2a:	2c00      	cmp	r4, #0
 8005f2c:	bf08      	it	eq
 8005f2e:	462c      	moveq	r4, r5
 8005f30:	9400      	str	r4, [sp, #0]
 8005f32:	f7ff ff79 	bl	8005e28 <_strtol_l.isra.0>
 8005f36:	b003      	add	sp, #12
 8005f38:	bd30      	pop	{r4, r5, pc}
 8005f3a:	bf00      	nop
 8005f3c:	20000008 	.word	0x20000008
 8005f40:	2000006c 	.word	0x2000006c

08005f44 <_strtoul_l.isra.0>:
 8005f44:	e92d 47f0 	stmdb	sp!, {r4, r5, r6, r7, r8, r9, sl, lr}
 8005f48:	4680      	mov	r8, r0
 8005f4a:	4689      	mov	r9, r1
 8005f4c:	4692      	mov	sl, r2
 8005f4e:	461e      	mov	r6, r3
 8005f50:	460f      	mov	r7, r1
 8005f52:	463d      	mov	r5, r7
 8005f54:	9808      	ldr	r0, [sp, #32]
 8005f56:	f815 4b01 	ldrb.w	r4, [r5], #1
 8005f5a:	f000 f8b9 	bl	80060d0 <__locale_ctype_ptr_l>
 8005f5e:	4420      	add	r0, r4
 8005f60:	7843      	ldrb	r3, [r0, #1]
 8005f62:	f013 0308 	ands.w	r3, r3, #8
 8005f66:	d130      	bne.n	8005fca <_strtoul_l.isra.0+0x86>
 8005f68:	2c2d      	cmp	r4, #45	; 0x2d
 8005f6a:	d130      	bne.n	8005fce <_strtoul_l.isra.0+0x8a>
 8005f6c:	787c      	ldrb	r4, [r7, #1]
 8005f6e:	1cbd      	adds	r5, r7, #2
 8005f70:	2101      	movs	r1, #1
 8005f72:	2e00      	cmp	r6, #0
 8005f74:	d05c      	beq.n	8006030 <_strtoul_l.isra.0+0xec>
 8005f76:	2e10      	cmp	r6, #16
 8005f78:	d109      	bne.n	8005f8e <_strtoul_l.isra.0+0x4a>
 8005f7a:	2c30      	cmp	r4, #48	; 0x30
 8005f7c:	d107      	bne.n	8005f8e <_strtoul_l.isra.0+0x4a>
 8005f7e:	782b      	ldrb	r3, [r5, #0]
 8005f80:	f003 03df 	and.w	r3, r3, #223	; 0xdf
 8005f84:	2b58      	cmp	r3, #88	; 0x58
 8005f86:	d14e      	bne.n	8006026 <_strtoul_l.isra.0+0xe2>
 8005f88:	786c      	ldrb	r4, [r5, #1]
 8005f8a:	2610      	movs	r6, #16
 8005f8c:	3502      	adds	r5, #2
 8005f8e:	f04f 32ff 	mov.w	r2, #4294967295
 8005f92:	2300      	movs	r3, #0
 8005f94:	fbb2 f2f6 	udiv	r2, r2, r6
 8005f98:	fb06 fc02 	mul.w	ip, r6, r2
 8005f9c:	ea6f 0c0c 	mvn.w	ip, ip
 8005fa0:	4618      	mov	r0, r3
 8005fa2:	f1a4 0730 	sub.w	r7, r4, #48	; 0x30
 8005fa6:	2f09      	cmp	r7, #9
 8005fa8:	d817      	bhi.n	8005fda <_strtoul_l.isra.0+0x96>
 8005faa:	463c      	mov	r4, r7
 8005fac:	42a6      	cmp	r6, r4
 8005fae:	dd23      	ble.n	8005ff8 <_strtoul_l.isra.0+0xb4>
 8005fb0:	2b00      	cmp	r3, #0
 8005fb2:	db1e      	blt.n	8005ff2 <_strtoul_l.isra.0+0xae>
 8005fb4:	4282      	cmp	r2, r0
 8005fb6:	d31c      	bcc.n	8005ff2 <_strtoul_l.isra.0+0xae>
 8005fb8:	d101      	bne.n	8005fbe <_strtoul_l.isra.0+0x7a>
 8005fba:	45a4      	cmp	ip, r4
 8005fbc:	db19      	blt.n	8005ff2 <_strtoul_l.isra.0+0xae>
 8005fbe:	fb00 4006 	mla	r0, r0, r6, r4
 8005fc2:	2301      	movs	r3, #1
 8005fc4:	f815 4b01 	ldrb.w	r4, [r5], #1
 8005fc8:	e7eb      	b.n	8005fa2 <_strtoul_l.isra.0+0x5e>
 8005fca:	462f      	mov	r7, r5
 8005fcc:	e7c1      	b.n	8005f52 <_strtoul_l.isra.0+0xe>
 8005fce:	2c2b      	cmp	r4, #43	; 0x2b
 8005fd0:	bf04      	itt	eq
 8005fd2:	1cbd      	addeq	r5, r7, #2
 8005fd4:	787c      	ldrbeq	r4, [r7, #1]
 8005fd6:	4619      	mov	r1, r3
 8005fd8:	e7cb      	b.n	8005f72 <_strtoul_l.isra.0+0x2e>
 8005fda:	f1a4 0741 	sub.w	r7, r4, #65	; 0x41
 8005fde:	2f19      	cmp	r7, #25
 8005fe0:	d801      	bhi.n	8005fe6 <_strtoul_l.isra.0+0xa2>
 8005fe2:	3c37      	subs	r4, #55	; 0x37
 8005fe4:	e7e2      	b.n	8005fac <_strtoul_l.isra.0+0x68>
 8005fe6:	f1a4 0761 	sub.w	r7, r4, #97	; 0x61
 8005fea:	2f19      	cmp	r7, #25
 8005fec:	d804      	bhi.n	8005ff8 <_strtoul_l.isra.0+0xb4>
 8005fee:	3c57      	subs	r4, #87	; 0x57
 8005ff0:	e7dc      	b.n	8005fac <_strtoul_l.isra.0+0x68>
 8005ff2:	f04f 33ff 	mov.w	r3, #4294967295
 8005ff6:	e7e5      	b.n	8005fc4 <_strtoul_l.isra.0+0x80>
 8005ff8:	2b00      	cmp	r3, #0
 8005ffa:	da09      	bge.n	8006010 <_strtoul_l.isra.0+0xcc>
 8005ffc:	2322      	movs	r3, #34	; 0x22
 8005ffe:	f8c8 3000 	str.w	r3, [r8]
 8006002:	f04f 30ff 	mov.w	r0, #4294967295
 8006006:	f1ba 0f00 	cmp.w	sl, #0
 800600a:	d107      	bne.n	800601c <_strtoul_l.isra.0+0xd8>
 800600c:	e8bd 87f0 	ldmia.w	sp!, {r4, r5, r6, r7, r8, r9, sl, pc}
 8006010:	b101      	cbz	r1, 8006014 <_strtoul_l.isra.0+0xd0>
 8006012:	4240      	negs	r0, r0
 8006014:	f1ba 0f00 	cmp.w	sl, #0
 8006018:	d0f8      	beq.n	800600c <_strtoul_l.isra.0+0xc8>
 800601a:	b10b      	cbz	r3, 8006020 <_strtoul_l.isra.0+0xdc>
 800601c:	f105 39ff 	add.w	r9, r5, #4294967295
 8006020:	f8ca 9000 	str.w	r9, [sl]
 8006024:	e7f2      	b.n	800600c <_strtoul_l.isra.0+0xc8>
 8006026:	2430      	movs	r4, #48	; 0x30
 8006028:	2e00      	cmp	r6, #0
 800602a:	d1b0      	bne.n	8005f8e <_strtoul_l.isra.0+0x4a>
 800602c:	2608      	movs	r6, #8
 800602e:	e7ae      	b.n	8005f8e <_strtoul_l.isra.0+0x4a>
 8006030:	2c30      	cmp	r4, #48	; 0x30
 8006032:	d0a4      	beq.n	8005f7e <_strtoul_l.isra.0+0x3a>
 8006034:	260a      	movs	r6, #10
 8006036:	e7aa      	b.n	8005f8e <_strtoul_l.isra.0+0x4a>

08006038 <_strtoul_r>:
 8006038:	b537      	push	{r0, r1, r2, r4, r5, lr}
 800603a:	4c06      	ldr	r4, [pc, #24]	; (8006054 <_strtoul_r+0x1c>)
 800603c:	4d06      	ldr	r5, [pc, #24]	; (8006058 <_strtoul_r+0x20>)
 800603e:	6824      	ldr	r4, [r4, #0]
 8006040:	6a24      	ldr	r4, [r4, #32]
 8006042:	2c00      	cmp	r4, #0
 8006044:	bf08      	it	eq
 8006046:	462c      	moveq	r4, r5
 8006048:	9400      	str	r4, [sp, #0]
 800604a:	f7ff ff7b 	bl	8005f44 <_strtoul_l.isra.0>
 800604e:	b003      	add	sp, #12
 8006050:	bd30      	pop	{r4, r5, pc}
 8006052:	bf00      	nop
 8006054:	20000008 	.word	0x20000008
 8006058:	2000006c 	.word	0x2000006c

0800605c <__submore>:
 800605c:	e92d 41f0 	stmdb	sp!, {r4, r5, r6, r7, r8, lr}
 8006060:	460c      	mov	r4, r1
 8006062:	6b49      	ldr	r1, [r1, #52]	; 0x34
 8006064:	f104 0344 	add.w	r3, r4, #68	; 0x44
 8006068:	4299      	cmp	r1, r3
 800606a:	d11d      	bne.n	80060a8 <__submore+0x4c>
 800606c:	f44f 6180 	mov.w	r1, #1024	; 0x400
 8006070:	f7ff f9ea 	bl	8005448 <_malloc_r>
 8006074:	b918      	cbnz	r0, 800607e <__submore+0x22>
 8006076:	f04f 30ff 	mov.w	r0, #4294967295
 800607a:	e8bd 81f0 	ldmia.w	sp!, {r4, r5, r6, r7, r8, pc}
 800607e:	f44f 6380 	mov.w	r3, #1024	; 0x400
 8006082:	63a3      	str	r3, [r4, #56]	; 0x38
 8006084:	f894 3046 	ldrb.w	r3, [r4, #70]	; 0x46
 8006088:	6360      	str	r0, [r4, #52]	; 0x34
 800608a:	f880 33ff 	strb.w	r3, [r0, #1023]	; 0x3ff
 800608e:	f894 3045 	ldrb.w	r3, [r4, #69]	; 0x45
 8006092:	f880 33fe 	strb.w	r3, [r0, #1022]	; 0x3fe
 8006096:	f894 3044 	ldrb.w	r3, [r4, #68]	; 0x44
 800609a:	f880 33fd 	strb.w	r3, [r0, #1021]	; 0x3fd
 800609e:	f200 30fd 	addw	r0, r0, #1021	; 0x3fd
 80060a2:	6020      	str	r0, [r4, #0]
 80060a4:	2000      	movs	r0, #0
 80060a6:	e7e8      	b.n	800607a <__submore+0x1e>
 80060a8:	6ba6      	ldr	r6, [r4, #56]	; 0x38
 80060aa:	0077      	lsls	r7, r6, #1
 80060ac:	463a      	mov	r2, r7
 80060ae:	f000 f84e 	bl	800614e <_realloc_r>
 80060b2:	4605      	mov	r5, r0
 80060b4:	2800      	cmp	r0, #0
 80060b6:	d0de      	beq.n	8006076 <__submore+0x1a>
 80060b8:	eb00 0806 	add.w	r8, r0, r6
 80060bc:	4601      	mov	r1, r0
 80060be:	4632      	mov	r2, r6
 80060c0:	4640      	mov	r0, r8
 80060c2:	f7fe fe7f 	bl	8004dc4 <memcpy>
 80060c6:	f8c4 8000 	str.w	r8, [r4]
 80060ca:	e9c4 570d 	strd	r5, r7, [r4, #52]	; 0x34
 80060ce:	e7e9      	b.n	80060a4 <__submore+0x48>

080060d0 <__locale_ctype_ptr_l>:
 80060d0:	f8d0 00ec 	ldr.w	r0, [r0, #236]	; 0xec
 80060d4:	4770      	bx	lr
	...

080060d8 <__locale_ctype_ptr>:
 80060d8:	4b04      	ldr	r3, [pc, #16]	; (80060ec <__locale_ctype_ptr+0x14>)
 80060da:	4a05      	ldr	r2, [pc, #20]	; (80060f0 <__locale_ctype_ptr+0x18>)
 80060dc:	681b      	ldr	r3, [r3, #0]
 80060de:	6a1b      	ldr	r3, [r3, #32]
 80060e0:	2b00      	cmp	r3, #0
 80060e2:	bf08      	it	eq
 80060e4:	4613      	moveq	r3, r2
 80060e6:	f8d3 00ec 	ldr.w	r0, [r3, #236]	; 0xec
 80060ea:	4770      	bx	lr
 80060ec:	20000008 	.word	0x20000008
 80060f0:	2000006c 	.word	0x2000006c

080060f4 <__ascii_mbtowc>:
 80060f4:	b082      	sub	sp, #8
 80060f6:	b901      	cbnz	r1, 80060fa <__ascii_mbtowc+0x6>
 80060f8:	a901      	add	r1, sp, #4
 80060fa:	b142      	cbz	r2, 800610e <__ascii_mbtowc+0x1a>
 80060fc:	b14b      	cbz	r3, 8006112 <__ascii_mbtowc+0x1e>
 80060fe:	7813      	ldrb	r3, [r2, #0]
 8006100:	600b      	str	r3, [r1, #0]
 8006102:	7812      	ldrb	r2, [r2, #0]
 8006104:	1c10      	adds	r0, r2, #0
 8006106:	bf18      	it	ne
 8006108:	2001      	movne	r0, #1
 800610a:	b002      	add	sp, #8
 800610c:	4770      	bx	lr
 800610e:	4610      	mov	r0, r2
 8006110:	e7fb      	b.n	800610a <__ascii_mbtowc+0x16>
 8006112:	f06f 0001 	mvn.w	r0, #1
 8006116:	e7f8      	b.n	800610a <__ascii_mbtowc+0x16>

08006118 <memmove>:
 8006118:	4288      	cmp	r0, r1
 800611a:	b510      	push	{r4, lr}
 800611c:	eb01 0302 	add.w	r3, r1, r2
 8006120:	d807      	bhi.n	8006132 <memmove+0x1a>
 8006122:	1e42      	subs	r2, r0, #1
 8006124:	4299      	cmp	r1, r3
 8006126:	d00a      	beq.n	800613e <memmove+0x26>
 8006128:	f811 4b01 	ldrb.w	r4, [r1], #1
 800612c:	f802 4f01 	strb.w	r4, [r2, #1]!
 8006130:	e7f8      	b.n	8006124 <memmove+0xc>
 8006132:	4283      	cmp	r3, r0
 8006134:	d9f5      	bls.n	8006122 <memmove+0xa>
 8006136:	1881      	adds	r1, r0, r2
 8006138:	1ad2      	subs	r2, r2, r3
 800613a:	42d3      	cmn	r3, r2
 800613c:	d100      	bne.n	8006140 <memmove+0x28>
 800613e:	bd10      	pop	{r4, pc}
 8006140:	f813 4d01 	ldrb.w	r4, [r3, #-1]!
 8006144:	f801 4d01 	strb.w	r4, [r1, #-1]!
 8006148:	e7f7      	b.n	800613a <memmove+0x22>

0800614a <__malloc_lock>:
 800614a:	4770      	bx	lr

0800614c <__malloc_unlock>:
 800614c:	4770      	bx	lr

0800614e <_realloc_r>:
 800614e:	b5f8      	push	{r3, r4, r5, r6, r7, lr}
 8006150:	4607      	mov	r7, r0
 8006152:	4614      	mov	r4, r2
 8006154:	460e      	mov	r6, r1
 8006156:	b921      	cbnz	r1, 8006162 <_realloc_r+0x14>
 8006158:	4611      	mov	r1, r2
 800615a:	e8bd 40f8 	ldmia.w	sp!, {r3, r4, r5, r6, r7, lr}
 800615e:	f7ff b973 	b.w	8005448 <_malloc_r>
 8006162:	b922      	cbnz	r2, 800616e <_realloc_r+0x20>
 8006164:	f7ff f922 	bl	80053ac <_free_r>
 8006168:	4625      	mov	r5, r4
 800616a:	4628      	mov	r0, r5
 800616c:	bdf8      	pop	{r3, r4, r5, r6, r7, pc}
 800616e:	f000 f821 	bl	80061b4 <_malloc_usable_size_r>
 8006172:	42a0      	cmp	r0, r4
 8006174:	d20f      	bcs.n	8006196 <_realloc_r+0x48>
 8006176:	4621      	mov	r1, r4
 8006178:	4638      	mov	r0, r7
 800617a:	f7ff f965 	bl	8005448 <_malloc_r>
 800617e:	4605      	mov	r5, r0
 8006180:	2800      	cmp	r0, #0
 8006182:	d0f2      	beq.n	800616a <_realloc_r+0x1c>
 8006184:	4631      	mov	r1, r6
 8006186:	4622      	mov	r2, r4
 8006188:	f7fe fe1c 	bl	8004dc4 <memcpy>
 800618c:	4631      	mov	r1, r6
 800618e:	4638      	mov	r0, r7
 8006190:	f7ff f90c 	bl	80053ac <_free_r>
 8006194:	e7e9      	b.n	800616a <_realloc_r+0x1c>
 8006196:	4635      	mov	r5, r6
 8006198:	e7e7      	b.n	800616a <_realloc_r+0x1c>

0800619a <__ascii_wctomb>:
 800619a:	b149      	cbz	r1, 80061b0 <__ascii_wctomb+0x16>
 800619c:	2aff      	cmp	r2, #255	; 0xff
 800619e:	bf85      	ittet	hi
 80061a0:	238a      	movhi	r3, #138	; 0x8a
 80061a2:	6003      	strhi	r3, [r0, #0]
 80061a4:	700a      	strbls	r2, [r1, #0]
 80061a6:	f04f 30ff 	movhi.w	r0, #4294967295
 80061aa:	bf98      	it	ls
 80061ac:	2001      	movls	r0, #1
 80061ae:	4770      	bx	lr
 80061b0:	4608      	mov	r0, r1
 80061b2:	4770      	bx	lr

080061b4 <_malloc_usable_size_r>:
 80061b4:	f851 3c04 	ldr.w	r3, [r1, #-4]
 80061b8:	1f18      	subs	r0, r3, #4
 80061ba:	2b00      	cmp	r3, #0
 80061bc:	bfbc      	itt	lt
 80061be:	580b      	ldrlt	r3, [r1, r0]
 80061c0:	18c0      	addlt	r0, r0, r3
 80061c2:	4770      	bx	lr

080061c4 <_init>:
 80061c4:	b5f8      	push	{r3, r4, r5, r6, r7, lr}
 80061c6:	bf00      	nop
 80061c8:	bcf8      	pop	{r3, r4, r5, r6, r7}
 80061ca:	bc08      	pop	{r3}
 80061cc:	469e      	mov	lr, r3
 80061ce:	4770      	bx	lr

080061d0 <_fini>:
 80061d0:	b5f8      	push	{r3, r4, r5, r6, r7, lr}
 80061d2:	bf00      	nop
 80061d4:	bcf8      	pop	{r3, r4, r5, r6, r7}
 80061d6:	bc08      	pop	{r3}
 80061d8:	469e      	mov	lr, r3
 80061da:	4770      	bx	lr
